libKtCore.so.4.9.0 katie-git #MINVER#
 _ZN5Katie10QByteArray10fromBase64ERKS0_@Base 4.9.0
 _ZN5Katie10QByteArray10setRawDataEPKci@Base 4.9.0
 _ZN5Katie10QByteArray11fromRawDataEPKci@Base 4.9.0
 _ZN5Katie10QByteArray11reallocDataEi@Base 4.9.0
 _ZN5Katie10QByteArray11shared_nullE@Base 4.9.0
 _ZN5Katie10QByteArray12shared_emptyE@Base 4.9.0
 _ZN5Katie10QByteArray19fromPercentEncodingERKS0_c@Base 4.9.0
 _ZN5Katie10QByteArray4chopEi@Base 4.9.0
 _ZN5Katie10QByteArray4fillEci@Base 4.9.0
 _ZN5Katie10QByteArray5clearEv@Base 4.9.0
 _ZN5Katie10QByteArray6appendEPKc@Base 4.9.0
 _ZN5Katie10QByteArray6appendEPKci@Base 4.9.0
 _ZN5Katie10QByteArray6appendERKS0_@Base 4.9.0
 _ZN5Katie10QByteArray6appendEc@Base 4.9.0
 _ZN5Katie10QByteArray6expandEi@Base 4.9.0
 _ZN5Katie10QByteArray6insertEiPKc@Base 4.9.0
 _ZN5Katie10QByteArray6insertEiPKci@Base 4.9.0
 _ZN5Katie10QByteArray6insertEiRKS0_@Base 4.9.0
 _ZN5Katie10QByteArray6insertEic@Base 4.9.0
 _ZN5Katie10QByteArray6numberEdci@Base 4.9.0
 _ZN5Katie10QByteArray6numberEii@Base 4.9.0
 _ZN5Katie10QByteArray6numberEji@Base 4.9.0
 _ZN5Katie10QByteArray6numberEsi@Base 4.9.0
 _ZN5Katie10QByteArray6numberEti@Base 4.9.0
 _ZN5Katie10QByteArray6numberExi@Base 4.9.0
 _ZN5Katie10QByteArray6numberEyi@Base 4.9.0
 _ZN5Katie10QByteArray6removeEii@Base 4.9.0
 _ZN5Katie10QByteArray6resizeEi@Base 4.9.0
 _ZN5Katie10QByteArray6setNumEdci@Base 4.9.0
 _ZN5Katie10QByteArray6setNumExi@Base 4.9.0
 _ZN5Katie10QByteArray6setNumEyi@Base 4.9.0
 _ZN5Katie10QByteArray7fromHexERKS0_@Base 4.9.0
 _ZN5Katie10QByteArray7prependEPKc@Base 4.9.0
 _ZN5Katie10QByteArray7prependEPKci@Base 4.9.0
 _ZN5Katie10QByteArray7prependERKS0_@Base 4.9.0
 _ZN5Katie10QByteArray7prependEc@Base 4.9.0
 _ZN5Katie10QByteArray7replaceEPKcRKS0_@Base 4.9.0
 _ZN5Katie10QByteArray7replaceEPKciS2_i@Base 4.9.0
 _ZN5Katie10QByteArray7replaceERKS0_S2_@Base 4.9.0
 _ZN5Katie10QByteArray7replaceEcRKS0_@Base 4.9.0
 _ZN5Katie10QByteArray7replaceEcc@Base 4.9.0
 _ZN5Katie10QByteArray7replaceEiiPKc@Base 4.9.0
 _ZN5Katie10QByteArray7replaceEiiPKci@Base 4.9.0
 _ZN5Katie10QByteArray7replaceEiiRKS0_@Base 4.9.0
 _ZN5Katie10QByteArray8freeDataEPNS0_4DataE@Base 4.9.0
 _ZN5Katie10QByteArray8truncateEi@Base 4.9.0
 _ZN5Katie10QByteArrayC1EPKc@Base 4.9.0
 _ZN5Katie10QByteArrayC1EPKci@Base 4.9.0
 _ZN5Katie10QByteArrayC1EiNS_2Qt14InitializationE@Base 4.9.0
 _ZN5Katie10QByteArrayC1Eic@Base 4.9.0
 _ZN5Katie10QByteArrayC2EPKc@Base 4.9.0
 _ZN5Katie10QByteArrayC2EPKci@Base 4.9.0
 _ZN5Katie10QByteArrayC2EiNS_2Qt14InitializationE@Base 4.9.0
 _ZN5Katie10QByteArrayC2Eic@Base 4.9.0
 _ZN5Katie10QByteArrayaSEPKc@Base 4.9.0
 _ZN5Katie10QByteArrayaSERKS0_@Base 4.9.0
 _ZN5Katie10QEventLoop11qt_metacallENS_11QMetaObject4CallEiPPv@Base 4.9.0
 _ZN5Katie10QEventLoop11qt_metacastEPKc@Base 4.9.0
 _ZN5Katie10QEventLoop13processEventsENS_6QFlagsINS0_17ProcessEventsFlagEEE@Base 4.9.0
 _ZN5Katie10QEventLoop13processEventsENS_6QFlagsINS0_17ProcessEventsFlagEEEi@Base 4.9.0
 _ZN5Katie10QEventLoop16staticMetaObjectE@Base 4.9.0
 _ZN5Katie10QEventLoop19getStaticMetaObjectEv@Base 4.9.0
 _ZN5Katie10QEventLoop4execENS_6QFlagsINS0_17ProcessEventsFlagEEE@Base 4.9.0
 _ZN5Katie10QEventLoop4exitEi@Base 4.9.0
 _ZN5Katie10QEventLoop4quitEv@Base 4.9.0
 _ZN5Katie10QEventLoop6wakeUpEv@Base 4.9.0
 _ZN5Katie10QEventLoopC1EPNS_7QObjectE@Base 4.9.0
 _ZN5Katie10QEventLoopC2EPNS_7QObjectE@Base 4.9.0
 _ZN5Katie10QEventLoopD0Ev@Base 4.9.0
 _ZN5Katie10QEventLoopD1Ev@Base 4.9.0
 _ZN5Katie10QEventLoopD2Ev@Base 4.9.0
 _ZN5Katie10QJsonArray14fromStringListERKNS_11QStringListE@Base 4.9.0
 _ZN5Katie10QJsonArray15fromVariantListERKNS_5QListINS_8QVariantEEE@Base 4.9.0
 _ZN5Katie10QJsonArray6appendERKNS_10QJsonValueE@Base 4.9.0
 _ZN5Katie10QJsonArray6detachEj@Base 4.9.0
 _ZN5Katie10QJsonArray6insertEiRKNS_10QJsonValueE@Base 4.9.0
 _ZN5Katie10QJsonArray6takeAtEi@Base 4.9.0
 _ZN5Katie10QJsonArray7compactEv@Base 4.9.0
 _ZN5Katie10QJsonArray7prependERKNS_10QJsonValueE@Base 4.9.0
 _ZN5Katie10QJsonArray7replaceEiRKNS_10QJsonValueE@Base 4.9.0
 _ZN5Katie10QJsonArray8removeAtEi@Base 4.9.0
 _ZN5Katie10QJsonArrayC1EPNS_12QJsonPrivate4DataEPNS1_5ArrayE@Base 4.9.0
 _ZN5Katie10QJsonArrayC1ERKS0_@Base 4.9.0
 _ZN5Katie10QJsonArrayC1Ev@Base 4.9.0
 _ZN5Katie10QJsonArrayC2EPNS_12QJsonPrivate4DataEPNS1_5ArrayE@Base 4.9.0
 _ZN5Katie10QJsonArrayC2ERKS0_@Base 4.9.0
 _ZN5Katie10QJsonArrayC2Ev@Base 4.9.0
 _ZN5Katie10QJsonArrayD1Ev@Base 4.9.0
 _ZN5Katie10QJsonArrayD2Ev@Base 4.9.0
 _ZN5Katie10QJsonArrayaSERKS0_@Base 4.9.0
 _ZN5Katie10QJsonArrayixEi@Base 4.9.0
 _ZN5Katie10QJsonValue11fromVariantERKNS_8QVariantE@Base 4.9.0
 _ZN5Katie10QJsonValue6detachEv@Base 4.9.0
 _ZN5Katie10QJsonValueC1ENS0_4TypeE@Base 4.9.0
 _ZN5Katie10QJsonValueC1ENS_13QLatin1StringE@Base 4.9.0
 _ZN5Katie10QJsonValueC1EPNS_12QJsonPrivate4DataEPNS1_4BaseERKNS1_5ValueE@Base 4.9.0
 _ZN5Katie10QJsonValueC1ERKNS_10QJsonArrayE@Base 4.9.0
 _ZN5Katie10QJsonValueC1ERKNS_11QJsonObjectE@Base 4.9.0
 _ZN5Katie10QJsonValueC1ERKNS_7QStringE@Base 4.9.0
 _ZN5Katie10QJsonValueC1ERKS0_@Base 4.9.0
 _ZN5Katie10QJsonValueC1Eb@Base 4.9.0
 _ZN5Katie10QJsonValueC1Ed@Base 4.9.0
 _ZN5Katie10QJsonValueC1Ei@Base 4.9.0
 _ZN5Katie10QJsonValueC1Ex@Base 4.9.0
 _ZN5Katie10QJsonValueC2ENS0_4TypeE@Base 4.9.0
 _ZN5Katie10QJsonValueC2ENS_13QLatin1StringE@Base 4.9.0
 _ZN5Katie10QJsonValueC2EPNS_12QJsonPrivate4DataEPNS1_4BaseERKNS1_5ValueE@Base 4.9.0
 _ZN5Katie10QJsonValueC2ERKNS_10QJsonArrayE@Base 4.9.0
 _ZN5Katie10QJsonValueC2ERKNS_11QJsonObjectE@Base 4.9.0
 _ZN5Katie10QJsonValueC2ERKNS_7QStringE@Base 4.9.0
 _ZN5Katie10QJsonValueC2ERKS0_@Base 4.9.0
 _ZN5Katie10QJsonValueC2Eb@Base 4.9.0
 _ZN5Katie10QJsonValueC2Ed@Base 4.9.0
 _ZN5Katie10QJsonValueC2Ei@Base 4.9.0
 _ZN5Katie10QJsonValueC2Ex@Base 4.9.0
 _ZN5Katie10QJsonValueD1Ev@Base 4.9.0
 _ZN5Katie10QJsonValueD2Ev@Base 4.9.0
 _ZN5Katie10QJsonValueaSERKS0_@Base 4.9.0
 _ZN5Katie10QMutexPool11createMutexEi@Base 4.9.0
 _ZN5Katie10QMutexPool17globalInstanceGetEPKv@Base 4.9.0
 _ZN5Katie10QMutexPool8instanceEv@Base 4.9.0
 _ZN5Katie10QMutexPoolC1ENS_6QMutex13RecursionModeE@Base 4.9.0
 _ZN5Katie10QMutexPoolC2ENS_6QMutex13RecursionModeE@Base 4.9.0
 _ZN5Katie10QMutexPoolD1Ev@Base 4.9.0
 _ZN5Katie10QMutexPoolD2Ev@Base 4.9.0
 _ZN5Katie10QSemaphore10tryAcquireEi@Base 4.9.0
 _ZN5Katie10QSemaphore10tryAcquireEii@Base 4.9.0
 _ZN5Katie10QSemaphore7acquireEi@Base 4.9.0
 _ZN5Katie10QSemaphore7releaseEi@Base 4.9.0
 _ZN5Katie10QSemaphoreC1Ei@Base 4.9.0
 _ZN5Katie10QSemaphoreC2Ei@Base 4.9.0
 _ZN5Katie10QSemaphoreD1Ev@Base 4.9.0
 _ZN5Katie10QSemaphoreD2Ev@Base 4.9.0
 _ZN5Katie10QTextCodec11codecForMibEi@Base 4.9.0
 _ZN5Katie10QTextCodec12codecForHtmlERKNS_10QByteArrayE@Base 4.9.0
 _ZN5Katie10QTextCodec12codecForHtmlERKNS_10QByteArrayEPS0_@Base 4.9.0
 _ZN5Katie10QTextCodec12codecForNameERKNS_10QByteArrayE@Base 4.9.0
 _ZN5Katie10QTextCodec12codecForTextERKNS_10QByteArrayE@Base 4.9.0
 _ZN5Katie10QTextCodec12codecForTextERKNS_10QByteArrayEPS0_@Base 4.9.0
 _ZN5Katie10QTextCodec13availableMibsEv@Base 4.9.0
 _ZN5Katie10QTextCodec14ConverterStateD1Ev@Base 4.9.0
 _ZN5Katie10QTextCodec14ConverterStateD2Ev@Base 4.9.0
 _ZN5Katie10QTextCodec14codecForLocaleEv@Base 4.9.0
 _ZN5Katie10QTextCodec15availableCodecsEv@Base 4.9.0
 _ZN5Katie10QTextCodec15codecForUtfTextERKNS_10QByteArrayE@Base 4.9.0
 _ZN5Katie10QTextCodec15codecForUtfTextERKNS_10QByteArrayEPS0_@Base 4.9.0
 _ZN5Katie10QTextCodec17setCodecForLocaleEPS0_@Base 4.9.0
 _ZN5Katie10QTextCodec4cftrE@Base 4.9.0
 _ZN5Katie10QTextCodecC1Ev@Base 4.9.0
 _ZN5Katie10QTextCodecC2Ev@Base 4.9.0
 _ZN5Katie10QTextCodecD0Ev@Base 4.9.0
 _ZN5Katie10QTextCodecD1Ev@Base 4.9.0
 _ZN5Katie10QTextCodecD2Ev@Base 4.9.0
 _ZN5Katie10forcepointERNS_11QTextStreamE@Base 4.9.0
 _ZN5Katie10noshowbaseERNS_11QTextStreamE@Base 4.9.0
 _ZN5Katie10qAllocMoreEii@Base 4.9.0
 _ZN5Katie10qvsnprintfEPcjPKcS0_@Base 4.9.0
 _ZN5Katie10scientificERNS_11QTextStreamE@Base 4.9.0
 _ZN5Katie11QBasicTimer4stopEv@Base 4.9.0
 _ZN5Katie11QBasicTimer5startEiPNS_7QObjectE@Base 4.9.0
 _ZN5Katie11QChildEventC1ENS_6QEvent4TypeEPNS_7QObjectE@Base 4.9.0
 _ZN5Katie11QChildEventC2ENS_6QEvent4TypeEPNS_7QObjectE@Base 4.9.0
 _ZN5Katie11QChildEventD0Ev@Base 4.9.0
 _ZN5Katie11QChildEventD1Ev@Base 4.9.0
 _ZN5Katie11QChildEventD2Ev@Base 4.9.0
 _ZN5Katie11QDataStream10writeBytesEPKcj@Base 4.9.0
 _ZN5Katie11QDataStream11readRawDataEPci@Base 4.9.0
 _ZN5Katie11QDataStream11resetStatusEv@Base 4.9.0
 _ZN5Katie11QDataStream11skipRawDataEi@Base 4.9.0
 _ZN5Katie11QDataStream12setByteOrderENS0_9ByteOrderE@Base 4.9.0
 _ZN5Katie11QDataStream12writeRawDataEPKci@Base 4.9.0
 _ZN5Katie11QDataStream25setFloatingPointPrecisionENS0_22FloatingPointPrecisionE@Base 4.9.0
 _ZN5Katie11QDataStream9readBytesERPcRj@Base 4.9.0
 _ZN5Katie11QDataStream9setDeviceEPNS_9QIODeviceE@Base 4.9.0
 _ZN5Katie11QDataStream9setStatusENS0_10DataStatusE@Base 4.9.0
 _ZN5Katie11QDataStreamC1EPNS_10QByteArrayENS_6QFlagsINS_9QIODevice12OpenModeFlagEEE@Base 4.9.0
 _ZN5Katie11QDataStreamC1EPNS_9QIODeviceE@Base 4.9.0
 _ZN5Katie11QDataStreamC1ERKNS_10QByteArrayE@Base 4.9.0
 _ZN5Katie11QDataStreamC1Ev@Base 4.9.0
 _ZN5Katie11QDataStreamC2EPNS_10QByteArrayENS_6QFlagsINS_9QIODevice12OpenModeFlagEEE@Base 4.9.0
 _ZN5Katie11QDataStreamC2EPNS_9QIODeviceE@Base 4.9.0
 _ZN5Katie11QDataStreamC2ERKNS_10QByteArrayE@Base 4.9.0
 _ZN5Katie11QDataStreamC2Ev@Base 4.9.0
 _ZN5Katie11QDataStreamD0Ev@Base 4.9.0
 _ZN5Katie11QDataStreamD1Ev@Base 4.9.0
 _ZN5Katie11QDataStreamD2Ev@Base 4.9.0
 _ZN5Katie11QDataStreamlsEPKc@Base 4.9.0
 _ZN5Katie11QDataStreamlsEa@Base 4.9.0
 _ZN5Katie11QDataStreamlsEb@Base 4.9.0
 _ZN5Katie11QDataStreamlsEd@Base 4.9.0
 _ZN5Katie11QDataStreamlsEf@Base 4.9.0
 _ZN5Katie11QDataStreamlsEi@Base 4.9.0
 _ZN5Katie11QDataStreamlsEs@Base 4.9.0
 _ZN5Katie11QDataStreamlsEx@Base 4.9.0
 _ZN5Katie11QDataStreamrsERPc@Base 4.9.0
 _ZN5Katie11QDataStreamrsERa@Base 4.9.0
 _ZN5Katie11QDataStreamrsERb@Base 4.9.0
 _ZN5Katie11QDataStreamrsERd@Base 4.9.0
 _ZN5Katie11QDataStreamrsERf@Base 4.9.0
 _ZN5Katie11QDataStreamrsERi@Base 4.9.0
 _ZN5Katie11QDataStreamrsERs@Base 4.9.0
 _ZN5Katie11QDataStreamrsERx@Base 4.9.0
 _ZN5Katie11QJsonObject10setValueAtEiRKNS_10QJsonValueE@Base 4.9.0
 _ZN5Katie11QJsonObject14fromVariantMapERKNS_4QMapINS_7QStringENS_8QVariantEEE@Base 4.9.0
 _ZN5Katie11QJsonObject15fromVariantHashERKNS_5QHashINS_7QStringENS_8QVariantEEE@Base 4.9.0
 _ZN5Katie11QJsonObject4findERKNS_7QStringE@Base 4.9.0
 _ZN5Katie11QJsonObject4takeERKNS_7QStringE@Base 4.9.0
 _ZN5Katie11QJsonObject5eraseENS0_8iteratorE@Base 4.9.0
 _ZN5Katie11QJsonObject6detachEj@Base 4.9.0
 _ZN5Katie11QJsonObject6insertERKNS_7QStringERKNS_10QJsonValueE@Base 4.9.0
 _ZN5Katie11QJsonObject6removeERKNS_7QStringE@Base 4.9.0
 _ZN5Katie11QJsonObject7compactEv@Base 4.9.0
 _ZN5Katie11QJsonObjectC1EPNS_12QJsonPrivate4DataEPNS1_6ObjectE@Base 4.9.0
 _ZN5Katie11QJsonObjectC1ERKS0_@Base 4.9.0
 _ZN5Katie11QJsonObjectC1Ev@Base 4.9.0
 _ZN5Katie11QJsonObjectC2EPNS_12QJsonPrivate4DataEPNS1_6ObjectE@Base 4.9.0
 _ZN5Katie11QJsonObjectC2ERKS0_@Base 4.9.0
 _ZN5Katie11QJsonObjectC2Ev@Base 4.9.0
 _ZN5Katie11QJsonObjectD1Ev@Base 4.9.0
 _ZN5Katie11QJsonObjectD2Ev@Base 4.9.0
 _ZN5Katie11QJsonObjectaSERKS0_@Base 4.9.0
 _ZN5Katie11QJsonObjectixERKNS_7QStringE@Base 4.9.0
 _ZN5Katie11QMetaObject10disconnectEPKNS_7QObjectEiS3_i@Base 4.9.0
 _ZN5Katie11QMetaObject12invokeMethodEPNS_7QObjectEPKcNS_2Qt14ConnectionTypeENS_22QGenericReturnArgumentENS_16QGenericArgumentES8_S8_S8_S8_S8_S8_S8_S8_S8_@Base 4.9.0
 _ZN5Katie11QMetaObject13disconnectOneEPKNS_7QObjectEiS3_i@Base 4.9.0
 _ZN5Katie11QMetaObject14normalizedTypeEPKc@Base 4.9.0
 _ZN5Katie11QMetaObject16checkConnectArgsEPKcS2_@Base 4.9.0
 _ZN5Katie11QMetaObject18connectSlotsByNameEPNS_7QObjectE@Base 4.9.0
 _ZN5Katie11QMetaObject19normalizedSignatureEPKc@Base 4.9.0
 _ZN5Katie11QMetaObject7connectEPKNS_7QObjectEiS3_iiPi@Base 4.9.0
 _ZN5Katie11QMetaObject8activateEPNS_7QObjectEPKS0_iPPv@Base 4.9.0
 _ZN5Katie11QMetaObject8activateEPNS_7QObjectEiPPv@Base 4.9.0
 _ZN5Katie11QMetaObject8metacallEPNS_7QObjectENS0_4CallEiPPv@Base 4.9.0
 _ZN5Katie11QStringList16removeDuplicatesEv@Base 4.9.0
 _ZN5Katie11QStringList16replaceInStringsERKNS_7QRegExpERKNS_7QStringE@Base 4.9.0
 _ZN5Katie11QStringList16replaceInStringsERKNS_7QStringES3_NS_2Qt15CaseSensitivityE@Base 4.9.0
 _ZN5Katie11QStringList4sortEv@Base 4.9.0
 _ZN5Katie11QTextStream10setPadCharENS_5QCharE@Base 4.9.0
 _ZN5Katie11QTextStream11resetStatusEv@Base 4.9.0
 _ZN5Katie11QTextStream13setFieldWidthEi@Base 4.9.0
 _ZN5Katie11QTextStream14setIntegerBaseEi@Base 4.9.0
 _ZN5Katie11QTextStream14setNumberFlagsENS_6QFlagsINS0_10NumberFlagEEE@Base 4.9.0
 _ZN5Katie11QTextStream14skipWhiteSpaceEv@Base 4.9.0
 _ZN5Katie11QTextStream17setFieldAlignmentENS0_14FieldAlignmentE@Base 4.9.0
 _ZN5Katie11QTextStream20setAutoDetectUnicodeEb@Base 4.9.0
 _ZN5Katie11QTextStream21setRealNumberNotationENS0_18RealNumberNotationE@Base 4.9.0
 _ZN5Katie11QTextStream22setRealNumberPrecisionEi@Base 4.9.0
 _ZN5Katie11QTextStream24setGenerateByteOrderMarkEb@Base 4.9.0
 _ZN5Katie11QTextStream4readEx@Base 4.9.0
 _ZN5Katie11QTextStream4seekEx@Base 4.9.0
 _ZN5Katie11QTextStream5flushEv@Base 4.9.0
 _ZN5Katie11QTextStream5resetEv@Base 4.9.0
 _ZN5Katie11QTextStream7readAllEv@Base 4.9.0
 _ZN5Katie11QTextStream8readLineEx@Base 4.9.0
 _ZN5Katie11QTextStream8setCodecEPKc@Base 4.9.0
 _ZN5Katie11QTextStream8setCodecEPNS_10QTextCodecE@Base 4.9.0
 _ZN5Katie11QTextStream9setDeviceEPNS_9QIODeviceE@Base 4.9.0
 _ZN5Katie11QTextStream9setLocaleERKNS_7QLocaleE@Base 4.9.0
 _ZN5Katie11QTextStream9setStatusENS0_10TextStatusE@Base 4.9.0
 _ZN5Katie11QTextStream9setStringEPNS_7QStringENS_6QFlagsINS_9QIODevice12OpenModeFlagEEE@Base 4.9.0
 _ZN5Katie11QTextStreamC1EP8_IO_FILENS_6QFlagsINS_9QIODevice12OpenModeFlagEEE@Base 4.9.0
 _ZN5Katie11QTextStreamC1EPNS_10QByteArrayENS_6QFlagsINS_9QIODevice12OpenModeFlagEEE@Base 4.9.0
 _ZN5Katie11QTextStreamC1EPNS_7QStringENS_6QFlagsINS_9QIODevice12OpenModeFlagEEE@Base 4.9.0
 _ZN5Katie11QTextStreamC1EPNS_9QIODeviceE@Base 4.9.0
 _ZN5Katie11QTextStreamC1ERKNS_10QByteArrayENS_6QFlagsINS_9QIODevice12OpenModeFlagEEE@Base 4.9.0
 _ZN5Katie11QTextStreamC1Ev@Base 4.9.0
 _ZN5Katie11QTextStreamC2EP8_IO_FILENS_6QFlagsINS_9QIODevice12OpenModeFlagEEE@Base 4.9.0
 _ZN5Katie11QTextStreamC2EPNS_10QByteArrayENS_6QFlagsINS_9QIODevice12OpenModeFlagEEE@Base 4.9.0
 _ZN5Katie11QTextStreamC2EPNS_7QStringENS_6QFlagsINS_9QIODevice12OpenModeFlagEEE@Base 4.9.0
 _ZN5Katie11QTextStreamC2EPNS_9QIODeviceE@Base 4.9.0
 _ZN5Katie11QTextStreamC2ERKNS_10QByteArrayENS_6QFlagsINS_9QIODevice12OpenModeFlagEEE@Base 4.9.0
 _ZN5Katie11QTextStreamC2Ev@Base 4.9.0
 _ZN5Katie11QTextStreamD0Ev@Base 4.9.0
 _ZN5Katie11QTextStreamD1Ev@Base 4.9.0
 _ZN5Katie11QTextStreamD2Ev@Base 4.9.0
 _ZN5Katie11QTextStreamlsENS_5QCharE@Base 4.9.0
 _ZN5Katie11QTextStreamlsEPKc@Base 4.9.0
 _ZN5Katie11QTextStreamlsEPKv@Base 4.9.0
 _ZN5Katie11QTextStreamlsERKNS_10QByteArrayE@Base 4.9.0
 _ZN5Katie11QTextStreamlsERKNS_7QStringE@Base 4.9.0
 _ZN5Katie11QTextStreamlsEc@Base 4.9.0
 _ZN5Katie11QTextStreamlsEd@Base 4.9.0
 _ZN5Katie11QTextStreamlsEf@Base 4.9.0
 _ZN5Katie11QTextStreamlsEi@Base 4.9.0
 _ZN5Katie11QTextStreamlsEj@Base 4.9.0
 _ZN5Katie11QTextStreamlsEl@Base 4.9.0
 _ZN5Katie11QTextStreamlsEm@Base 4.9.0
 _ZN5Katie11QTextStreamlsEs@Base 4.9.0
 _ZN5Katie11QTextStreamlsEt@Base 4.9.0
 _ZN5Katie11QTextStreamlsEx@Base 4.9.0
 _ZN5Katie11QTextStreamlsEy@Base 4.9.0
 _ZN5Katie11QTextStreamrsEPc@Base 4.9.0
 _ZN5Katie11QTextStreamrsERNS_10QByteArrayE@Base 4.9.0
 _ZN5Katie11QTextStreamrsERNS_5QCharE@Base 4.9.0
 _ZN5Katie11QTextStreamrsERNS_7QStringE@Base 4.9.0
 _ZN5Katie11QTextStreamrsERc@Base 4.9.0
 _ZN5Katie11QTextStreamrsERd@Base 4.9.0
 _ZN5Katie11QTextStreamrsERf@Base 4.9.0
 _ZN5Katie11QTextStreamrsERi@Base 4.9.0
 _ZN5Katie11QTextStreamrsERj@Base 4.9.0
 _ZN5Katie11QTextStreamrsERl@Base 4.9.0
 _ZN5Katie11QTextStreamrsERm@Base 4.9.0
 _ZN5Katie11QTextStreamrsERs@Base 4.9.0
 _ZN5Katie11QTextStreamrsERt@Base 4.9.0
 _ZN5Katie11QTextStreamrsERx@Base 4.9.0
 _ZN5Katie11QTextStreamrsERy@Base 4.9.0
 _ZN5Katie11QThreadPool11qt_metacallENS_11QMetaObject4CallEiPPv@Base 4.9.0
 _ZN5Katie11QThreadPool11qt_metacastEPKc@Base 4.9.0
 _ZN5Katie11QThreadPool11waitForDoneEi@Base 4.9.0
 _ZN5Katie11QThreadPool11waitForDoneEv@Base 4.9.0
 _ZN5Katie11QThreadPool13releaseThreadEv@Base 4.9.0
 _ZN5Katie11QThreadPool13reserveThreadEv@Base 4.9.0
 _ZN5Katie11QThreadPool14globalInstanceEv@Base 4.9.0
 _ZN5Katie11QThreadPool16setExpiryTimeoutEi@Base 4.9.0
 _ZN5Katie11QThreadPool16staticMetaObjectE@Base 4.9.0
 _ZN5Katie11QThreadPool17setMaxThreadCountEi@Base 4.9.0
 _ZN5Katie11QThreadPool19getStaticMetaObjectEv@Base 4.9.0
 _ZN5Katie11QThreadPool5startEPNS_9QRunnableEi@Base 4.9.0
 _ZN5Katie11QThreadPool8tryStartEPNS_9QRunnableE@Base 4.9.0
 _ZN5Katie11QThreadPoolC1EPNS_7QObjectE@Base 4.9.0
 _ZN5Katie11QThreadPoolC2EPNS_7QObjectE@Base 4.9.0
 _ZN5Katie11QThreadPoolD0Ev@Base 4.9.0
 _ZN5Katie11QThreadPoolD1Ev@Base 4.9.0
 _ZN5Katie11QThreadPoolD2Ev@Base 4.9.0
 _ZN5Katie11QTimerEventC1Ei@Base 4.9.0
 _ZN5Katie11QTimerEventC2Ei@Base 4.9.0
 _ZN5Katie11QTimerEventD0Ev@Base 4.9.0
 _ZN5Katie11QTimerEventD1Ev@Base 4.9.0
 _ZN5Katie11QTimerEventD2Ev@Base 4.9.0
 _ZN5Katie11QTranslator11qt_metacallENS_11QMetaObject4CallEiPPv@Base 4.9.0
 _ZN5Katie11QTranslator11qt_metacastEPKc@Base 4.9.0
 _ZN5Katie11QTranslator16staticMetaObjectE@Base 4.9.0
 _ZN5Katie11QTranslator19getStaticMetaObjectEv@Base 4.9.0
 _ZN5Katie11QTranslator4loadEPKhi@Base 4.9.0
 _ZN5Katie11QTranslator4loadERKNS_7QLocaleERKNS_7QStringES6_S6_S6_@Base 4.9.0
 _ZN5Katie11QTranslator4loadERKNS_7QStringES3_S3_S3_@Base 4.9.0
 _ZN5Katie11QTranslatorC1EPNS_7QObjectE@Base 4.9.0
 _ZN5Katie11QTranslatorC2EPNS_7QObjectE@Base 4.9.0
 _ZN5Katie11QTranslatorD0Ev@Base 4.9.0
 _ZN5Katie11QTranslatorD1Ev@Base 4.9.0
 _ZN5Katie11QTranslatorD2Ev@Base 4.9.0
 _ZN5Katie11QVectorData10reallocateEPS0_i@Base 4.9.0
 _ZN5Katie11QVectorData11shared_nullE@Base 4.9.0
 _ZN5Katie11QVectorData4growEiiib@Base 4.9.0
 _ZN5Katie11QVectorData8allocateEi@Base 4.9.0
 _ZN5Katie11QVectorData8freeDataEPS0_@Base 4.9.0
 _ZN5Katie11noforcesignERNS_11QTextStreamE@Base 4.9.0
 _ZN5Katie11qUncompressEPKhi@Base 4.9.0
 _ZN5Katie11qt_assert_xEPKcS1_S1_i@Base 4.9.0
 _ZN5Katie11qt_int_sqrtEj@Base 4.9.0
 _ZN5Katie12QDirIterator4nextEv@Base 4.9.0
 _ZN5Katie12QDirIteratorC1ERKNS_4QDirENS_6QFlagsINS0_12IteratorFlagEEE@Base 4.9.0
 _ZN5Katie12QDirIteratorC1ERKNS_7QStringENS_6QFlagsINS0_12IteratorFlagEEE@Base 4.9.0
 _ZN5Katie12QDirIteratorC1ERKNS_7QStringENS_6QFlagsINS_4QDir6FilterEEENS4_INS0_12IteratorFlagEEE@Base 4.9.0
 _ZN5Katie12QDirIteratorC1ERKNS_7QStringERKNS_11QStringListENS_6QFlagsINS_4QDir6FilterEEENS7_INS0_12IteratorFlagEEE@Base 4.9.0
 _ZN5Katie12QDirIteratorC2ERKNS_4QDirENS_6QFlagsINS0_12IteratorFlagEEE@Base 4.9.0
 _ZN5Katie12QDirIteratorC2ERKNS_7QStringENS_6QFlagsINS0_12IteratorFlagEEE@Base 4.9.0
 _ZN5Katie12QDirIteratorC2ERKNS_7QStringENS_6QFlagsINS_4QDir6FilterEEENS4_INS0_12IteratorFlagEEE@Base 4.9.0
 _ZN5Katie12QDirIteratorC2ERKNS_7QStringERKNS_11QStringListENS_6QFlagsINS_4QDir6FilterEEENS7_INS0_12IteratorFlagEEE@Base 4.9.0
 _ZN5Katie12QDirIteratorD0Ev@Base 4.9.0
 _ZN5Katie12QDirIteratorD1Ev@Base 4.9.0
 _ZN5Katie12QDirIteratorD2Ev@Base 4.9.0
 _ZN5Katie12QEasingCurve12setAmplitudeEd@Base 4.9.0
 _ZN5Katie12QEasingCurve12setOvershootEd@Base 4.9.0
 _ZN5Katie12QEasingCurve13setCustomTypeEPFddE@Base 4.9.0
 _ZN5Katie12QEasingCurve16staticMetaObjectE@Base 4.9.0
 _ZN5Katie12QEasingCurve19getStaticMetaObjectEv@Base 4.9.0
 _ZN5Katie12QEasingCurve7setTypeENS0_4TypeE@Base 4.9.0
 _ZN5Katie12QEasingCurve9setPeriodEd@Base 4.9.0
 _ZN5Katie12QEasingCurveC1ENS0_4TypeE@Base 4.9.0
 _ZN5Katie12QEasingCurveC1ERKS0_@Base 4.9.0
 _ZN5Katie12QEasingCurveC2ENS0_4TypeE@Base 4.9.0
 _ZN5Katie12QEasingCurveC2ERKS0_@Base 4.9.0
 _ZN5Katie12QEasingCurveD1Ev@Base 4.9.0
 _ZN5Katie12QEasingCurveD2Ev@Base 4.9.0
 _ZN5Katie12QEasingCurveaSERKS0_@Base 4.9.0
 _ZN5Katie12QLibraryInfo16licensedProductsEv@Base 4.9.0
 _ZN5Katie12QLibraryInfo8buildKeyEv@Base 4.9.0
 _ZN5Katie12QLibraryInfo8licenseeEv@Base 4.9.0
 _ZN5Katie12QLibraryInfo8locationENS0_15LibraryLocationE@Base 4.9.0
 _ZN5Katie12QLibraryInfo9buildDateEv@Base 4.9.0
 _ZN5Katie12QLibraryInfoC1Ev@Base 4.9.0
 _ZN5Katie12QLibraryInfoC2Ev@Base 4.9.0
 _ZN5Katie12QSystemError8toStringEv@Base 4.9.0
 _ZN5Katie12QTextDecoder9toUnicodeEPKci@Base 4.9.0
 _ZN5Katie12QTextDecoder9toUnicodeEPNS_7QStringEPKci@Base 4.9.0
 _ZN5Katie12QTextDecoder9toUnicodeERKNS_10QByteArrayE@Base 4.9.0
 _ZN5Katie12QTextDecoderC1EPKNS_10QTextCodecENS_6QFlagsINS1_14ConversionFlagEEE@Base 4.9.0
 _ZN5Katie12QTextDecoderC2EPKNS_10QTextCodecENS_6QFlagsINS1_14ConversionFlagEEE@Base 4.9.0
 _ZN5Katie12QTextDecoderD1Ev@Base 4.9.0
 _ZN5Katie12QTextDecoderD2Ev@Base 4.9.0
 _ZN5Katie12QTextEncoder11fromUnicodeEPKNS_5QCharEi@Base 4.9.0
 _ZN5Katie12QTextEncoder11fromUnicodeERKNS_7QStringE@Base 4.9.0
 _ZN5Katie12QTextEncoderC1EPKNS_10QTextCodecENS_6QFlagsINS1_14ConversionFlagEEE@Base 4.9.0
 _ZN5Katie12QTextEncoderC2EPKNS_10QTextCodecENS_6QFlagsINS1_14ConversionFlagEEE@Base 4.9.0
 _ZN5Katie12QTextEncoderD1Ev@Base 4.9.0
 _ZN5Katie12QTextEncoderD2Ev@Base 4.9.0
 _ZN5Katie12QtConcurrent15ResultStoreBase10addResultsEiPKvii@Base 4.9.0
 _ZN5Katie12QtConcurrent15ResultStoreBase13setFilterModeEb@Base 4.9.0
 _ZN5Katie12QtConcurrent15ResultStoreBase15syncResultCountEv@Base 4.9.0
 _ZN5Katie12QtConcurrent15ResultStoreBase16insertResultItemEiRNS0_10ResultItemE@Base 4.9.0
 _ZN5Katie12QtConcurrent15ResultStoreBase17updateInsertIndexEii@Base 4.9.0
 _ZN5Katie12QtConcurrent15ResultStoreBase18syncPendingResultsEv@Base 4.9.0
 _ZN5Katie12QtConcurrent15ResultStoreBase23insertResultItemIfValidEiRNS0_10ResultItemE@Base 4.9.0
 _ZN5Katie12QtConcurrent15ResultStoreBase9addResultEiPKv@Base 4.9.0
 _ZN5Katie12QtConcurrent15ResultStoreBaseC1Ev@Base 4.9.0
 _ZN5Katie12QtConcurrent15ResultStoreBaseC2Ev@Base 4.9.0
 _ZN5Katie12QtConcurrent16BlockSizeManager13timeAfterUserEv@Base 4.9.0
 _ZN5Katie12QtConcurrent16BlockSizeManager14timeBeforeUserEv@Base 4.9.0
 _ZN5Katie12QtConcurrent16BlockSizeManager9blockSizeEv@Base 4.9.0
 _ZN5Katie12QtConcurrent16BlockSizeManagerC1Ei@Base 4.9.0
 _ZN5Katie12QtConcurrent16BlockSizeManagerC2Ei@Base 4.9.0
 _ZN5Katie12QtConcurrent16ThreadEngineBase10isCanceledEv@Base 4.9.0
 _ZN5Katie12QtConcurrent16ThreadEngineBase10threadExitEv@Base 4.9.0
 _ZN5Katie12QtConcurrent16ThreadEngineBase11startThreadEv@Base 4.9.0
 _ZN5Katie12QtConcurrent16ThreadEngineBase12startThreadsEv@Base 4.9.0
 _ZN5Katie12QtConcurrent16ThreadEngineBase13startBlockingEv@Base 4.9.0
 _ZN5Katie12QtConcurrent16ThreadEngineBase13waitForResumeEv@Base 4.9.0
 _ZN5Katie12QtConcurrent16ThreadEngineBase15handleExceptionERKNS0_9ExceptionE@Base 4.9.0
 _ZN5Katie12QtConcurrent16ThreadEngineBase16setProgressRangeEii@Base 4.9.0
 _ZN5Katie12QtConcurrent16ThreadEngineBase16setProgressValueEi@Base 4.9.0
 _ZN5Katie12QtConcurrent16ThreadEngineBase18threadThrottleExitEv@Base 4.9.0
 _ZN5Katie12QtConcurrent16ThreadEngineBase19startSingleThreadedEv@Base 4.9.0
 _ZN5Katie12QtConcurrent16ThreadEngineBase19startThreadInternalEv@Base 4.9.0
 _ZN5Katie12QtConcurrent16ThreadEngineBase23acquireBarrierSemaphoreEv@Base 4.9.0
 _ZN5Katie12QtConcurrent16ThreadEngineBase26isProgressReportingEnabledEv@Base 4.9.0
 _ZN5Katie12QtConcurrent16ThreadEngineBase3runEv@Base 4.9.0
 _ZN5Katie12QtConcurrent16ThreadEngineBaseC1Ev@Base 4.9.0
 _ZN5Katie12QtConcurrent16ThreadEngineBaseC2Ev@Base 4.9.0
 _ZN5Katie12QtConcurrent16ThreadEngineBaseD0Ev@Base 4.9.0
 _ZN5Katie12QtConcurrent16ThreadEngineBaseD1Ev@Base 4.9.0
 _ZN5Katie12QtConcurrent16ThreadEngineBaseD2Ev@Base 4.9.0
 _ZN5Katie12QtConcurrent18ResultIteratorBase14batchedAdvanceEv@Base 4.9.0
 _ZN5Katie12QtConcurrent18ResultIteratorBaseC1ENS_4QMapIiNS0_10ResultItemEE14const_iteratorEi@Base 4.9.0
 _ZN5Katie12QtConcurrent18ResultIteratorBaseC1Ev@Base 4.9.0
 _ZN5Katie12QtConcurrent18ResultIteratorBaseC2ENS_4QMapIiNS0_10ResultItemEE14const_iteratorEi@Base 4.9.0
 _ZN5Katie12QtConcurrent18ResultIteratorBaseC2Ev@Base 4.9.0
 _ZN5Katie12QtConcurrent18ResultIteratorBaseppEv@Base 4.9.0
 _ZN5Katie12QtConcurrent8internal14ExceptionStore12setExceptionERKNS0_9ExceptionE@Base 4.9.0
 _ZN5Katie12QtConcurrent8internal14ExceptionStore22throwPossibleExceptionEv@Base 4.9.0
 _ZN5Katie12QtConcurrent8internal14ExceptionStore9exceptionEv@Base 4.9.0
 _ZN5Katie12noforcepointERNS_11QTextStreamE@Base 4.9.0
 _ZN5Katie12qSharedBuildEv@Base 4.9.0
 _ZN5Katie13QElapsedTimer10invalidateEv@Base 4.9.0
 _ZN5Katie13QElapsedTimer11isMonotonicEv@Base 4.9.0
 _ZN5Katie13QElapsedTimer5startEv@Base 4.9.0
 _ZN5Katie13QElapsedTimer7restartEv@Base 4.9.0
 _ZN5Katie13QElapsedTimer9clockTypeEv@Base 4.9.0
 _ZN5Katie13QFSFileEngine11currentPathERKNS_7QStringE@Base 4.9.0
 _ZN5Katie13QFSFileEngine11setFileNameERKNS_7QStringE@Base 4.9.0
 _ZN5Katie13QFSFileEngine12endEntryListEv@Base 4.9.0
 _ZN5Katie13QFSFileEngine14beginEntryListENS_6QFlagsINS_4QDir6FilterEEERKNS_11QStringListE@Base 4.9.0
 _ZN5Katie13QFSFileEngine14setCurrentPathERKNS_7QStringE@Base 4.9.0
 _ZN5Katie13QFSFileEngine14setPermissionsEj@Base 4.9.0
 _ZN5Katie13QFSFileEngine4copyERKNS_7QStringE@Base 4.9.0
 _ZN5Katie13QFSFileEngine4linkERKNS_7QStringE@Base 4.9.0
 _ZN5Katie13QFSFileEngine4openENS_6QFlagsINS_9QIODevice12OpenModeFlagEEE@Base 4.9.0
 _ZN5Katie13QFSFileEngine4openENS_6QFlagsINS_9QIODevice12OpenModeFlagEEEP8_IO_FILE@Base 4.9.0
 _ZN5Katie13QFSFileEngine4openENS_6QFlagsINS_9QIODevice12OpenModeFlagEEEP8_IO_FILENS1_INS_5QFile14FileHandleFlagEEE@Base 4.9.0
 _ZN5Katie13QFSFileEngine4openENS_6QFlagsINS_9QIODevice12OpenModeFlagEEEi@Base 4.9.0
 _ZN5Katie13QFSFileEngine4openENS_6QFlagsINS_9QIODevice12OpenModeFlagEEEiNS1_INS_5QFile14FileHandleFlagEEE@Base 4.9.0
 _ZN5Katie13QFSFileEngine4readEPcx@Base 4.9.0
 _ZN5Katie13QFSFileEngine4seekEx@Base 4.9.0
 _ZN5Katie13QFSFileEngine5closeEv@Base 4.9.0
 _ZN5Katie13QFSFileEngine5flushEv@Base 4.9.0
 _ZN5Katie13QFSFileEngine5writeEPKcx@Base 4.9.0
 _ZN5Katie13QFSFileEngine6removeEv@Base 4.9.0
 _ZN5Katie13QFSFileEngine6renameERKNS_7QStringE@Base 4.9.0
 _ZN5Katie13QFSFileEngine7setSizeEx@Base 4.9.0
 _ZN5Katie13QFSFileEngine8homePathEv@Base 4.9.0
 _ZN5Katie13QFSFileEngine8readLineEPcx@Base 4.9.0
 _ZN5Katie13QFSFileEngine8rootPathEv@Base 4.9.0
 _ZN5Katie13QFSFileEngine8tempPathEv@Base 4.9.0
 _ZN5Katie13QFSFileEngine9extensionENS_19QAbstractFileEngine9ExtensionEPKNS1_15ExtensionOptionEPNS1_15ExtensionReturnE@Base 4.9.0
 _ZN5Katie13QFSFileEngineC1ERKNS_7QStringE@Base 4.9.0
 _ZN5Katie13QFSFileEngineC1ERNS_20QFSFileEnginePrivateE@Base 4.9.0
 _ZN5Katie13QFSFileEngineC1Ev@Base 4.9.0
 _ZN5Katie13QFSFileEngineC2ERKNS_7QStringE@Base 4.9.0
 _ZN5Katie13QFSFileEngineC2ERNS_20QFSFileEnginePrivateE@Base 4.9.0
 _ZN5Katie13QFSFileEngineC2Ev@Base 4.9.0
 _ZN5Katie13QFSFileEngineD0Ev@Base 4.9.0
 _ZN5Katie13QFSFileEngineD1Ev@Base 4.9.0
 _ZN5Katie13QFSFileEngineD2Ev@Base 4.9.0
 _ZN5Katie13QJsonDocument11fromRawDataEPKciNS0_14DataValidationE@Base 4.9.0
 _ZN5Katie13QJsonDocument11fromVariantERKNS_8QVariantE@Base 4.9.0
 _ZN5Katie13QJsonDocument14fromBinaryDataERKNS_10QByteArrayENS0_14DataValidationE@Base 4.9.0
 _ZN5Katie13QJsonDocument8fromJsonERKNS_10QByteArrayEPNS_15QJsonParseErrorE@Base 4.9.0
 _ZN5Katie13QJsonDocument8setArrayERKNS_10QJsonArrayE@Base 4.9.0
 _ZN5Katie13QJsonDocument9setObjectERKNS_11QJsonObjectE@Base 4.9.0
 _ZN5Katie13QJsonDocumentC1EPNS_12QJsonPrivate4DataE@Base 4.9.0
 _ZN5Katie13QJsonDocumentC1ERKNS_10QJsonArrayE@Base 4.9.0
 _ZN5Katie13QJsonDocumentC1ERKNS_11QJsonObjectE@Base 4.9.0
 _ZN5Katie13QJsonDocumentC1ERKS0_@Base 4.9.0
 _ZN5Katie13QJsonDocumentC1Ev@Base 4.9.0
 _ZN5Katie13QJsonDocumentC2EPNS_12QJsonPrivate4DataE@Base 4.9.0
 _ZN5Katie13QJsonDocumentC2ERKNS_10QJsonArrayE@Base 4.9.0
 _ZN5Katie13QJsonDocumentC2ERKNS_11QJsonObjectE@Base 4.9.0
 _ZN5Katie13QJsonDocumentC2ERKS0_@Base 4.9.0
 _ZN5Katie13QJsonDocumentC2Ev@Base 4.9.0
 _ZN5Katie13QJsonDocumentD1Ev@Base 4.9.0
 _ZN5Katie13QJsonDocumentD2Ev@Base 4.9.0
 _ZN5Katie13QJsonDocumentaSERKS0_@Base 4.9.0
 _ZN5Katie13QJsonValueRefaSERKNS_10QJsonValueE@Base 4.9.0
 _ZN5Katie13QJsonValueRefaSERKS0_@Base 4.9.0
 _ZN5Katie13QMetaPropertyC1Ev@Base 4.9.0
 _ZN5Katie13QMetaPropertyC2Ev@Base 4.9.0
 _ZN5Katie13QPluginLoader11qt_metacallENS_11QMetaObject4CallEiPPv@Base 4.9.0
 _ZN5Katie13QPluginLoader11qt_metacastEPKc@Base 4.9.0
 _ZN5Katie13QPluginLoader11setFileNameERKNS_7QStringE@Base 4.9.0
 _ZN5Katie13QPluginLoader12setLoadHintsENS_6QFlagsINS_8QLibrary8LoadHintEEE@Base 4.9.0
 _ZN5Katie13QPluginLoader15staticInstancesEv@Base 4.9.0
 _ZN5Katie13QPluginLoader16staticMetaObjectE@Base 4.9.0
 _ZN5Katie13QPluginLoader19getStaticMetaObjectEv@Base 4.9.0
 _ZN5Katie13QPluginLoader4loadEv@Base 4.9.0
 _ZN5Katie13QPluginLoader6unloadEv@Base 4.9.0
 _ZN5Katie13QPluginLoader8instanceEv@Base 4.9.0
 _ZN5Katie13QPluginLoaderC1EPNS_7QObjectE@Base 4.9.0
 _ZN5Katie13QPluginLoaderC1ERKNS_7QStringEPNS_7QObjectE@Base 4.9.0
 _ZN5Katie13QPluginLoaderC2EPNS_7QObjectE@Base 4.9.0
 _ZN5Katie13QPluginLoaderC2ERKNS_7QStringEPNS_7QObjectE@Base 4.9.0
 _ZN5Katie13QPluginLoaderD0Ev@Base 4.9.0
 _ZN5Katie13QPluginLoaderD1Ev@Base 4.9.0
 _ZN5Katie13QPluginLoaderD2Ev@Base 4.9.0
 _ZN5Katie13QSharedMemory11qt_metacallENS_11QMetaObject4CallEiPPv@Base 4.9.0
 _ZN5Katie13QSharedMemory11qt_metacastEPKc@Base 4.9.0
 _ZN5Katie13QSharedMemory12setNativeKeyERKNS_7QStringE@Base 4.9.0
 _ZN5Katie13QSharedMemory16staticMetaObjectE@Base 4.9.0
 _ZN5Katie13QSharedMemory19getStaticMetaObjectEv@Base 4.9.0
 _ZN5Katie13QSharedMemory4dataEv@Base 4.9.0
 _ZN5Katie13QSharedMemory4lockEv@Base 4.9.0
 _ZN5Katie13QSharedMemory6attachENS0_10AccessModeE@Base 4.9.0
 _ZN5Katie13QSharedMemory6createEiNS0_10AccessModeE@Base 4.9.0
 _ZN5Katie13QSharedMemory6detachEv@Base 4.9.0
 _ZN5Katie13QSharedMemory6setKeyERKNS_7QStringE@Base 4.9.0
 _ZN5Katie13QSharedMemory6unlockEv@Base 4.9.0
 _ZN5Katie13QSharedMemoryC1EPNS_7QObjectE@Base 4.9.0
 _ZN5Katie13QSharedMemoryC1ERKNS_7QStringEPNS_7QObjectE@Base 4.9.0
 _ZN5Katie13QSharedMemoryC2EPNS_7QObjectE@Base 4.9.0
 _ZN5Katie13QSharedMemoryC2ERKNS_7QStringEPNS_7QObjectE@Base 4.9.0
 _ZN5Katie13QSharedMemoryD0Ev@Base 4.9.0
 _ZN5Katie13QSharedMemoryD1Ev@Base 4.9.0
 _ZN5Katie13QSharedMemoryD2Ev@Base 4.9.0
 _ZN5Katie13QSignalMapper10setMappingEPNS_7QObjectEPNS_7QWidgetE@Base 4.9.0
 _ZN5Katie13QSignalMapper10setMappingEPNS_7QObjectERKNS_7QStringE@Base 4.9.0
 _ZN5Katie13QSignalMapper10setMappingEPNS_7QObjectES2_@Base 4.9.0
 _ZN5Katie13QSignalMapper10setMappingEPNS_7QObjectEi@Base 4.9.0
 _ZN5Katie13QSignalMapper11qt_metacallENS_11QMetaObject4CallEiPPv@Base 4.9.0
 _ZN5Katie13QSignalMapper11qt_metacastEPKc@Base 4.9.0
 _ZN5Katie13QSignalMapper14removeMappingsEPNS_7QObjectE@Base 4.9.0
 _ZN5Katie13QSignalMapper16staticMetaObjectE@Base 4.9.0
 _ZN5Katie13QSignalMapper19getStaticMetaObjectEv@Base 4.9.0
 _ZN5Katie13QSignalMapper3mapEPNS_7QObjectE@Base 4.9.0
 _ZN5Katie13QSignalMapper3mapEv@Base 4.9.0
 _ZN5Katie13QSignalMapper6mappedEPNS_7QObjectE@Base 4.9.0
 _ZN5Katie13QSignalMapper6mappedEPNS_7QWidgetE@Base 4.9.0
 _ZN5Katie13QSignalMapper6mappedERKNS_7QStringE@Base 4.9.0
 _ZN5Katie13QSignalMapper6mappedEi@Base 4.9.0
 _ZN5Katie13QSignalMapperC1EPNS_7QObjectE@Base 4.9.0
 _ZN5Katie13QSignalMapperC2EPNS_7QObjectE@Base 4.9.0
 _ZN5Katie13QSignalMapperD0Ev@Base 4.9.0
 _ZN5Katie13QSignalMapperD1Ev@Base 4.9.0
 _ZN5Katie13QSignalMapperD2Ev@Base 4.9.0
 _ZN5Katie13QSystemLocaleC1Eb@Base 4.9.0
 _ZN5Katie13QSystemLocaleC1Ev@Base 4.9.0
 _ZN5Katie13QSystemLocaleC2Eb@Base 4.9.0
 _ZN5Katie13QSystemLocaleC2Ev@Base 4.9.0
 _ZN5Katie13QSystemLocaleD0Ev@Base 4.9.0
 _ZN5Katie13QSystemLocaleD1Ev@Base 4.9.0
 _ZN5Katie13QSystemLocaleD2Ev@Base 4.9.0
 _ZN5Katie13lowercasebaseERNS_11QTextStreamE@Base 4.9.0
 _ZN5Katie13qErrnoWarningEPKcz@Base 4.9.0
 _ZN5Katie13qErrnoWarningEiPKcz@Base 4.9.0
 _ZN5Katie13qFastCompressEPKcii@Base 4.9.0
 _ZN5Katie13qFlagLocationEPKc@Base 4.9.0
 _ZN5Katie13qt_sine_tableE@Base 4.9.0
 _ZN5Katie13uppercasebaseERNS_11QTextStreamE@Base 4.9.0
 _ZN5Katie14QFactoryLoader10refreshAllEv@Base 4.9.0
 _ZN5Katie14QFactoryLoader11qt_metacallENS_11QMetaObject4CallEiPPv@Base 4.9.0
 _ZN5Katie14QFactoryLoader11qt_metacastEPKc@Base 4.9.0
 _ZN5Katie14QFactoryLoader16staticMetaObjectE@Base 4.9.0
 _ZN5Katie14QFactoryLoader19getStaticMetaObjectEv@Base 4.9.0
 _ZN5Katie14QFactoryLoader6updateEv@Base 4.9.0
 _ZN5Katie14QFactoryLoader9updateDirERKNS_7QStringEPNS_9QSettingsE@Base 4.9.0
 _ZN5Katie14QFactoryLoaderC1EPKcRKNS_7QStringENS_2Qt15CaseSensitivityE@Base 4.9.0
 _ZN5Katie14QFactoryLoaderC2EPKcRKNS_7QStringENS_2Qt15CaseSensitivityE@Base 4.9.0
 _ZN5Katie14QFactoryLoaderD0Ev@Base 4.9.0
 _ZN5Katie14QFactoryLoaderD1Ev@Base 4.9.0
 _ZN5Katie14QFactoryLoaderD2Ev@Base 4.9.0
 _ZN5Katie14QLocalePrivate10findLocaleENS_7QLocale8LanguageENS1_6ScriptENS1_7CountryE@Base 4.9.0
 _ZN5Katie14QLocalePrivate12codeToScriptERKNS_7QStringE@Base 4.9.0
 _ZN5Katie14QLocalePrivate13codeToCountryERKNS_7QStringE@Base 4.9.0
 _ZN5Katie14QLocalePrivate14codeToLanguageERKNS_7QStringE@Base 4.9.0
 _ZN5Katie14QLocalePrivate14doubleToStringENS_5QCharES1_S1_S1_S1_S1_diNS0_10DoubleFormEij@Base 4.9.0
 _ZN5Katie14QLocalePrivate16longLongToStringENS_5QCharES1_S1_S1_xiiij@Base 4.9.0
 _ZN5Katie14QLocalePrivate17bytearrayToDoubleEPKcPbS3_@Base 4.9.0
 _ZN5Katie14QLocalePrivate17getLangAndCountryERKNS_7QStringERNS_7QLocale8LanguageERNS4_6ScriptERNS4_7CountryE@Base 4.9.0
 _ZN5Katie14QLocalePrivate19bytearrayToLongLongEPKciPbS3_@Base 4.9.0
 _ZN5Katie14QLocalePrivate19unsLongLongToStringENS_5QCharES1_S1_yiiij@Base 4.9.0
 _ZN5Katie14QLocalePrivate19updateSystemPrivateEv@Base 4.9.0
 _ZN5Katie14QLocalePrivate22bytearrayToUnsLongLongEPKciPb@Base 4.9.0
 _ZN5Katie14QMetaCallEvent13placeMetaCallEPNS_7QObjectE@Base 4.9.0
 _ZN5Katie14QMetaCallEventC1EttPFvPNS_7QObjectENS_11QMetaObject4CallEiPPvEPKS1_iiPiS6_PNS_10QSemaphoreE@Base 4.9.0
 _ZN5Katie14QMetaCallEventC2EttPFvPNS_7QObjectENS_11QMetaObject4CallEiPPvEPKS1_iiPiS6_PNS_10QSemaphoreE@Base 4.9.0
 _ZN5Katie14QMetaCallEventD0Ev@Base 4.9.0
 _ZN5Katie14QMetaCallEventD1Ev@Base 4.9.0
 _ZN5Katie14QMetaCallEventD2Ev@Base 4.9.0
 _ZN5Katie14QObjectPrivate10ConnectionD1Ev@Base 4.9.0
 _ZN5Katie14QObjectPrivate10ConnectionD2Ev@Base 4.9.0
 _ZN5Katie14QObjectPrivate13addConnectionEiPNS0_10ConnectionE@Base 4.9.0
 _ZN5Katie14QObjectPrivate14deleteChildrenEv@Base 4.9.0
 _ZN5Katie14QObjectPrivate16setParent_helperEPNS_7QObjectE@Base 4.9.0
 _ZN5Katie14QObjectPrivate19_q_reregisterTimersEPv@Base 4.9.0
 _ZN5Katie14QObjectPrivate19moveToThread_helperEv@Base 4.9.0
 _ZN5Katie14QObjectPrivate20cleanConnectionListsEv@Base 4.9.0
 _ZN5Katie14QObjectPrivate20setThreadData_helperEPNS_11QThreadDataES2_@Base 4.9.0
 _ZN5Katie14QObjectPrivateC1Ei@Base 4.9.0
 _ZN5Katie14QObjectPrivateC2Ei@Base 4.9.0
 _ZN5Katie14QObjectPrivateD0Ev@Base 4.9.0
 _ZN5Katie14QObjectPrivateD1Ev@Base 4.9.0
 _ZN5Katie14QObjectPrivateD2Ev@Base 4.9.0
 _ZN5Katie14QReadWriteLock11lockForReadEv@Base 4.9.0
 _ZN5Katie14QReadWriteLock12lockForWriteEv@Base 4.9.0
 _ZN5Katie14QReadWriteLock14tryLockForReadEi@Base 4.9.0
 _ZN5Katie14QReadWriteLock14tryLockForReadEv@Base 4.9.0
 _ZN5Katie14QReadWriteLock15tryLockForWriteEi@Base 4.9.0
 _ZN5Katie14QReadWriteLock15tryLockForWriteEv@Base 4.9.0
 _ZN5Katie14QReadWriteLock6unlockEv@Base 4.9.0
 _ZN5Katie14QReadWriteLockC1ENS0_13RecursionModeE@Base 4.9.0
 _ZN5Katie14QReadWriteLockC2ENS0_13RecursionModeE@Base 4.9.0
 _ZN5Katie14QReadWriteLockD1Ev@Base 4.9.0
 _ZN5Katie14QReadWriteLockD2Ev@Base 4.9.0
 _ZN5Katie14QStandardPaths11displayNameENS0_16StandardLocationE@Base 4.9.0
 _ZN5Katie14QStandardPaths14findExecutableERKNS_7QStringERKNS_11QStringListE@Base 4.9.0
 _ZN5Katie14QStandardPaths16writableLocationENS0_16StandardLocationE@Base 4.9.0
 _ZN5Katie14QStandardPaths17standardLocationsENS0_16StandardLocationE@Base 4.9.0
 _ZN5Katie14QStandardPaths6locateENS0_16StandardLocationERKNS_7QStringENS_6QFlagsINS0_12LocateOptionEEE@Base 4.9.0
 _ZN5Katie14QStandardPaths9locateAllENS0_16StandardLocationERKNS_7QStringENS_6QFlagsINS0_12LocateOptionEEE@Base 4.9.0
 _ZN5Katie14QStringMatcher10setPatternERKNS_7QStringE@Base 4.9.0
 _ZN5Katie14QStringMatcher18setCaseSensitivityENS_2Qt15CaseSensitivityE@Base 4.9.0
 _ZN5Katie14QStringMatcherC1EPKNS_5QCharEiNS_2Qt15CaseSensitivityE@Base 4.9.0
 _ZN5Katie14QStringMatcherC1ERKNS_7QStringENS_2Qt15CaseSensitivityE@Base 4.9.0
 _ZN5Katie14QStringMatcherC1ERKS0_@Base 4.9.0
 _ZN5Katie14QStringMatcherC1Ev@Base 4.9.0
 _ZN5Katie14QStringMatcherC2EPKNS_5QCharEiNS_2Qt15CaseSensitivityE@Base 4.9.0
 _ZN5Katie14QStringMatcherC2ERKNS_7QStringENS_2Qt15CaseSensitivityE@Base 4.9.0
 _ZN5Katie14QStringMatcherC2ERKS0_@Base 4.9.0
 _ZN5Katie14QStringMatcherC2Ev@Base 4.9.0
 _ZN5Katie14QStringMatcherD1Ev@Base 4.9.0
 _ZN5Katie14QStringMatcherD2Ev@Base 4.9.0
 _ZN5Katie14QStringMatcheraSERKS0_@Base 4.9.0
 _ZN5Katie14QTemporaryFile11qt_metacallENS_11QMetaObject4CallEiPPv@Base 4.9.0
 _ZN5Katie14QTemporaryFile11qt_metacastEPKc@Base 4.9.0
 _ZN5Katie14QTemporaryFile13setAutoRemoveEb@Base 4.9.0
 _ZN5Katie14QTemporaryFile15createLocalFileERNS_5QFileE@Base 4.9.0
 _ZN5Katie14QTemporaryFile15setFileTemplateERKNS_7QStringE@Base 4.9.0
 _ZN5Katie14QTemporaryFile16staticMetaObjectE@Base 4.9.0
 _ZN5Katie14QTemporaryFile19getStaticMetaObjectEv@Base 4.9.0
 _ZN5Katie14QTemporaryFile4openENS_6QFlagsINS_9QIODevice12OpenModeFlagEEE@Base 4.9.0
 _ZN5Katie14QTemporaryFileC1EPNS_7QObjectE@Base 4.9.0
 _ZN5Katie14QTemporaryFileC1ERKNS_7QStringE@Base 4.9.0
 _ZN5Katie14QTemporaryFileC1ERKNS_7QStringEPNS_7QObjectE@Base 4.9.0
 _ZN5Katie14QTemporaryFileC1Ev@Base 4.9.0
 _ZN5Katie14QTemporaryFileC2EPNS_7QObjectE@Base 4.9.0
 _ZN5Katie14QTemporaryFileC2ERKNS_7QStringE@Base 4.9.0
 _ZN5Katie14QTemporaryFileC2ERKNS_7QStringEPNS_7QObjectE@Base 4.9.0
 _ZN5Katie14QTemporaryFileC2Ev@Base 4.9.0
 _ZN5Katie14QTemporaryFileD0Ev@Base 4.9.0
 _ZN5Katie14QTemporaryFileD1Ev@Base 4.9.0
 _ZN5Katie14QTemporaryFileD2Ev@Base 4.9.0
 _ZN5Katie14QWaitCondition4waitEPNS_14QReadWriteLockEm@Base 4.9.0
 _ZN5Katie14QWaitCondition4waitEPNS_6QMutexEm@Base 4.9.0
 _ZN5Katie14QWaitCondition7wakeAllEv@Base 4.9.0
 _ZN5Katie14QWaitCondition7wakeOneEv@Base 4.9.0
 _ZN5Katie14QWaitConditionC1Ev@Base 4.9.0
 _ZN5Katie14QWaitConditionC2Ev@Base 4.9.0
 _ZN5Katie14QWaitConditionD1Ev@Base 4.9.0
 _ZN5Katie14QWaitConditionD2Ev@Base 4.9.0
 _ZN5Katie14qDecodeDataUrlERKNS_4QUrlE@Base 4.9.0
 _ZN5Katie14qt_safe_selectEiP6fd_setS1_S1_PK7timeval@Base 4.9.0
 _ZN5Katie15QDateTimeParser11parseFormatERKNS_7QStringE@Base 4.9.0
 _ZN5Katie15QLinkedListData11shared_nullE@Base 4.9.0
 _ZN5Katie15QSocketNotifier10setEnabledEb@Base 4.9.0
 _ZN5Katie15QSocketNotifier11qt_metacallENS_11QMetaObject4CallEiPPv@Base 4.9.0
 _ZN5Katie15QSocketNotifier11qt_metacastEPKc@Base 4.9.0
 _ZN5Katie15QSocketNotifier16staticMetaObjectE@Base 4.9.0
 _ZN5Katie15QSocketNotifier19getStaticMetaObjectEv@Base 4.9.0
 _ZN5Katie15QSocketNotifier5eventEPNS_6QEventE@Base 4.9.0
 _ZN5Katie15QSocketNotifier9activatedEi@Base 4.9.0
 _ZN5Katie15QSocketNotifierC1EiNS0_4TypeEPNS_7QObjectE@Base 4.9.0
 _ZN5Katie15QSocketNotifierC2EiNS0_4TypeEPNS_7QObjectE@Base 4.9.0
 _ZN5Katie15QSocketNotifierD0Ev@Base 4.9.0
 _ZN5Katie15QSocketNotifierD1Ev@Base 4.9.0
 _ZN5Katie15QSocketNotifierD2Ev@Base 4.9.0
 _ZN5Katie15QtSharedPointer20ExternalRefCountData16setQObjectSharedEPKNS_7QObjectE@Base 4.9.0
 _ZN5Katie15QtSharedPointer20ExternalRefCountData9getAndRefEPKNS_7QObjectE@Base 4.9.0
 _ZN5Katie15lowercasedigitsERNS_11QTextStreamE@Base 4.9.0
 _ZN5Katie15qAddPostRoutineEPFvvE@Base 4.9.0
 _ZN5Katie15qFastUncompressEPKci@Base 4.9.0
 _ZN5Katie15qIsEffectiveTLDERKNS_7QStringE@Base 4.9.0
 _ZN5Katie15qTopLevelDomainERKNS_7QStringE@Base 4.9.0
 _ZN5Katie15qt_error_stringEi@Base 4.9.0
 _ZN5Katie15uppercasedigitsERNS_11QTextStreamE@Base 4.9.0
 _ZN5Katie16QCoreApplication10startingUpEv@Base 4.9.0
 _ZN5Katie16QCoreApplication10unixSignalEi@Base 4.9.0
 _ZN5Katie16QCoreApplication11aboutToQuitEv@Base 4.9.0
 _ZN5Katie16QCoreApplication11closingDownEv@Base 4.9.0
 _ZN5Katie16QCoreApplication11filterEventEPvPl@Base 4.9.0
 _ZN5Katie16QCoreApplication11qt_metacallENS_11QMetaObject4CallEiPPv@Base 4.9.0
 _ZN5Katie16QCoreApplication11qt_metacastEPKc@Base 4.9.0
 _ZN5Katie16QCoreApplication12libraryPathsEv@Base 4.9.0
 _ZN5Katie16QCoreApplication12setAttributeENS_2Qt20ApplicationAttributeEb@Base 4.9.0
 _ZN5Katie16QCoreApplication13compressEventEPNS_6QEventEPNS_7QObjectEPNS_14QPostEventListE@Base 4.9.0
 _ZN5Katie16QCoreApplication13processEventsENS_6QFlagsINS_10QEventLoop17ProcessEventsFlagEEE@Base 4.9.0
 _ZN5Katie16QCoreApplication13processEventsENS_6QFlagsINS_10QEventLoop17ProcessEventsFlagEEEi@Base 4.9.0
 _ZN5Katie16QCoreApplication13testAttributeENS_2Qt20ApplicationAttributeE@Base 4.9.0
 _ZN5Katie16QCoreApplication14addLibraryPathERKNS_7QStringE@Base 4.9.0
 _ZN5Katie16QCoreApplication14applicationPidEv@Base 4.9.0
 _ZN5Katie16QCoreApplication14notifyInternalEPNS_7QObjectEPNS_6QEventE@Base 4.9.0
 _ZN5Katie16QCoreApplication14setEventFilterEPFbPvPlE@Base 4.9.0
 _ZN5Katie16QCoreApplication15applicationNameEv@Base 4.9.0
 _ZN5Katie16QCoreApplication15setLibraryPathsERKNS_11QStringListE@Base 4.9.0
 _ZN5Katie16QCoreApplication15watchUnixSignalEib@Base 4.9.0
 _ZN5Katie16QCoreApplication16hasPendingEventsEv@Base 4.9.0
 _ZN5Katie16QCoreApplication16organizationNameEv@Base 4.9.0
 _ZN5Katie16QCoreApplication16removeTranslatorEPNS_11QTranslatorE@Base 4.9.0
 _ZN5Katie16QCoreApplication16sendPostedEventsEPNS_7QObjectEi@Base 4.9.0
 _ZN5Katie16QCoreApplication16staticMetaObjectE@Base 4.9.0
 _ZN5Katie16QCoreApplication17installTranslatorEPNS_11QTranslatorE@Base 4.9.0
 _ZN5Katie16QCoreApplication17removeLibraryPathERKNS_7QStringE@Base 4.9.0
 _ZN5Katie16QCoreApplication18applicationDirPathEv@Base 4.9.0
 _ZN5Katie16QCoreApplication18applicationVersionEv@Base 4.9.0
 _ZN5Katie16QCoreApplication18organizationDomainEv@Base 4.9.0
 _ZN5Katie16QCoreApplication18removePostedEventsEPNS_7QObjectE@Base 4.9.0
 _ZN5Katie16QCoreApplication18removePostedEventsEPNS_7QObjectEi@Base 4.9.0
 _ZN5Katie16QCoreApplication18setApplicationNameERKNS_7QStringE@Base 4.9.0
 _ZN5Katie16QCoreApplication19applicationFilePathEv@Base 4.9.0
 _ZN5Katie16QCoreApplication19getStaticMetaObjectEv@Base 4.9.0
 _ZN5Katie16QCoreApplication19setOrganizationNameERKNS_7QStringE@Base 4.9.0
 _ZN5Katie16QCoreApplication21setApplicationVersionERKNS_7QStringE@Base 4.9.0
 _ZN5Katie16QCoreApplication21setOrganizationDomainERKNS_7QStringE@Base 4.9.0
 _ZN5Katie16QCoreApplication4execEv@Base 4.9.0
 _ZN5Katie16QCoreApplication4exitEi@Base 4.9.0
 _ZN5Katie16QCoreApplication4initEv@Base 4.9.0
 _ZN5Katie16QCoreApplication4quitEv@Base 4.9.0
 _ZN5Katie16QCoreApplication4selfE@Base 4.9.0
 _ZN5Katie16QCoreApplication5eventEPNS_6QEventE@Base 4.9.0
 _ZN5Katie16QCoreApplication5flushEv@Base 4.9.0
 _ZN5Katie16QCoreApplication6notifyEPNS_7QObjectEPNS_6QEventE@Base 4.9.0
 _ZN5Katie16QCoreApplication9argumentsEv@Base 4.9.0
 _ZN5Katie16QCoreApplication9postEventEPNS_7QObjectEPNS_6QEventE@Base 4.9.0
 _ZN5Katie16QCoreApplication9postEventEPNS_7QObjectEPNS_6QEventEi@Base 4.9.0
 _ZN5Katie16QCoreApplication9translateEPKcS2_S2_NS0_8EncodingEi@Base 4.9.0
 _ZN5Katie16QCoreApplicationC1ERNS_23QCoreApplicationPrivateE@Base 4.9.0
 _ZN5Katie16QCoreApplicationC1ERiPPc@Base 4.9.0
 _ZN5Katie16QCoreApplicationC2ERNS_23QCoreApplicationPrivateE@Base 4.9.0
 _ZN5Katie16QCoreApplicationC2ERiPPc@Base 4.9.0
 _ZN5Katie16QCoreApplicationD0Ev@Base 4.9.0
 _ZN5Katie16QCoreApplicationD1Ev@Base 4.9.0
 _ZN5Katie16QCoreApplicationD2Ev@Base 4.9.0
 _ZN5Katie16QIODevicePrivate13putCharHelperEc@Base 4.9.0
 _ZN5Katie16QIODevicePrivate4peekEPcx@Base 4.9.0
 _ZN5Katie16QIODevicePrivate4peekEx@Base 4.9.0
 _ZN5Katie16QIODevicePrivateC1Ev@Base 4.9.0
 _ZN5Katie16QIODevicePrivateC2Ev@Base 4.9.0
 _ZN5Katie16QIODevicePrivateD0Ev@Base 4.9.0
 _ZN5Katie16QIODevicePrivateD1Ev@Base 4.9.0
 _ZN5Katie16QIODevicePrivateD2Ev@Base 4.9.0
 _ZN5Katie16QSystemSemaphore6setKeyERKNS_7QStringEiNS0_10AccessModeE@Base 4.9.0
 _ZN5Katie16QSystemSemaphore7acquireEv@Base 4.9.0
 _ZN5Katie16QSystemSemaphore7releaseEi@Base 4.9.0
 _ZN5Katie16QSystemSemaphoreC1ERKNS_7QStringEiNS0_10AccessModeE@Base 4.9.0
 _ZN5Katie16QSystemSemaphoreC2ERKNS_7QStringEiNS0_10AccessModeE@Base 4.9.0
 _ZN5Katie16QSystemSemaphoreD1Ev@Base 4.9.0
 _ZN5Katie16QSystemSemaphoreD2Ev@Base 4.9.0
 _ZN5Katie16QTextCodecPlugin11qt_metacallENS_11QMetaObject4CallEiPPv@Base 4.9.0
 _ZN5Katie16QTextCodecPlugin11qt_metacastEPKc@Base 4.9.0
 _ZN5Katie16QTextCodecPlugin16staticMetaObjectE@Base 4.9.0
 _ZN5Katie16QTextCodecPlugin19getStaticMetaObjectEv@Base 4.9.0
 _ZN5Katie16QTextCodecPlugin6createERKNS_7QStringE@Base 4.9.0
 _ZN5Katie16QTextCodecPluginC1EPNS_7QObjectE@Base 4.9.0
 _ZN5Katie16QTextCodecPluginC2EPNS_7QObjectE@Base 4.9.0
 _ZN5Katie16QTextCodecPluginD0Ev@Base 4.9.0
 _ZN5Katie16QTextCodecPluginD1Ev@Base 4.9.0
 _ZN5Katie16QTextCodecPluginD2Ev@Base 4.9.0
 _ZN5Katie16qt_check_pointerEPKci@Base 4.9.0
 _ZN5Katie17QByteArrayMatcher10setPatternERKNS_10QByteArrayE@Base 4.9.0
 _ZN5Katie17QByteArrayMatcherC1EPKci@Base 4.9.0
 _ZN5Katie17QByteArrayMatcherC1ERKNS_10QByteArrayE@Base 4.9.0
 _ZN5Katie17QByteArrayMatcherC1ERKS0_@Base 4.9.0
 _ZN5Katie17QByteArrayMatcherC1Ev@Base 4.9.0
 _ZN5Katie17QByteArrayMatcherC2EPKci@Base 4.9.0
 _ZN5Katie17QByteArrayMatcherC2ERKNS_10QByteArrayE@Base 4.9.0
 _ZN5Katie17QByteArrayMatcherC2ERKS0_@Base 4.9.0
 _ZN5Katie17QByteArrayMatcherC2Ev@Base 4.9.0
 _ZN5Katie17QByteArrayMatcherD1Ev@Base 4.9.0
 _ZN5Katie17QByteArrayMatcherD2Ev@Base 4.9.0
 _ZN5Katie17QByteArrayMatcheraSERKS0_@Base 4.9.0
 _ZN5Katie17qt_message_outputENS_9QtMsgTypeEPKc@Base 4.9.0
 _ZN5Katie18QAbstractItemModel10decodeDataEiiRKNS_11QModelIndexERNS_11QDataStreamE@Base 4.9.0
 _ZN5Katie18QAbstractItemModel10insertRowsEiiRKNS_11QModelIndexE@Base 4.9.0
 _ZN5Katie18QAbstractItemModel10modelResetEv@Base 4.9.0
 _ZN5Katie18QAbstractItemModel10removeRowsEiiRKNS_11QModelIndexE@Base 4.9.0
 _ZN5Katie18QAbstractItemModel11dataChangedERKNS_11QModelIndexES3_@Base 4.9.0
 _ZN5Katie18QAbstractItemModel11endMoveRowsEv@Base 4.9.0
 _ZN5Katie18QAbstractItemModel11qt_metacallENS_11QMetaObject4CallEiPPv@Base 4.9.0
 _ZN5Katie18QAbstractItemModel11qt_metacastEPKc@Base 4.9.0
 _ZN5Katie18QAbstractItemModel11rowsRemovedERKNS_11QModelIndexEii@Base 4.9.0
 _ZN5Katie18QAbstractItemModel11setItemDataERKNS_11QModelIndexERKNS_4QMapIiNS_8QVariantEEE@Base 4.9.0
 _ZN5Katie18QAbstractItemModel12columnsMovedERKNS_11QModelIndexEiiS3_i@Base 4.9.0
 _ZN5Katie18QAbstractItemModel12dropMimeDataEPKNS_9QMimeDataENS_2Qt10DropActionEiiRKNS_11QModelIndexE@Base 4.9.0
 _ZN5Katie18QAbstractItemModel12rowsInsertedERKNS_11QModelIndexEii@Base 4.9.0
 _ZN5Katie18QAbstractItemModel12setRoleNamesERKNS_5QHashIiNS_10QByteArrayEEE@Base 4.9.0
 _ZN5Katie18QAbstractItemModel13beginMoveRowsERKNS_11QModelIndexEiiS3_i@Base 4.9.0
 _ZN5Katie18QAbstractItemModel13endInsertRowsEv@Base 4.9.0
 _ZN5Katie18QAbstractItemModel13endRemoveRowsEv@Base 4.9.0
 _ZN5Katie18QAbstractItemModel13endResetModelEv@Base 4.9.0
 _ZN5Katie18QAbstractItemModel13insertColumnsEiiRKNS_11QModelIndexE@Base 4.9.0
 _ZN5Katie18QAbstractItemModel13layoutChangedEv@Base 4.9.0
 _ZN5Katie18QAbstractItemModel13removeColumnsEiiRKNS_11QModelIndexE@Base 4.9.0
 _ZN5Katie18QAbstractItemModel13setHeaderDataEiNS_2Qt11OrientationERKNS_8QVariantEi@Base 4.9.0
 _ZN5Katie18QAbstractItemModel14columnsRemovedERKNS_11QModelIndexEii@Base 4.9.0
 _ZN5Katie18QAbstractItemModel14endMoveColumnsEv@Base 4.9.0
 _ZN5Katie18QAbstractItemModel15beginInsertRowsERKNS_11QModelIndexEii@Base 4.9.0
 _ZN5Katie18QAbstractItemModel15beginRemoveRowsERKNS_11QModelIndexEii@Base 4.9.0
 _ZN5Katie18QAbstractItemModel15beginResetModelEv@Base 4.9.0
 _ZN5Katie18QAbstractItemModel15columnsInsertedERKNS_11QModelIndexEii@Base 4.9.0
 _ZN5Katie18QAbstractItemModel16beginMoveColumnsERKNS_11QModelIndexEiiS3_i@Base 4.9.0
 _ZN5Katie18QAbstractItemModel16endInsertColumnsEv@Base 4.9.0
 _ZN5Katie18QAbstractItemModel16endRemoveColumnsEv@Base 4.9.0
 _ZN5Katie18QAbstractItemModel16staticMetaObjectE@Base 4.9.0
 _ZN5Katie18QAbstractItemModel17headerDataChangedENS_2Qt11OrientationEii@Base 4.9.0
 _ZN5Katie18QAbstractItemModel17resetInternalDataEv@Base 4.9.0
 _ZN5Katie18QAbstractItemModel18beginInsertColumnsERKNS_11QModelIndexEii@Base 4.9.0
 _ZN5Katie18QAbstractItemModel18beginRemoveColumnsERKNS_11QModelIndexEii@Base 4.9.0
 _ZN5Katie18QAbstractItemModel18rowsAboutToBeMovedERKNS_11QModelIndexEiiS3_i@Base 4.9.0
 _ZN5Katie18QAbstractItemModel19getStaticMetaObjectEv@Base 4.9.0
 _ZN5Katie18QAbstractItemModel19modelAboutToBeResetEv@Base 4.9.0
 _ZN5Katie18QAbstractItemModel20rowsAboutToBeRemovedERKNS_11QModelIndexEii@Base 4.9.0
 _ZN5Katie18QAbstractItemModel21changePersistentIndexERKNS_11QModelIndexES3_@Base 4.9.0
 _ZN5Katie18QAbstractItemModel21columnsAboutToBeMovedERKNS_11QModelIndexEiiS3_i@Base 4.9.0
 _ZN5Katie18QAbstractItemModel21rowsAboutToBeInsertedERKNS_11QModelIndexEii@Base 4.9.0
 _ZN5Katie18QAbstractItemModel22layoutAboutToBeChangedEv@Base 4.9.0
 _ZN5Katie18QAbstractItemModel23columnsAboutToBeRemovedERKNS_11QModelIndexEii@Base 4.9.0
 _ZN5Katie18QAbstractItemModel23setSupportedDragActionsENS_6QFlagsINS_2Qt10DropActionEEE@Base 4.9.0
 _ZN5Katie18QAbstractItemModel24columnsAboutToBeInsertedERKNS_11QModelIndexEii@Base 4.9.0
 _ZN5Katie18QAbstractItemModel25changePersistentIndexListERKNS_5QListINS_11QModelIndexEEES5_@Base 4.9.0
 _ZN5Katie18QAbstractItemModel4sortEiNS_2Qt9SortOrderE@Base 4.9.0
 _ZN5Katie18QAbstractItemModel5resetEv@Base 4.9.0
 _ZN5Katie18QAbstractItemModel6revertEv@Base 4.9.0
 _ZN5Katie18QAbstractItemModel6submitEv@Base 4.9.0
 _ZN5Katie18QAbstractItemModel7setDataERKNS_11QModelIndexERKNS_8QVariantEi@Base 4.9.0
 _ZN5Katie18QAbstractItemModel9fetchMoreERKNS_11QModelIndexE@Base 4.9.0
 _ZN5Katie18QAbstractItemModel9rowsMovedERKNS_11QModelIndexEiiS3_i@Base 4.9.0
 _ZN5Katie18QAbstractItemModelC1EPNS_7QObjectE@Base 4.9.0
 _ZN5Katie18QAbstractItemModelC1ERNS_25QAbstractItemModelPrivateEPNS_7QObjectE@Base 4.9.0
 _ZN5Katie18QAbstractItemModelC2EPNS_7QObjectE@Base 4.9.0
 _ZN5Katie18QAbstractItemModelC2ERNS_25QAbstractItemModelPrivateEPNS_7QObjectE@Base 4.9.0
 _ZN5Katie18QAbstractItemModelD0Ev@Base 4.9.0
 _ZN5Katie18QAbstractItemModelD1Ev@Base 4.9.0
 _ZN5Katie18QAbstractItemModelD2Ev@Base 4.9.0
 _ZN5Katie18QAbstractListModel11qt_metacallENS_11QMetaObject4CallEiPPv@Base 4.9.0
 _ZN5Katie18QAbstractListModel11qt_metacastEPKc@Base 4.9.0
 _ZN5Katie18QAbstractListModel12dropMimeDataEPKNS_9QMimeDataENS_2Qt10DropActionEiiRKNS_11QModelIndexE@Base 4.9.0
 _ZN5Katie18QAbstractListModel16staticMetaObjectE@Base 4.9.0
 _ZN5Katie18QAbstractListModel19getStaticMetaObjectEv@Base 4.9.0
 _ZN5Katie18QAbstractListModelC1EPNS_7QObjectE@Base 4.9.0
 _ZN5Katie18QAbstractListModelC1ERNS_25QAbstractItemModelPrivateEPNS_7QObjectE@Base 4.9.0
 _ZN5Katie18QAbstractListModelC2EPNS_7QObjectE@Base 4.9.0
 _ZN5Katie18QAbstractListModelC2ERNS_25QAbstractItemModelPrivateEPNS_7QObjectE@Base 4.9.0
 _ZN5Katie18QAbstractListModelD0Ev@Base 4.9.0
 _ZN5Katie18QAbstractListModelD1Ev@Base 4.9.0
 _ZN5Katie18QAbstractListModelD2Ev@Base 4.9.0
 _ZN5Katie18QCommandLineOption12setValueNameERKNS_7QStringE@Base 4.9.0
 _ZN5Katie18QCommandLineOption14setDescriptionERKNS_7QStringE@Base 4.9.0
 _ZN5Katie18QCommandLineOption15setDefaultValueERKNS_7QStringE@Base 4.9.0
 _ZN5Katie18QCommandLineOption16setDefaultValuesERKNS_11QStringListE@Base 4.9.0
 _ZN5Katie18QCommandLineOptionC1ERKNS_11QStringListERKNS_7QStringES6_S6_@Base 4.9.0
 _ZN5Katie18QCommandLineOptionC1ERKNS_7QStringES3_S3_S3_@Base 4.9.0
 _ZN5Katie18QCommandLineOptionC1ERKS0_@Base 4.9.0
 _ZN5Katie18QCommandLineOptionC2ERKNS_11QStringListERKNS_7QStringES6_S6_@Base 4.9.0
 _ZN5Katie18QCommandLineOptionC2ERKNS_7QStringES3_S3_S3_@Base 4.9.0
 _ZN5Katie18QCommandLineOptionC2ERKS0_@Base 4.9.0
 _ZN5Katie18QCommandLineOptionD1Ev@Base 4.9.0
 _ZN5Katie18QCommandLineOptionD2Ev@Base 4.9.0
 _ZN5Katie18QCommandLineOptionaSERKS0_@Base 4.9.0
 _ZN5Katie18QCommandLineParser13addHelpOptionEv@Base 4.9.0
 _ZN5Katie18QCommandLineParser16addVersionOptionEv@Base 4.9.0
 _ZN5Katie18QCommandLineParser21addPositionalArgumentERKNS_7QStringES3_S3_@Base 4.9.0
 _ZN5Katie18QCommandLineParser24clearPositionalArgumentsEv@Base 4.9.0
 _ZN5Katie18QCommandLineParser25setApplicationDescriptionERKNS_7QStringE@Base 4.9.0
 _ZN5Katie18QCommandLineParser27setSingleDashWordOptionModeENS0_24SingleDashWordOptionModeE@Base 4.9.0
 _ZN5Katie18QCommandLineParser5parseERKNS_11QStringListE@Base 4.9.0
 _ZN5Katie18QCommandLineParser7processERKNS_11QStringListE@Base 4.9.0
 _ZN5Katie18QCommandLineParser7processERKNS_16QCoreApplicationE@Base 4.9.0
 _ZN5Katie18QCommandLineParser8showHelpEi@Base 4.9.0
 _ZN5Katie18QCommandLineParser9addOptionERKNS_18QCommandLineOptionE@Base 4.9.0
 _ZN5Katie18QCommandLineParserC1Ev@Base 4.9.0
 _ZN5Katie18QCommandLineParserC2Ev@Base 4.9.0
 _ZN5Katie18QCommandLineParserD1Ev@Base 4.9.0
 _ZN5Katie18QCommandLineParserD2Ev@Base 4.9.0
 _ZN5Katie18QCryptographicHash4hashERKNS_10QByteArrayENS0_9AlgorithmE@Base 4.9.0
 _ZN5Katie18QCryptographicHash5resetEv@Base 4.9.0
 _ZN5Katie18QCryptographicHash7addDataEPKci@Base 4.9.0
 _ZN5Katie18QCryptographicHash7addDataEPNS_9QIODeviceE@Base 4.9.0
 _ZN5Katie18QCryptographicHashC1ENS0_9AlgorithmE@Base 4.9.0
 _ZN5Katie18QCryptographicHashC2ENS0_9AlgorithmE@Base 4.9.0
 _ZN5Katie18QCryptographicHashD1Ev@Base 4.9.0
 _ZN5Katie18QCryptographicHashD2Ev@Base 4.9.0
 _ZN5Katie18QFileSystemWatcher10removePathERKNS_7QStringE@Base 4.9.0
 _ZN5Katie18QFileSystemWatcher11fileChangedERKNS_7QStringE@Base 4.9.0
 _ZN5Katie18QFileSystemWatcher11qt_metacallENS_11QMetaObject4CallEiPPv@Base 4.9.0
 _ZN5Katie18QFileSystemWatcher11qt_metacastEPKc@Base 4.9.0
 _ZN5Katie18QFileSystemWatcher11removePathsERKNS_11QStringListE@Base 4.9.0
 _ZN5Katie18QFileSystemWatcher16directoryChangedERKNS_7QStringE@Base 4.9.0
 _ZN5Katie18QFileSystemWatcher16staticMetaObjectE@Base 4.9.0
 _ZN5Katie18QFileSystemWatcher19getStaticMetaObjectEv@Base 4.9.0
 _ZN5Katie18QFileSystemWatcher7addPathERKNS_7QStringE@Base 4.9.0
 _ZN5Katie18QFileSystemWatcher8addPathsERKNS_11QStringListE@Base 4.9.0
 _ZN5Katie18QFileSystemWatcherC1EPNS_7QObjectE@Base 4.9.0
 _ZN5Katie18QFileSystemWatcherC1ERKNS_11QStringListEPNS_7QObjectE@Base 4.9.0
 _ZN5Katie18QFileSystemWatcherC2EPNS_7QObjectE@Base 4.9.0
 _ZN5Katie18QFileSystemWatcherC2ERKNS_11QStringListEPNS_7QObjectE@Base 4.9.0
 _ZN5Katie18QFileSystemWatcherD0Ev@Base 4.9.0
 _ZN5Katie18QFileSystemWatcherD1Ev@Base 4.9.0
 _ZN5Katie18QFileSystemWatcherD2Ev@Base 4.9.0
 _ZN5Katie18QFutureWatcherBase11qt_metacallENS_11QMetaObject4CallEiPPv@Base 4.9.0
 _ZN5Katie18QFutureWatcherBase11qt_metacastEPKc@Base 4.9.0
 _ZN5Katie18QFutureWatcherBase12togglePausedEv@Base 4.9.0
 _ZN5Katie18QFutureWatcherBase13connectNotifyEPKc@Base 4.9.0
 _ZN5Katie18QFutureWatcherBase13resultReadyAtEi@Base 4.9.0
 _ZN5Katie18QFutureWatcherBase14resultsReadyAtEii@Base 4.9.0
 _ZN5Katie18QFutureWatcherBase15waitForFinishedEv@Base 4.9.0
 _ZN5Katie18QFutureWatcherBase16disconnectNotifyEPKc@Base 4.9.0
 _ZN5Katie18QFutureWatcherBase16staticMetaObjectE@Base 4.9.0
 _ZN5Katie18QFutureWatcherBase19getStaticMetaObjectEv@Base 4.9.0
 _ZN5Katie18QFutureWatcherBase19progressTextChangedERKNS_7QStringE@Base 4.9.0
 _ZN5Katie18QFutureWatcherBase20progressRangeChangedEii@Base 4.9.0
 _ZN5Katie18QFutureWatcherBase20progressValueChangedEi@Base 4.9.0
 _ZN5Katie18QFutureWatcherBase22connectOutputInterfaceEv@Base 4.9.0
 _ZN5Katie18QFutureWatcherBase22setPendingResultsLimitEi@Base 4.9.0
 _ZN5Katie18QFutureWatcherBase25disconnectOutputInterfaceEb@Base 4.9.0
 _ZN5Katie18QFutureWatcherBase5eventEPNS_6QEventE@Base 4.9.0
 _ZN5Katie18QFutureWatcherBase5pauseEv@Base 4.9.0
 _ZN5Katie18QFutureWatcherBase6cancelEv@Base 4.9.0
 _ZN5Katie18QFutureWatcherBase6pausedEv@Base 4.9.0
 _ZN5Katie18QFutureWatcherBase6resumeEv@Base 4.9.0
 _ZN5Katie18QFutureWatcherBase7resumedEv@Base 4.9.0
 _ZN5Katie18QFutureWatcherBase7startedEv@Base 4.9.0
 _ZN5Katie18QFutureWatcherBase8canceledEv@Base 4.9.0
 _ZN5Katie18QFutureWatcherBase8finishedEv@Base 4.9.0
 _ZN5Katie18QFutureWatcherBase9setPausedEb@Base 4.9.0
 _ZN5Katie18QFutureWatcherBaseC1EPNS_7QObjectE@Base 4.9.0
 _ZN5Katie18QFutureWatcherBaseC2EPNS_7QObjectE@Base 4.9.0
 _ZN5Katie18qInstallMsgHandlerEPFvNS_9QtMsgTypeEPKcE@Base 4.9.0
 _ZN5Katie18qMetaTypeGuiHelperE@Base 4.9.0
 _ZN5Katie18qRemovePostRoutineEPFvvE@Base 4.9.0
 _ZN5Katie19QAbstractFileEngine11setFileNameERKNS_7QStringE@Base 4.9.0
 _ZN5Katie19QAbstractFileEngine12endEntryListEv@Base 4.9.0
 _ZN5Katie19QAbstractFileEngine14beginEntryListENS_6QFlagsINS_4QDir6FilterEEERKNS_11QStringListE@Base 4.9.0
 _ZN5Katie19QAbstractFileEngine14setPermissionsEj@Base 4.9.0
 _ZN5Katie19QAbstractFileEngine3mapExx@Base 4.9.0
 _ZN5Katie19QAbstractFileEngine4copyERKNS_7QStringE@Base 4.9.0
 _ZN5Katie19QAbstractFileEngine4linkERKNS_7QStringE@Base 4.9.0
 _ZN5Katie19QAbstractFileEngine4openENS_6QFlagsINS_9QIODevice12OpenModeFlagEEE@Base 4.9.0
 _ZN5Katie19QAbstractFileEngine4readEPcx@Base 4.9.0
 _ZN5Katie19QAbstractFileEngine4seekEx@Base 4.9.0
 _ZN5Katie19QAbstractFileEngine5closeEv@Base 4.9.0
 _ZN5Katie19QAbstractFileEngine5flushEv@Base 4.9.0
 _ZN5Katie19QAbstractFileEngine5unmapEPh@Base 4.9.0
 _ZN5Katie19QAbstractFileEngine5writeEPKcx@Base 4.9.0
 _ZN5Katie19QAbstractFileEngine6createERKNS_7QStringE@Base 4.9.0
 _ZN5Katie19QAbstractFileEngine6removeEv@Base 4.9.0
 _ZN5Katie19QAbstractFileEngine6renameERKNS_7QStringE@Base 4.9.0
 _ZN5Katie19QAbstractFileEngine7setSizeEx@Base 4.9.0
 _ZN5Katie19QAbstractFileEngine8readLineEPcx@Base 4.9.0
 _ZN5Katie19QAbstractFileEngine8setErrorENS_5QFile9FileErrorERKNS_7QStringE@Base 4.9.0
 _ZN5Katie19QAbstractFileEngine9extensionENS0_9ExtensionEPKNS0_15ExtensionOptionEPNS0_15ExtensionReturnE@Base 4.9.0
 _ZN5Katie19QAbstractFileEngineC1ERNS_26QAbstractFileEnginePrivateE@Base 4.9.0
 _ZN5Katie19QAbstractFileEngineC1Ev@Base 4.9.0
 _ZN5Katie19QAbstractFileEngineC2ERNS_26QAbstractFileEnginePrivateE@Base 4.9.0
 _ZN5Katie19QAbstractFileEngineC2Ev@Base 4.9.0
 _ZN5Katie19QAbstractFileEngineD0Ev@Base 4.9.0
 _ZN5Katie19QAbstractFileEngineD1Ev@Base 4.9.0
 _ZN5Katie19QAbstractFileEngineD2Ev@Base 4.9.0
 _ZN5Katie19QAbstractTableModel11qt_metacallENS_11QMetaObject4CallEiPPv@Base 4.9.0
 _ZN5Katie19QAbstractTableModel11qt_metacastEPKc@Base 4.9.0
 _ZN5Katie19QAbstractTableModel12dropMimeDataEPKNS_9QMimeDataENS_2Qt10DropActionEiiRKNS_11QModelIndexE@Base 4.9.0
 _ZN5Katie19QAbstractTableModel16staticMetaObjectE@Base 4.9.0
 _ZN5Katie19QAbstractTableModel19getStaticMetaObjectEv@Base 4.9.0
 _ZN5Katie19QAbstractTableModelC1EPNS_7QObjectE@Base 4.9.0
 _ZN5Katie19QAbstractTableModelC1ERNS_25QAbstractItemModelPrivateEPNS_7QObjectE@Base 4.9.0
 _ZN5Katie19QAbstractTableModelC2EPNS_7QObjectE@Base 4.9.0
 _ZN5Katie19QAbstractTableModelC2ERNS_25QAbstractItemModelPrivateEPNS_7QObjectE@Base 4.9.0
 _ZN5Katie19QAbstractTableModelD0Ev@Base 4.9.0
 _ZN5Katie19QAbstractTableModelD1Ev@Base 4.9.0
 _ZN5Katie19QAbstractTableModelD2Ev@Base 4.9.0
 _ZN5Katie19QProcessEnvironment17systemEnvironmentEv@Base 4.9.0
 _ZN5Katie19QProcessEnvironment5clearEv@Base 4.9.0
 _ZN5Katie19QProcessEnvironment6insertERKNS_7QStringES3_@Base 4.9.0
 _ZN5Katie19QProcessEnvironment6insertERKS0_@Base 4.9.0
 _ZN5Katie19QProcessEnvironment6removeERKNS_7QStringE@Base 4.9.0
 _ZN5Katie19QProcessEnvironmentC1ERKS0_@Base 4.9.0
 _ZN5Katie19QProcessEnvironmentC1Ev@Base 4.9.0
 _ZN5Katie19QProcessEnvironmentC2ERKS0_@Base 4.9.0
 _ZN5Katie19QProcessEnvironmentC2Ev@Base 4.9.0
 _ZN5Katie19QProcessEnvironmentD1Ev@Base 4.9.0
 _ZN5Katie19QProcessEnvironmentD2Ev@Base 4.9.0
 _ZN5Katie19QProcessEnvironmentaSERKS0_@Base 4.9.0
 _ZN5Katie19QTextBoundaryFinder11setPositionEi@Base 4.9.0
 _ZN5Katie19QTextBoundaryFinder14toNextBoundaryEv@Base 4.9.0
 _ZN5Katie19QTextBoundaryFinder18toPreviousBoundaryEv@Base 4.9.0
 _ZN5Katie19QTextBoundaryFinder5toEndEv@Base 4.9.0
 _ZN5Katie19QTextBoundaryFinder7toStartEv@Base 4.9.0
 _ZN5Katie19QTextBoundaryFinderC1ENS0_12BoundaryTypeEPKNS_5QCharEi@Base 4.9.0
 _ZN5Katie19QTextBoundaryFinderC1ENS0_12BoundaryTypeERKNS_7QStringE@Base 4.9.0
 _ZN5Katie19QTextBoundaryFinderC1ERKS0_@Base 4.9.0
 _ZN5Katie19QTextBoundaryFinderC1Ev@Base 4.9.0
 _ZN5Katie19QTextBoundaryFinderC2ENS0_12BoundaryTypeEPKNS_5QCharEi@Base 4.9.0
 _ZN5Katie19QTextBoundaryFinderC2ENS0_12BoundaryTypeERKNS_7QStringE@Base 4.9.0
 _ZN5Katie19QTextBoundaryFinderC2ERKS0_@Base 4.9.0
 _ZN5Katie19QTextBoundaryFinderC2Ev@Base 4.9.0
 _ZN5Katie19QTextBoundaryFinderD1Ev@Base 4.9.0
 _ZN5Katie19QTextBoundaryFinderD2Ev@Base 4.9.0
 _ZN5Katie19QTextBoundaryFinderaSERKS0_@Base 4.9.0
 _ZN5Katie19qcoreVariantHandlerEv@Base 4.9.0
 _ZN5Katie20QEventDispatcherUNIX11qt_metacallENS_11QMetaObject4CallEiPPv@Base 4.9.0
 _ZN5Katie20QEventDispatcherUNIX11qt_metacastEPKc@Base 4.9.0
 _ZN5Katie20QEventDispatcherUNIX13processEventsENS_6QFlagsINS_10QEventLoop17ProcessEventsFlagEEE@Base 4.9.0
 _ZN5Katie20QEventDispatcherUNIX13registerTimerEiiPNS_7QObjectE@Base 4.9.0
 _ZN5Katie20QEventDispatcherUNIX14activateTimersEv@Base 4.9.0
 _ZN5Katie20QEventDispatcherUNIX15unregisterTimerEi@Base 4.9.0
 _ZN5Katie20QEventDispatcherUNIX16hasPendingEventsEv@Base 4.9.0
 _ZN5Katie20QEventDispatcherUNIX16staticMetaObjectE@Base 4.9.0
 _ZN5Katie20QEventDispatcherUNIX16unregisterTimersEPNS_7QObjectE@Base 4.9.0
 _ZN5Katie20QEventDispatcherUNIX19getStaticMetaObjectEv@Base 4.9.0
 _ZN5Katie20QEventDispatcherUNIX22registerSocketNotifierEPNS_15QSocketNotifierE@Base 4.9.0
 _ZN5Katie20QEventDispatcherUNIX23activateSocketNotifiersEv@Base 4.9.0
 _ZN5Katie20QEventDispatcherUNIX24setSocketNotifierPendingEPNS_15QSocketNotifierE@Base 4.9.0
 _ZN5Katie20QEventDispatcherUNIX24unregisterSocketNotifierEPNS_15QSocketNotifierE@Base 4.9.0
 _ZN5Katie20QEventDispatcherUNIX5flushEv@Base 4.9.0
 _ZN5Katie20QEventDispatcherUNIX6selectEiP6fd_setS2_S2_P7timeval@Base 4.9.0
 _ZN5Katie20QEventDispatcherUNIX6wakeUpEv@Base 4.9.0
 _ZN5Katie20QEventDispatcherUNIX9interruptEv@Base 4.9.0
 _ZN5Katie20QEventDispatcherUNIXC1EPNS_7QObjectE@Base 4.9.0
 _ZN5Katie20QEventDispatcherUNIXC1ERNS_27QEventDispatcherUNIXPrivateEPNS_7QObjectE@Base 4.9.0
 _ZN5Katie20QEventDispatcherUNIXC2EPNS_7QObjectE@Base 4.9.0
 _ZN5Katie20QEventDispatcherUNIXC2ERNS_27QEventDispatcherUNIXPrivateEPNS_7QObjectE@Base 4.9.0
 _ZN5Katie20QEventDispatcherUNIXD0Ev@Base 4.9.0
 _ZN5Katie20QEventDispatcherUNIXD1Ev@Base 4.9.0
 _ZN5Katie20QEventDispatcherUNIXD2Ev@Base 4.9.0
 _ZN5Katie20QFutureInterfaceBase11setRunnableEPNS_9QRunnableE@Base 4.9.0
 _ZN5Katie20QFutureInterfaceBase12setThrottledEb@Base 4.9.0
 _ZN5Katie20QFutureInterfaceBase12togglePausedEv@Base 4.9.0
 _ZN5Katie20QFutureInterfaceBase13reportStartedEv@Base 4.9.0
 _ZN5Katie20QFutureInterfaceBase13setFilterModeEb@Base 4.9.0
 _ZN5Katie20QFutureInterfaceBase13waitForResultEi@Base 4.9.0
 _ZN5Katie20QFutureInterfaceBase13waitForResumeEv@Base 4.9.0
 _ZN5Katie20QFutureInterfaceBase14exceptionStoreEv@Base 4.9.0
 _ZN5Katie20QFutureInterfaceBase14reportCanceledEv@Base 4.9.0
 _ZN5Katie20QFutureInterfaceBase14reportFinishedEv@Base 4.9.0
 _ZN5Katie20QFutureInterfaceBase15reportExceptionERKNS_12QtConcurrent9ExceptionE@Base 4.9.0
 _ZN5Katie20QFutureInterfaceBase15resultStoreBaseEv@Base 4.9.0
 _ZN5Katie20QFutureInterfaceBase15waitForFinishedEv@Base 4.9.0
 _ZN5Katie20QFutureInterfaceBase16setProgressRangeEii@Base 4.9.0
 _ZN5Katie20QFutureInterfaceBase16setProgressValueEi@Base 4.9.0
 _ZN5Katie20QFutureInterfaceBase17waitForNextResultEv@Base 4.9.0
 _ZN5Katie20QFutureInterfaceBase18reportResultsReadyEii@Base 4.9.0
 _ZN5Katie20QFutureInterfaceBase19expectedResultCountEv@Base 4.9.0
 _ZN5Katie20QFutureInterfaceBase22setExpectedResultCountEi@Base 4.9.0
 _ZN5Katie20QFutureInterfaceBase23setProgressValueAndTextEiRKNS_7QStringE@Base 4.9.0
 _ZN5Katie20QFutureInterfaceBase6cancelEv@Base 4.9.0
 _ZN5Katie20QFutureInterfaceBase9setPausedEb@Base 4.9.0
 _ZN5Katie20QFutureInterfaceBaseC1ENS0_5StateE@Base 4.9.0
 _ZN5Katie20QFutureInterfaceBaseC1ERKS0_@Base 4.9.0
 _ZN5Katie20QFutureInterfaceBaseC2ENS0_5StateE@Base 4.9.0
 _ZN5Katie20QFutureInterfaceBaseC2ERKS0_@Base 4.9.0
 _ZN5Katie20QFutureInterfaceBaseD0Ev@Base 4.9.0
 _ZN5Katie20QFutureInterfaceBaseD1Ev@Base 4.9.0
 _ZN5Katie20QFutureInterfaceBaseD2Ev@Base 4.9.0
 _ZN5Katie20QFutureInterfaceBaseaSERKS0_@Base 4.9.0
 _ZN5Katie20qt_qFindChild_helperEPKNS_7QObjectERKNS_7QStringERKNS_11QMetaObjectE@Base 4.9.0
 _ZN5Katie21QObjectCleanupHandler11qt_metacallENS_11QMetaObject4CallEiPPv@Base 4.9.0
 _ZN5Katie21QObjectCleanupHandler11qt_metacastEPKc@Base 4.9.0
 _ZN5Katie21QObjectCleanupHandler15objectDestroyedEPNS_7QObjectE@Base 4.9.0
 _ZN5Katie21QObjectCleanupHandler16staticMetaObjectE@Base 4.9.0
 _ZN5Katie21QObjectCleanupHandler19getStaticMetaObjectEv@Base 4.9.0
 _ZN5Katie21QObjectCleanupHandler3addEPNS_7QObjectE@Base 4.9.0
 _ZN5Katie21QObjectCleanupHandler5clearEv@Base 4.9.0
 _ZN5Katie21QObjectCleanupHandler6removeEPNS_7QObjectE@Base 4.9.0
 _ZN5Katie21QObjectCleanupHandlerC1Ev@Base 4.9.0
 _ZN5Katie21QObjectCleanupHandlerC2Ev@Base 4.9.0
 _ZN5Katie21QObjectCleanupHandlerD0Ev@Base 4.9.0
 _ZN5Katie21QObjectCleanupHandlerD1Ev@Base 4.9.0
 _ZN5Katie21QObjectCleanupHandlerD2Ev@Base 4.9.0
 _ZN5Katie21QPersistentModelIndexC1ERKNS_11QModelIndexE@Base 4.9.0
 _ZN5Katie21QPersistentModelIndexC1ERKS0_@Base 4.9.0
 _ZN5Katie21QPersistentModelIndexC1Ev@Base 4.9.0
 _ZN5Katie21QPersistentModelIndexC2ERKNS_11QModelIndexE@Base 4.9.0
 _ZN5Katie21QPersistentModelIndexC2ERKS0_@Base 4.9.0
 _ZN5Katie21QPersistentModelIndexC2Ev@Base 4.9.0
 _ZN5Katie21QPersistentModelIndexD1Ev@Base 4.9.0
 _ZN5Katie21QPersistentModelIndexD2Ev@Base 4.9.0
 _ZN5Katie21QPersistentModelIndexaSERKNS_11QModelIndexE@Base 4.9.0
 _ZN5Katie21QPersistentModelIndexaSERKS0_@Base 4.9.0
 _ZN5Katie21qRegisterResourceDataEiPKhS1_S1_@Base 4.9.0
 _ZN5Katie21qt_call_post_routinesEv@Base 4.9.0
 _ZN5Katie21qt_locale_initializedE@Base 4.9.0
 _ZN5Katie21qt_regexp_toCanonicalERKNS_7QStringENS_7QRegExp13PatternSyntaxE@Base 4.9.0
 _ZN5Katie23QCoreApplicationPrivate10staticConfEv@Base 4.9.0
 _ZN5Katie23QCoreApplicationPrivate13checkInstanceEPKc@Base 4.9.0
 _ZN5Katie23QCoreApplicationPrivate13notify_helperEPNS_7QObjectEPNS_6QEventE@Base 4.9.0
 _ZN5Katie23QCoreApplicationPrivate13theMainThreadE@Base 4.9.0
 _ZN5Katie23QCoreApplicationPrivate14is_app_closingE@Base 4.9.0
 _ZN5Katie23QCoreApplicationPrivate14is_app_runningE@Base 4.9.0
 _ZN5Katie23QCoreApplicationPrivate15eventDispatcherE@Base 4.9.0
 _ZN5Katie23QCoreApplicationPrivate16sendPostedEventsEPNS_7QObjectEiPNS_11QThreadDataE@Base 4.9.0
 _ZN5Katie23QCoreApplicationPrivate17removePostedEventEPNS_6QEventE@Base 4.9.0
 _ZN5Katie23QCoreApplicationPrivate21createEventDispatcherEv@Base 4.9.0
 _ZN5Katie23QCoreApplicationPrivate21isTranslatorInstalledEPNS_11QTranslatorE@Base 4.9.0
 _ZN5Katie23QCoreApplicationPrivate27processCommandLineArgumentsEv@Base 4.9.0
 _ZN5Katie23QCoreApplicationPrivate29sendThroughObjectEventFiltersEPNS_7QObjectEPNS_6QEventE@Base 4.9.0
 _ZN5Katie23QCoreApplicationPrivate34sendThroughApplicationEventFiltersEPNS_7QObjectEPNS_6QEventE@Base 4.9.0
 _ZN5Katie23QCoreApplicationPrivate35appendApplicationPathToLibraryPathsEv@Base 4.9.0
 _ZN5Katie23QCoreApplicationPrivate7attribsE@Base 4.9.0
 _ZN5Katie23QCoreApplicationPrivateC1ERiPPc@Base 4.9.0
 _ZN5Katie23QCoreApplicationPrivateC2ERiPPc@Base 4.9.0
 _ZN5Katie23QCoreApplicationPrivateD0Ev@Base 4.9.0
 _ZN5Katie23QCoreApplicationPrivateD1Ev@Base 4.9.0
 _ZN5Katie23QCoreApplicationPrivateD2Ev@Base 4.9.0
 _ZN5Katie23qUnregisterResourceDataEiPKhS1_S1_@Base 4.9.0
 _ZN5Katie23qt_qFindChildren_helperEPKNS_7QObjectERKNS_7QStringEPKNS_7QRegExpERKNS_11QMetaObjectEPNS_5QListIPvEE@Base 4.9.0
 _ZN5Katie24QAbstractDeclarativeData13parentChangedE@Base 4.9.0
 _ZN5Katie24QAbstractDeclarativeData17objectNameChangedE@Base 4.9.0
 _ZN5Katie24QAbstractDeclarativeData9destroyedE@Base 4.9.0
 _ZN5Katie24QAbstractEventDispatcher10startingUpEv@Base 4.9.0
 _ZN5Katie24QAbstractEventDispatcher11closingDownEv@Base 4.9.0
 _ZN5Katie24QAbstractEventDispatcher11filterEventEPv@Base 4.9.0
 _ZN5Katie24QAbstractEventDispatcher11qt_metacallENS_11QMetaObject4CallEiPPv@Base 4.9.0
 _ZN5Katie24QAbstractEventDispatcher11qt_metacastEPKc@Base 4.9.0
 _ZN5Katie24QAbstractEventDispatcher12aboutToBlockEv@Base 4.9.0
 _ZN5Katie24QAbstractEventDispatcher13registerTimerEiPNS_7QObjectE@Base 4.9.0
 _ZN5Katie24QAbstractEventDispatcher14setEventFilterEPFbPvE@Base 4.9.0
 _ZN5Katie24QAbstractEventDispatcher16staticMetaObjectE@Base 4.9.0
 _ZN5Katie24QAbstractEventDispatcher19getStaticMetaObjectEv@Base 4.9.0
 _ZN5Katie24QAbstractEventDispatcher5awakeEv@Base 4.9.0
 _ZN5Katie24QAbstractEventDispatcher8instanceEPNS_7QThreadE@Base 4.9.0
 _ZN5Katie24QAbstractEventDispatcherC1EPNS_7QObjectE@Base 4.9.0
 _ZN5Katie24QAbstractEventDispatcherC1ERNS_31QAbstractEventDispatcherPrivateEPNS_7QObjectE@Base 4.9.0
 _ZN5Katie24QAbstractEventDispatcherC2EPNS_7QObjectE@Base 4.9.0
 _ZN5Katie24QAbstractEventDispatcherC2ERNS_31QAbstractEventDispatcherPrivateEPNS_7QObjectE@Base 4.9.0
 _ZN5Katie24QAbstractEventDispatcherD0Ev@Base 4.9.0
 _ZN5Katie24QAbstractEventDispatcherD1Ev@Base 4.9.0
 _ZN5Katie24QAbstractEventDispatcherD2Ev@Base 4.9.0
 _ZN5Katie24QNonContiguousByteDevice11qt_metacallENS_11QMetaObject4CallEiPPv@Base 4.9.0
 _ZN5Katie24QNonContiguousByteDevice11qt_metacastEPKc@Base 4.9.0
 _ZN5Katie24QNonContiguousByteDevice12disableResetEv@Base 4.9.0
 _ZN5Katie24QNonContiguousByteDevice12readProgressExx@Base 4.9.0
 _ZN5Katie24QNonContiguousByteDevice16staticMetaObjectE@Base 4.9.0
 _ZN5Katie24QNonContiguousByteDevice19getStaticMetaObjectEv@Base 4.9.0
 _ZN5Katie24QNonContiguousByteDevice9readyReadEv@Base 4.9.0
 _ZN5Katie24QNonContiguousByteDeviceC1Ev@Base 4.9.0
 _ZN5Katie24QNonContiguousByteDeviceC2Ev@Base 4.9.0
 _ZN5Katie24QNonContiguousByteDeviceD0Ev@Base 4.9.0
 _ZN5Katie24QNonContiguousByteDeviceD1Ev@Base 4.9.0
 _ZN5Katie24QNonContiguousByteDeviceD2Ev@Base 4.9.0
 _ZN5Katie24qGlobalPostedEventsCountEv@Base 4.9.0
 _ZN5Katie25QAbstractItemModelPrivate10Persistent16insertMultiAtEndERKNS_11QModelIndexEPNS_25QPersistentModelIndexDataE@Base 4.9.0
 _ZN5Katie25QAbstractItemModelPrivate10itemsMovedERKNS_11QModelIndexEiiS3_iNS_2Qt11OrientationE@Base 4.9.0
 _ZN5Katie25QAbstractItemModelPrivate11rowsRemovedERKNS_11QModelIndexEii@Base 4.9.0
 _ZN5Katie25QAbstractItemModelPrivate12rowsInsertedERKNS_11QModelIndexEii@Base 4.9.0
 _ZN5Katie25QAbstractItemModelPrivate14columnsRemovedERKNS_11QModelIndexEii@Base 4.9.0
 _ZN5Katie25QAbstractItemModelPrivate15columnsInsertedERKNS_11QModelIndexEii@Base 4.9.0
 _ZN5Katie25QAbstractItemModelPrivate15variantLessThanERKNS_8QVariantES3_@Base 4.9.0
 _ZN5Katie25QAbstractItemModelPrivate16defaultRoleNamesEv@Base 4.9.0
 _ZN5Katie25QAbstractItemModelPrivate16staticEmptyModelEv@Base 4.9.0
 _ZN5Katie25QAbstractItemModelPrivate19itemsAboutToBeMovedERKNS_11QModelIndexEiiS3_iNS_2Qt11OrientationE@Base 4.9.0
 _ZN5Katie25QAbstractItemModelPrivate20rowsAboutToBeRemovedERKNS_11QModelIndexEii@Base 4.9.0
 _ZN5Katie25QAbstractItemModelPrivate21movePersistentIndexesERKNS_7QVectorIPNS_25QPersistentModelIndexDataEEEiRKNS_11QModelIndexENS_2Qt11OrientationE@Base 4.9.0
 _ZN5Katie25QAbstractItemModelPrivate21rowsAboutToBeInsertedERKNS_11QModelIndexEii@Base 4.9.0
 _ZN5Katie25QAbstractItemModelPrivate23columnsAboutToBeRemovedERKNS_11QModelIndexEii@Base 4.9.0
 _ZN5Katie25QAbstractItemModelPrivate24columnsAboutToBeInsertedERKNS_11QModelIndexEii@Base 4.9.0
 _ZN5Katie25QAbstractItemModelPrivate25removePersistentIndexDataEPNS_25QPersistentModelIndexDataE@Base 4.9.0
 _ZN5Katie25QAbstractItemModelPrivate9allowMoveERKNS_11QModelIndexEiiS3_iNS_2Qt11OrientationE@Base 4.9.0
 _ZN5Katie26QAbstractFileEngineHandlerC1Ev@Base 4.9.0
 _ZN5Katie26QAbstractFileEngineHandlerC2Ev@Base 4.9.0
 _ZN5Katie26QAbstractFileEngineHandlerD0Ev@Base 4.9.0
 _ZN5Katie26QAbstractFileEngineHandlerD1Ev@Base 4.9.0
 _ZN5Katie26QAbstractFileEngineHandlerD2Ev@Base 4.9.0
 _ZN5Katie26qt_signal_spy_callback_setE@Base 4.9.0
 _ZN5Katie27QAbstractFileEngineIterator7setPathERKNS_7QStringE@Base 4.9.0
 _ZN5Katie27QAbstractFileEngineIteratorC1ENS_6QFlagsINS_4QDir6FilterEEERKNS_11QStringListE@Base 4.9.0
 _ZN5Katie27QAbstractFileEngineIteratorC2ENS_6QFlagsINS_4QDir6FilterEEERKNS_11QStringListE@Base 4.9.0
 _ZN5Katie27QAbstractFileEngineIteratorD0Ev@Base 4.9.0
 _ZN5Katie27QAbstractFileEngineIteratorD1Ev@Base 4.9.0
 _ZN5Katie27QAbstractFileEngineIteratorD2Ev@Base 4.9.0
 _ZN5Katie27QDynamicPropertyChangeEventC1ERKNS_10QByteArrayE@Base 4.9.0
 _ZN5Katie27QDynamicPropertyChangeEventC2ERKNS_10QByteArrayE@Base 4.9.0
 _ZN5Katie27QDynamicPropertyChangeEventD0Ev@Base 4.9.0
 _ZN5Katie27QDynamicPropertyChangeEventD1Ev@Base 4.9.0
 _ZN5Katie27QDynamicPropertyChangeEventD2Ev@Base 4.9.0
 _ZN5Katie27QEventDispatcherUNIXPrivate16initThreadWakeUpEv@Base 4.9.0
 _ZN5Katie27QEventDispatcherUNIXPrivate19processThreadWakeUpEi@Base 4.9.0
 _ZN5Katie27QEventDispatcherUNIXPrivate8doSelectENS_6QFlagsINS_10QEventLoop17ProcessEventsFlagEEEP7timeval@Base 4.9.0
 _ZN5Katie27QEventDispatcherUNIXPrivateC1Ev@Base 4.9.0
 _ZN5Katie27QEventDispatcherUNIXPrivateC2Ev@Base 4.9.0
 _ZN5Katie27QEventDispatcherUNIXPrivateD0Ev@Base 4.9.0
 _ZN5Katie27QEventDispatcherUNIXPrivateD1Ev@Base 4.9.0
 _ZN5Katie27QEventDispatcherUNIXPrivateD2Ev@Base 4.9.0
 _ZN5Katie2wsERNS_11QTextStreamE@Base 4.9.0
 _ZN5Katie31QAbstractEventDispatcherPrivate14releaseTimerIdEi@Base 4.9.0
 _ZN5Katie31QAbstractEventDispatcherPrivate15allocateTimerIdEv@Base 4.9.0
 _ZN5Katie31QAbstractEventDispatcherPrivate4initEv@Base 4.9.0
 _ZN5Katie31QNonContiguousByteDeviceFactory4wrapEPNS_24QNonContiguousByteDeviceE@Base 4.9.0
 _ZN5Katie31QNonContiguousByteDeviceFactory6createENS_14QSharedPointerINS_11QRingBufferEEE@Base 4.9.0
 _ZN5Katie31QNonContiguousByteDeviceFactory6createEPNS_10QByteArrayE@Base 4.9.0
 _ZN5Katie31QNonContiguousByteDeviceFactory6createEPNS_9QIODeviceE@Base 4.9.0
 _ZN5Katie32qt_register_signal_spy_callbacksERKNS_21QSignalSpyCallbackSetE@Base 4.9.0
 _ZN5Katie37qRegisterStaticPluginInstanceFunctionEPFPNS_7QObjectEvE@Base 4.9.0
 _ZN5Katie3binERNS_11QTextStreamE@Base 4.9.0
 _ZN5Katie3bomERNS_11QTextStreamE@Base 4.9.0
 _ZN5Katie3decERNS_11QTextStreamE@Base 4.9.0
 _ZN5Katie3hexERNS_11QTextStreamE@Base 4.9.0
 _ZN5Katie3octERNS_11QTextStreamE@Base 4.9.0
 _ZN5Katie4QDir10setCurrentERKNS_7QStringE@Base 4.9.0
 _ZN5Katie4QDir10setSortingENS_6QFlagsINS0_8SortFlagEEE@Base 4.9.0
 _ZN5Katie4QDir11currentPathEv@Base 4.9.0
 _ZN5Katie4QDir11searchPathsERKNS_7QStringE@Base 4.9.0
 _ZN5Katie4QDir12makeAbsoluteEv@Base 4.9.0
 _ZN5Katie4QDir13addSearchPathERKNS_7QStringES3_@Base 4.9.0
 _ZN5Katie4QDir14isRelativePathERKNS_7QStringE@Base 4.9.0
 _ZN5Katie4QDir14setNameFiltersERKNS_11QStringListE@Base 4.9.0
 _ZN5Katie4QDir14setSearchPathsERKNS_7QStringERKNS_11QStringListE@Base 4.9.0
 _ZN5Katie4QDir21nameFiltersFromStringERKNS_7QStringE@Base 4.9.0
 _ZN5Katie4QDir2cdERKNS_7QStringE@Base 4.9.0
 _ZN5Katie4QDir4cdUpEv@Base 4.9.0
 _ZN5Katie4QDir5matchERKNS_11QStringListERKNS_7QStringE@Base 4.9.0
 _ZN5Katie4QDir5matchERKNS_7QStringES3_@Base 4.9.0
 _ZN5Katie4QDir6removeERKNS_7QStringE@Base 4.9.0
 _ZN5Katie4QDir6renameERKNS_7QStringES3_@Base 4.9.0
 _ZN5Katie4QDir7setPathERKNS_7QStringE@Base 4.9.0
 _ZN5Katie4QDir8homePathEv@Base 4.9.0
 _ZN5Katie4QDir8rootPathEv@Base 4.9.0
 _ZN5Katie4QDir8tempPathEv@Base 4.9.0
 _ZN5Katie4QDir9cleanPathERKNS_7QStringE@Base 4.9.0
 _ZN5Katie4QDir9setFilterENS_6QFlagsINS0_6FilterEEE@Base 4.9.0
 _ZN5Katie4QDirC1ERKNS_7QStringE@Base 4.9.0
 _ZN5Katie4QDirC1ERKNS_7QStringES3_NS_6QFlagsINS0_8SortFlagEEENS4_INS0_6FilterEEE@Base 4.9.0
 _ZN5Katie4QDirC1ERKS0_@Base 4.9.0
 _ZN5Katie4QDirC2ERKNS_7QStringE@Base 4.9.0
 _ZN5Katie4QDirC2ERKNS_7QStringES3_NS_6QFlagsINS0_8SortFlagEEENS4_INS0_6FilterEEE@Base 4.9.0
 _ZN5Katie4QDirC2ERKS0_@Base 4.9.0
 _ZN5Katie4QDirD1Ev@Base 4.9.0
 _ZN5Katie4QDirD2Ev@Base 4.9.0
 _ZN5Katie4QDiraSERKNS_7QStringE@Base 4.9.0
 _ZN5Katie4QDiraSERKS0_@Base 4.9.0
 _ZN5Katie4QUrl10toPunycodeERKNS_7QStringE@Base 4.9.0
 _ZN5Katie4QUrl11fromEncodedERKNS_10QByteArrayENS0_11ParsingModeE@Base 4.9.0
 _ZN5Katie4QUrl11setFragmentERKNS_7QStringE@Base 4.9.0
 _ZN5Katie4QUrl11setPasswordERKNS_7QStringE@Base 4.9.0
 _ZN5Katie4QUrl11setUserInfoERKNS_7QStringE@Base 4.9.0
 _ZN5Katie4QUrl11setUserNameERKNS_7QStringE@Base 4.9.0
 _ZN5Katie4QUrl12addQueryItemERKNS_7QStringES3_@Base 4.9.0
 _ZN5Katie4QUrl12fromPunycodeERKNS_10QByteArrayE@Base 4.9.0
 _ZN5Katie4QUrl12setAuthorityERKNS_7QStringE@Base 4.9.0
 _ZN5Katie4QUrl13fromLocalFileERKNS_7QStringE@Base 4.9.0
 _ZN5Katie4QUrl13fromUserInputERKNS_7QStringE@Base 4.9.0
 _ZN5Katie4QUrl13setEncodedUrlERKNS_10QByteArrayENS0_11ParsingModeE@Base 4.9.0
 _ZN5Katie4QUrl13setQueryItemsERKNS_5QListINS_5QPairINS_7QStringES3_EEEE@Base 4.9.0
 _ZN5Katie4QUrl14setEncodedHostERKNS_10QByteArrayE@Base 4.9.0
 _ZN5Katie4QUrl14setEncodedPathERKNS_10QByteArrayE@Base 4.9.0
 _ZN5Katie4QUrl15removeQueryItemERKNS_7QStringE@Base 4.9.0
 _ZN5Katie4QUrl15setEncodedQueryERKNS_10QByteArrayE@Base 4.9.0
 _ZN5Katie4QUrl17toPercentEncodingERKNS_7QStringERKNS_10QByteArrayES6_@Base 4.9.0
 _ZN5Katie4QUrl18setEncodedFragmentERKNS_10QByteArrayE@Base 4.9.0
 _ZN5Katie4QUrl18setEncodedPasswordERKNS_10QByteArrayE@Base 4.9.0
 _ZN5Katie4QUrl18setEncodedUserNameERKNS_10QByteArrayE@Base 4.9.0
 _ZN5Katie4QUrl18setQueryDelimitersEcc@Base 4.9.0
 _ZN5Katie4QUrl19addEncodedQueryItemERKNS_10QByteArrayES3_@Base 4.9.0
 _ZN5Katie4QUrl19fromPercentEncodingERKNS_10QByteArrayE@Base 4.9.0
 _ZN5Katie4QUrl19removeAllQueryItemsERKNS_7QStringE@Base 4.9.0
 _ZN5Katie4QUrl20setEncodedQueryItemsERKNS_5QListINS_5QPairINS_10QByteArrayES3_EEEE@Base 4.9.0
 _ZN5Katie4QUrl22removeEncodedQueryItemERKNS_10QByteArrayE@Base 4.9.0
 _ZN5Katie4QUrl26removeAllEncodedQueryItemsERKNS_10QByteArrayE@Base 4.9.0
 _ZN5Katie4QUrl5clearEv@Base 4.9.0
 _ZN5Katie4QUrl5toAceERKNS_7QStringE@Base 4.9.0
 _ZN5Katie4QUrl6detachERNS_12QMutexLockerE@Base 4.9.0
 _ZN5Katie4QUrl6detachEv@Base 4.9.0
 _ZN5Katie4QUrl6setUrlERKNS_7QStringENS0_11ParsingModeE@Base 4.9.0
 _ZN5Katie4QUrl7fromAceERKNS_10QByteArrayE@Base 4.9.0
 _ZN5Katie4QUrl7setHostERKNS_7QStringE@Base 4.9.0
 _ZN5Katie4QUrl7setPathERKNS_7QStringE@Base 4.9.0
 _ZN5Katie4QUrl7setPortEi@Base 4.9.0
 _ZN5Katie4QUrl9setSchemeERKNS_7QStringE@Base 4.9.0
 _ZN5Katie4QUrlC1ERKNS_7QStringENS0_11ParsingModeE@Base 4.9.0
 _ZN5Katie4QUrlC1ERKS0_@Base 4.9.0
 _ZN5Katie4QUrlC1Ev@Base 4.9.0
 _ZN5Katie4QUrlC2ERKNS_7QStringENS0_11ParsingModeE@Base 4.9.0
 _ZN5Katie4QUrlC2ERKS0_@Base 4.9.0
 _ZN5Katie4QUrlC2Ev@Base 4.9.0
 _ZN5Katie4QUrlD1Ev@Base 4.9.0
 _ZN5Katie4QUrlD2Ev@Base 4.9.0
 _ZN5Katie4QUrlaSERKNS_7QStringE@Base 4.9.0
 _ZN5Katie4QUrlaSERKS0_@Base 4.9.0
 _ZN5Katie4endlERNS_11QTextStreamE@Base 4.9.0
 _ZN5Katie4leftERNS_11QTextStreamE@Base 4.9.0
 _ZN5Katie4qInfEv@Base 4.9.0
 _ZN5Katie5QChar10digitValueEj@Base 4.9.0
 _ZN5Katie5QChar10digitValueEt@Base 4.9.0
 _ZN5Katie5QChar11toTitleCaseEj@Base 4.9.0
 _ZN5Katie5QChar11toTitleCaseEt@Base 4.9.0
 _ZN5Katie5QChar12mirroredCharEj@Base 4.9.0
 _ZN5Katie5QChar12mirroredCharEt@Base 4.9.0
 _ZN5Katie5QChar12toCaseFoldedEj@Base 4.9.0
 _ZN5Katie5QChar12toCaseFoldedEt@Base 4.9.0
 _ZN5Katie5QChar13decompositionEj@Base 4.9.0
 _ZN5Katie5QChar14unicodeVersionEj@Base 4.9.0
 _ZN5Katie5QChar14unicodeVersionEt@Base 4.9.0
 _ZN5Katie5QChar16decompositionTagEj@Base 4.9.0
 _ZN5Katie5QChar21currentUnicodeVersionEv@Base 4.9.0
 _ZN5Katie5QChar7joiningEj@Base 4.9.0
 _ZN5Katie5QChar7joiningEt@Base 4.9.0
 _ZN5Katie5QChar7toLowerEj@Base 4.9.0
 _ZN5Katie5QChar7toLowerEt@Base 4.9.0
 _ZN5Katie5QChar7toUpperEj@Base 4.9.0
 _ZN5Katie5QChar7toUpperEt@Base 4.9.0
 _ZN5Katie5QChar8categoryEj@Base 4.9.0
 _ZN5Katie5QChar8categoryEt@Base 4.9.0
 _ZN5Katie5QChar9directionEj@Base 4.9.0
 _ZN5Katie5QChar9directionEt@Base 4.9.0
 _ZN5Katie5QChar9fromAsciiEc@Base 4.9.0
 _ZN5Katie5QCharC1Ec@Base 4.9.0
 _ZN5Katie5QCharC1Eh@Base 4.9.0
 _ZN5Katie5QCharC2Ec@Base 4.9.0
 _ZN5Katie5QCharC2Eh@Base 4.9.0
 _ZN5Katie5QDate10fromStringERKNS_7QStringENS_2Qt10DateFormatE@Base 4.9.0
 _ZN5Katie5QDate10fromStringERKNS_7QStringES3_@Base 4.9.0
 _ZN5Katie5QDate10isLeapYearEi@Base 4.9.0
 _ZN5Katie5QDate11currentDateEv@Base 4.9.0
 _ZN5Katie5QDate11longDayNameEiNS0_13MonthNameTypeE@Base 4.9.0
 _ZN5Katie5QDate12shortDayNameEiNS0_13MonthNameTypeE@Base 4.9.0
 _ZN5Katie5QDate13longMonthNameEiNS0_13MonthNameTypeE@Base 4.9.0
 _ZN5Katie5QDate14shortMonthNameEiNS0_13MonthNameTypeE@Base 4.9.0
 _ZN5Katie5QDate17gregorianToJulianEiii@Base 4.9.0
 _ZN5Katie5QDate17julianToGregorianEjRiS1_S1_@Base 4.9.0
 _ZN5Katie5QDate6setYMDEiii@Base 4.9.0
 _ZN5Katie5QDate7isValidEiii@Base 4.9.0
 _ZN5Katie5QDate7setDateEiii@Base 4.9.0
 _ZN5Katie5QDateC1Eiii@Base 4.9.0
 _ZN5Katie5QDateC2Eiii@Base 4.9.0
 _ZN5Katie5QFile10decodeNameERKNS_10QByteArrayE@Base 4.9.0
 _ZN5Katie5QFile10encodeNameERKNS_7QStringE@Base 4.9.0
 _ZN5Katie5QFile10unsetErrorEv@Base 4.9.0
 _ZN5Katie5QFile11permissionsERKNS_7QStringE@Base 4.9.0
 _ZN5Katie5QFile11qt_metacallENS_11QMetaObject4CallEiPPv@Base 4.9.0
 _ZN5Katie5QFile11qt_metacastEPKc@Base 4.9.0
 _ZN5Katie5QFile11setFileNameERKNS_7QStringE@Base 4.9.0
 _ZN5Katie5QFile12readLineDataEPcx@Base 4.9.0
 _ZN5Katie5QFile14setPermissionsENS_6QFlagsINS0_10PermissionEEE@Base 4.9.0
 _ZN5Katie5QFile14setPermissionsERKNS_7QStringENS_6QFlagsINS0_10PermissionEEE@Base 4.9.0
 _ZN5Katie5QFile16staticMetaObjectE@Base 4.9.0
 _ZN5Katie5QFile19getStaticMetaObjectEv@Base 4.9.0
 _ZN5Katie5QFile3mapExx@Base 4.9.0
 _ZN5Katie5QFile4copyERKNS_7QStringE@Base 4.9.0
 _ZN5Katie5QFile4copyERKNS_7QStringES3_@Base 4.9.0
 _ZN5Katie5QFile4linkERKNS_7QStringE@Base 4.9.0
 _ZN5Katie5QFile4linkERKNS_7QStringES3_@Base 4.9.0
 _ZN5Katie5QFile4openENS_6QFlagsINS_9QIODevice12OpenModeFlagEEE@Base 4.9.0
 _ZN5Katie5QFile4openEP8_IO_FILENS_6QFlagsINS_9QIODevice12OpenModeFlagEEENS3_INS0_14FileHandleFlagEEE@Base 4.9.0
 _ZN5Katie5QFile4openEiNS_6QFlagsINS_9QIODevice12OpenModeFlagEEENS1_INS0_14FileHandleFlagEEE@Base 4.9.0
 _ZN5Katie5QFile4seekEx@Base 4.9.0
 _ZN5Katie5QFile5closeEv@Base 4.9.0
 _ZN5Katie5QFile5flushEv@Base 4.9.0
 _ZN5Katie5QFile5unmapEPh@Base 4.9.0
 _ZN5Katie5QFile6existsERKNS_7QStringE@Base 4.9.0
 _ZN5Katie5QFile6removeERKNS_7QStringE@Base 4.9.0
 _ZN5Katie5QFile6removeEv@Base 4.9.0
 _ZN5Katie5QFile6renameERKNS_7QStringE@Base 4.9.0
 _ZN5Katie5QFile6renameERKNS_7QStringES3_@Base 4.9.0
 _ZN5Katie5QFile6resizeERKNS_7QStringEx@Base 4.9.0
 _ZN5Katie5QFile6resizeEx@Base 4.9.0
 _ZN5Katie5QFile8readDataEPcx@Base 4.9.0
 _ZN5Katie5QFile8readLinkERKNS_7QStringE@Base 4.9.0
 _ZN5Katie5QFile9writeDataEPKcx@Base 4.9.0
 _ZN5Katie5QFileC1EPNS_7QObjectE@Base 4.9.0
 _ZN5Katie5QFileC1ERKNS_7QStringE@Base 4.9.0
 _ZN5Katie5QFileC1ERKNS_7QStringEPNS_7QObjectE@Base 4.9.0
 _ZN5Katie5QFileC1ERNS_12QFilePrivateEPNS_7QObjectE@Base 4.9.0
 _ZN5Katie5QFileC1Ev@Base 4.9.0
 _ZN5Katie5QFileC2EPNS_7QObjectE@Base 4.9.0
 _ZN5Katie5QFileC2ERKNS_7QStringE@Base 4.9.0
 _ZN5Katie5QFileC2ERKNS_7QStringEPNS_7QObjectE@Base 4.9.0
 _ZN5Katie5QFileC2ERNS_12QFilePrivateEPNS_7QObjectE@Base 4.9.0
 _ZN5Katie5QFileC2Ev@Base 4.9.0
 _ZN5Katie5QFileD0Ev@Base 4.9.0
 _ZN5Katie5QFileD1Ev@Base 4.9.0
 _ZN5Katie5QFileD2Ev@Base 4.9.0
 _ZN5Katie5QRect10moveCenterERKNS_6QPointE@Base 4.9.0
 _ZN5Katie5QSize5scaleERKS0_NS_2Qt15AspectRatioModeE@Base 4.9.0
 _ZN5Katie5QSize9transposeEv@Base 4.9.0
 _ZN5Katie5QTime10fromStringERKNS_7QStringENS_2Qt10DateFormatE@Base 4.9.0
 _ZN5Katie5QTime10fromStringERKNS_7QStringES3_@Base 4.9.0
 _ZN5Katie5QTime11currentTimeEv@Base 4.9.0
 _ZN5Katie5QTime5startEv@Base 4.9.0
 _ZN5Katie5QTime6setHMSEiiii@Base 4.9.0
 _ZN5Katie5QTime7isValidEiiii@Base 4.9.0
 _ZN5Katie5QTime7restartEv@Base 4.9.0
 _ZN5Katie5QTimeC1Eiiii@Base 4.9.0
 _ZN5Katie5QTimeC2Eiiii@Base 4.9.0
 _ZN5Katie5QUuid10createUuidEv@Base 4.9.0
 _ZN5Katie5QUuid11fromRfc4122ERKNS_10QByteArrayE@Base 4.9.0
 _ZN5Katie5QUuidC1EPKc@Base 4.9.0
 _ZN5Katie5QUuidC1ERKNS_10QByteArrayE@Base 4.9.0
 _ZN5Katie5QUuidC1ERKNS_7QStringE@Base 4.9.0
 _ZN5Katie5QUuidC2EPKc@Base 4.9.0
 _ZN5Katie5QUuidC2ERKNS_10QByteArrayE@Base 4.9.0
 _ZN5Katie5QUuidC2ERKNS_7QStringE@Base 4.9.0
 _ZN5Katie5fixedERNS_11QTextStreamE@Base 4.9.0
 _ZN5Katie5flushERNS_11QTextStreamE@Base 4.9.0
 _ZN5Katie5qHashERKNS_10QByteArrayE@Base 4.9.0
 _ZN5Katie5qHashERKNS_10QStringRefE@Base 4.9.0
 _ZN5Katie5qHashERKNS_5QUuidE@Base 4.9.0
 _ZN5Katie5qHashERKNS_7QStringE@Base 4.9.0
 _ZN5Katie5qHashERKNS_9QBitArrayE@Base 4.9.0
 _ZN5Katie5qQNaNEv@Base 4.9.0
 _ZN5Katie5qSNaNEv@Base 4.9.0
 _ZN5Katie5qrandEv@Base 4.9.0
 _ZN5Katie5resetERNS_11QTextStreamE@Base 4.9.0
 _ZN5Katie5rightERNS_11QTextStreamE@Base 4.9.0
 _ZN5Katie6QEvent16staticMetaObjectE@Base 4.9.0
 _ZN5Katie6QEvent17registerEventTypeEi@Base 4.9.0
 _ZN5Katie6QEvent19getStaticMetaObjectEv@Base 4.9.0
 _ZN5Katie6QEventC1ENS0_4TypeE@Base 4.9.0
 _ZN5Katie6QEventC2ENS0_4TypeE@Base 4.9.0
 _ZN5Katie6QEventD0Ev@Base 4.9.0
 _ZN5Katie6QEventD1Ev@Base 4.9.0
 _ZN5Katie6QEventD2Ev@Base 4.9.0
 _ZN5Katie6QLineF8setAngleEd@Base 4.9.0
 _ZN5Katie6QLineF9fromPolarEdd@Base 4.9.0
 _ZN5Katie6QSizeF5scaleERKS0_NS_2Qt15AspectRatioModeE@Base 4.9.0
 _ZN5Katie6QSizeF9transposeEv@Base 4.9.0
 _ZN5Katie6QTimer10singleShotEiPNS_7QObjectEPKc@Base 4.9.0
 _ZN5Katie6QTimer10timerEventEPNS_11QTimerEventE@Base 4.9.0
 _ZN5Katie6QTimer11qt_metacallENS_11QMetaObject4CallEiPPv@Base 4.9.0
 _ZN5Katie6QTimer11qt_metacastEPKc@Base 4.9.0
 _ZN5Katie6QTimer11setIntervalEi@Base 4.9.0
 _ZN5Katie6QTimer16staticMetaObjectE@Base 4.9.0
 _ZN5Katie6QTimer19getStaticMetaObjectEv@Base 4.9.0
 _ZN5Katie6QTimer4stopEv@Base 4.9.0
 _ZN5Katie6QTimer5startEi@Base 4.9.0
 _ZN5Katie6QTimer5startEv@Base 4.9.0
 _ZN5Katie6QTimer7timeoutEv@Base 4.9.0
 _ZN5Katie6QTimerC1EPNS_7QObjectE@Base 4.9.0
 _ZN5Katie6QTimerC2EPNS_7QObjectE@Base 4.9.0
 _ZN5Katie6QTimerD0Ev@Base 4.9.0
 _ZN5Katie6QTimerD1Ev@Base 4.9.0
 _ZN5Katie6QTimerD2Ev@Base 4.9.0
 _ZN5Katie6centerERNS_11QTextStreamE@Base 4.9.0
 _ZN5Katie6qDebugEPKcz@Base 4.9.0
 _ZN5Katie6qFatalEPKcz@Base 4.9.0
 _ZN5Katie6qsrandEj@Base 4.9.0
 _ZN5Katie7QBuffer11qt_metacallENS_11QMetaObject4CallEiPPv@Base 4.9.0
 _ZN5Katie7QBuffer11qt_metacastEPKc@Base 4.9.0
 _ZN5Katie7QBuffer13connectNotifyEPKc@Base 4.9.0
 _ZN5Katie7QBuffer16disconnectNotifyEPKc@Base 4.9.0
 _ZN5Katie7QBuffer16staticMetaObjectE@Base 4.9.0
 _ZN5Katie7QBuffer19getStaticMetaObjectEv@Base 4.9.0
 _ZN5Katie7QBuffer4openENS_6QFlagsINS_9QIODevice12OpenModeFlagEEE@Base 4.9.0
 _ZN5Katie7QBuffer4seekEx@Base 4.9.0
 _ZN5Katie7QBuffer6bufferEv@Base 4.9.0
 _ZN5Katie7QBuffer7setDataERKNS_10QByteArrayE@Base 4.9.0
 _ZN5Katie7QBuffer8readDataEPcx@Base 4.9.0
 _ZN5Katie7QBuffer9setBufferEPNS_10QByteArrayE@Base 4.9.0
 _ZN5Katie7QBuffer9writeDataEPKcx@Base 4.9.0
 _ZN5Katie7QBufferC1EPNS_10QByteArrayEPNS_7QObjectE@Base 4.9.0
 _ZN5Katie7QBufferC1EPNS_7QObjectE@Base 4.9.0
 _ZN5Katie7QBufferC2EPNS_10QByteArrayEPNS_7QObjectE@Base 4.9.0
 _ZN5Katie7QBufferC2EPNS_7QObjectE@Base 4.9.0
 _ZN5Katie7QBufferD0Ev@Base 4.9.0
 _ZN5Katie7QBufferD1Ev@Base 4.9.0
 _ZN5Katie7QBufferD2Ev@Base 4.9.0
 _ZN5Katie7QLocale10setDefaultERKS0_@Base 4.9.0
 _ZN5Katie7QLocale14scriptToStringENS0_6ScriptE@Base 4.9.0
 _ZN5Katie7QLocale15countryToStringENS0_7CountryE@Base 4.9.0
 _ZN5Katie7QLocale15matchingLocalesENS0_8LanguageENS0_6ScriptENS0_7CountryE@Base 4.9.0
 _ZN5Katie7QLocale16languageToStringENS0_8LanguageE@Base 4.9.0
 _ZN5Katie7QLocale16setNumberOptionsENS_6QFlagsINS0_12NumberOptionEEE@Base 4.9.0
 _ZN5Katie7QLocale16staticMetaObjectE@Base 4.9.0
 _ZN5Katie7QLocale19getStaticMetaObjectEv@Base 4.9.0
 _ZN5Katie7QLocale20countriesForLanguageENS0_8LanguageE@Base 4.9.0
 _ZN5Katie7QLocale6systemEv@Base 4.9.0
 _ZN5Katie7QLocaleC1ENS0_8LanguageENS0_6ScriptENS0_7CountryE@Base 4.9.0
 _ZN5Katie7QLocaleC1ENS0_8LanguageENS0_7CountryE@Base 4.9.0
 _ZN5Katie7QLocaleC1ERKNS_7QStringE@Base 4.9.0
 _ZN5Katie7QLocaleC1ERKS0_@Base 4.9.0
 _ZN5Katie7QLocaleC1Ev@Base 4.9.0
 _ZN5Katie7QLocaleC2ENS0_8LanguageENS0_6ScriptENS0_7CountryE@Base 4.9.0
 _ZN5Katie7QLocaleC2ENS0_8LanguageENS0_7CountryE@Base 4.9.0
 _ZN5Katie7QLocaleC2ERKNS_7QStringE@Base 4.9.0
 _ZN5Katie7QLocaleC2ERKS0_@Base 4.9.0
 _ZN5Katie7QLocaleC2Ev@Base 4.9.0
 _ZN5Katie7QLocaleaSERKS0_@Base 4.9.0
 _ZN5Katie7QObject10childEventEPNS_11QChildEventE@Base 4.9.0
 _ZN5Katie7QObject10disconnectEPKS0_PKcS2_S4_@Base 4.9.0
 _ZN5Katie7QObject10disconnectEPKS0_RKNS_11QMetaMethodES2_S5_@Base 4.9.0
 _ZN5Katie7QObject10startTimerEi@Base 4.9.0
 _ZN5Katie7QObject10timerEventEPNS_11QTimerEventE@Base 4.9.0
 _ZN5Katie7QObject11customEventEPNS_6QEventE@Base 4.9.0
 _ZN5Katie7QObject11deleteLaterEv@Base 4.9.0
 _ZN5Katie7QObject11eventFilterEPS0_PNS_6QEventE@Base 4.9.0
 _ZN5Katie7QObject11qt_metacallENS_11QMetaObject4CallEiPPv@Base 4.9.0
 _ZN5Katie7QObject11qt_metacastEPKc@Base 4.9.0
 _ZN5Katie7QObject11setPropertyEPKcRKNS_8QVariantE@Base 4.9.0
 _ZN5Katie7QObject12blockSignalsEb@Base 4.9.0
 _ZN5Katie7QObject12moveToThreadEPNS_7QThreadE@Base 4.9.0
 _ZN5Katie7QObject13connectNotifyEPKc@Base 4.9.0
 _ZN5Katie7QObject13setObjectNameERKNS_7QStringE@Base 4.9.0
 _ZN5Katie7QObject14dumpObjectInfoEv@Base 4.9.0
 _ZN5Katie7QObject14dumpObjectTreeEv@Base 4.9.0
 _ZN5Katie7QObject16disconnectNotifyEPKc@Base 4.9.0
 _ZN5Katie7QObject16staticMetaObjectE@Base 4.9.0
 _ZN5Katie7QObject17removeEventFilterEPS0_@Base 4.9.0
 _ZN5Katie7QObject18installEventFilterEPS0_@Base 4.9.0
 _ZN5Katie7QObject18staticQtMetaObjectE@Base 4.9.0
 _ZN5Katie7QObject19getStaticMetaObjectEv@Base 4.9.0
 _ZN5Katie7QObject5eventEPNS_6QEventE@Base 4.9.0
 _ZN5Katie7QObject7connectEPKS0_PKcS2_S4_NS_2Qt14ConnectionTypeE@Base 4.9.0
 _ZN5Katie7QObject7connectEPKS0_RKNS_11QMetaMethodES2_S5_NS_2Qt14ConnectionTypeE@Base 4.9.0
 _ZN5Katie7QObject9destroyedEPS0_@Base 4.9.0
 _ZN5Katie7QObject9killTimerEi@Base 4.9.0
 _ZN5Katie7QObject9setParentEPS0_@Base 4.9.0
 _ZN5Katie7QObjectC1EPS0_@Base 4.9.0
 _ZN5Katie7QObjectC1ERNS_14QObjectPrivateEPS0_@Base 4.9.0
 _ZN5Katie7QObjectC2EPS0_@Base 4.9.0
 _ZN5Katie7QObjectC2ERNS_14QObjectPrivateEPS0_@Base 4.9.0
 _ZN5Katie7QObjectD0Ev@Base 4.9.0
 _ZN5Katie7QObjectD1Ev@Base 4.9.0
 _ZN5Katie7QObjectD2Ev@Base 4.9.0
 _ZN5Katie7QRegExp10setMinimalEb@Base 4.9.0
 _ZN5Katie7QRegExp10setPatternERKNS_7QStringE@Base 4.9.0
 _ZN5Katie7QRegExp16setPatternSyntaxENS0_13PatternSyntaxE@Base 4.9.0
 _ZN5Katie7QRegExp18setCaseSensitivityENS_2Qt15CaseSensitivityE@Base 4.9.0
 _ZN5Katie7QRegExp6escapeERKNS_7QStringE@Base 4.9.0
 _ZN5Katie7QRegExpC1ERKNS_7QStringENS_2Qt15CaseSensitivityENS0_13PatternSyntaxE@Base 4.9.0
 _ZN5Katie7QRegExpC1ERKS0_@Base 4.9.0
 _ZN5Katie7QRegExpC1Ev@Base 4.9.0
 _ZN5Katie7QRegExpC2ERKNS_7QStringENS_2Qt15CaseSensitivityENS0_13PatternSyntaxE@Base 4.9.0
 _ZN5Katie7QRegExpC2ERKS0_@Base 4.9.0
 _ZN5Katie7QRegExpC2Ev@Base 4.9.0
 _ZN5Katie7QRegExpD1Ev@Base 4.9.0
 _ZN5Katie7QRegExpD2Ev@Base 4.9.0
 _ZN5Katie7QRegExpaSERKS0_@Base 4.9.0
 _ZN5Katie7QString10fromLatin1EPKci@Base 4.9.0
 _ZN5Katie7QString10setRawDataEPKNS_5QCharEi@Base 4.9.0
 _ZN5Katie7QString10setUnicodeEPKNS_5QCharEi@Base 4.9.0
 _ZN5Katie7QString11fromRawDataEPKNS_5QCharEi@Base 4.9.0
 _ZN5Katie7QString11reallocDataEi@Base 4.9.0
 _ZN5Katie7QString11shared_nullE@Base 4.9.0
 _ZN5Katie7QString12shared_emptyE@Base 4.9.0
 _ZN5Katie7QString13fromLocal8BitEPKci@Base 4.9.0
 _ZN5Katie7QString14compare_helperEPKNS_5QCharEiNS_13QLatin1StringENS_2Qt15CaseSensitivityE@Base 4.9.0
 _ZN5Katie7QString14compare_helperEPKNS_5QCharEiS3_iNS_2Qt15CaseSensitivityE@Base 4.9.0
 _ZN5Katie7QString14fromWCharArrayEPKwi@Base 4.9.0
 _ZN5Katie7QString14replace_helperEPjiiPKNS_5QCharEi@Base 4.9.0
 _ZN5Katie7QString16codecForCStringsE@Base 4.9.0
 _ZN5Katie7QString16fromAscii_helperEPKci@Base 4.9.0
 _ZN5Katie7QString17fromLatin1_helperEPKci@Base 4.9.0
 _ZN5Katie7QString25localeAwareCompare_helperEPKNS_5QCharEiS3_i@Base 4.9.0
 _ZN5Katie7QString4chopEi@Base 4.9.0
 _ZN5Katie7QString4fillENS_5QCharEi@Base 4.9.0
 _ZN5Katie7QString4growEi@Base 4.9.0
 _ZN5Katie7QString6appendENS_5QCharE@Base 4.9.0
 _ZN5Katie7QString6appendERKNS_10QStringRefE@Base 4.9.0
 _ZN5Katie7QString6appendERKNS_13QLatin1StringE@Base 4.9.0
 _ZN5Katie7QString6appendERKS0_@Base 4.9.0
 _ZN5Katie7QString6expandEi@Base 4.9.0
 _ZN5Katie7QString6insertEiNS_5QCharE@Base 4.9.0
 _ZN5Katie7QString6insertEiPKNS_5QCharEi@Base 4.9.0
 _ZN5Katie7QString6insertEiRKNS_13QLatin1StringE@Base 4.9.0
 _ZN5Katie7QString6numberEdci@Base 4.9.0
 _ZN5Katie7QString6numberEii@Base 4.9.0
 _ZN5Katie7QString6numberEji@Base 4.9.0
 _ZN5Katie7QString6numberEli@Base 4.9.0
 _ZN5Katie7QString6numberEmi@Base 4.9.0
 _ZN5Katie7QString6numberEsi@Base 4.9.0
 _ZN5Katie7QString6numberEti@Base 4.9.0
 _ZN5Katie7QString6numberExi@Base 4.9.0
 _ZN5Katie7QString6numberEyi@Base 4.9.0
 _ZN5Katie7QString6removeENS_5QCharENS_2Qt15CaseSensitivityE@Base 4.9.0
 _ZN5Katie7QString6removeERKS0_NS_2Qt15CaseSensitivityE@Base 4.9.0
 _ZN5Katie7QString6removeEii@Base 4.9.0
 _ZN5Katie7QString6resizeEi@Base 4.9.0
 _ZN5Katie7QString6setNumEdci@Base 4.9.0
 _ZN5Katie7QString6setNumExi@Base 4.9.0
 _ZN5Katie7QString6setNumEyi@Base 4.9.0
 _ZN5Katie7QString7replaceENS_5QCharERKNS_13QLatin1StringENS_2Qt15CaseSensitivityE@Base 4.9.0
 _ZN5Katie7QString7replaceENS_5QCharERKS0_NS_2Qt15CaseSensitivityE@Base 4.9.0
 _ZN5Katie7QString7replaceENS_5QCharES1_NS_2Qt15CaseSensitivityE@Base 4.9.0
 _ZN5Katie7QString7replaceEPKNS_5QCharEiS3_iNS_2Qt15CaseSensitivityE@Base 4.9.0
 _ZN5Katie7QString7replaceERKNS_13QLatin1StringERKS0_NS_2Qt15CaseSensitivityE@Base 4.9.0
 _ZN5Katie7QString7replaceERKNS_13QLatin1StringES3_NS_2Qt15CaseSensitivityE@Base 4.9.0
 _ZN5Katie7QString7replaceERKNS_7QRegExpERKS0_@Base 4.9.0
 _ZN5Katie7QString7replaceERKS0_RKNS_13QLatin1StringENS_2Qt15CaseSensitivityE@Base 4.9.0
 _ZN5Katie7QString7replaceERKS0_S2_NS_2Qt15CaseSensitivityE@Base 4.9.0
 _ZN5Katie7QString7replaceEiiNS_5QCharE@Base 4.9.0
 _ZN5Katie7QString7replaceEiiPKNS_5QCharEi@Base 4.9.0
 _ZN5Katie7QString7replaceEiiRKS0_@Base 4.9.0
 _ZN5Katie7QString7sprintfEPKcz@Base 4.9.0
 _ZN5Katie7QString8freeDataEPNS0_4DataE@Base 4.9.0
 _ZN5Katie7QString8fromUcs4EPKji@Base 4.9.0
 _ZN5Katie7QString8fromUtf8EPKci@Base 4.9.0
 _ZN5Katie7QString8truncateEi@Base 4.9.0
 _ZN5Katie7QString8vsprintfEPKcPc@Base 4.9.0
 _ZN5Katie7QString9fromAsciiEPKci@Base 4.9.0
 _ZN5Katie7QString9fromUtf16EPKti@Base 4.9.0
 _ZN5Katie7QStringC1ENS_5QCharE@Base 4.9.0
 _ZN5Katie7QStringC1EPKNS_5QCharEi@Base 4.9.0
 _ZN5Katie7QStringC1EiNS_2Qt14InitializationE@Base 4.9.0
 _ZN5Katie7QStringC1EiNS_5QCharE@Base 4.9.0
 _ZN5Katie7QStringC2ENS_5QCharE@Base 4.9.0
 _ZN5Katie7QStringC2EPKNS_5QCharEi@Base 4.9.0
 _ZN5Katie7QStringC2EiNS_2Qt14InitializationE@Base 4.9.0
 _ZN5Katie7QStringC2EiNS_5QCharE@Base 4.9.0
 _ZN5Katie7QStringaSENS_5QCharE@Base 4.9.0
 _ZN5Katie7QStringaSERKS0_@Base 4.9.0
 _ZN5Katie7QThread10terminatedEv@Base 4.9.0
 _ZN5Katie7QThread11qt_metacallENS_11QMetaObject4CallEiPPv@Base 4.9.0
 _ZN5Katie7QThread11qt_metacastEPKc@Base 4.9.0
 _ZN5Katie7QThread11setPriorityENS0_8PriorityE@Base 4.9.0
 _ZN5Katie7QThread12setStackSizeEj@Base 4.9.0
 _ZN5Katie7QThread13currentThreadEv@Base 4.9.0
 _ZN5Katie7QThread15currentThreadIdEv@Base 4.9.0
 _ZN5Katie7QThread16idealThreadCountEv@Base 4.9.0
 _ZN5Katie7QThread16staticMetaObjectE@Base 4.9.0
 _ZN5Katie7QThread18yieldCurrentThreadEv@Base 4.9.0
 _ZN5Katie7QThread19getStaticMetaObjectEv@Base 4.9.0
 _ZN5Katie7QThread21setTerminationEnabledEb@Base 4.9.0
 _ZN5Katie7QThread3runEv@Base 4.9.0
 _ZN5Katie7QThread4execEv@Base 4.9.0
 _ZN5Katie7QThread4exitEi@Base 4.9.0
 _ZN5Katie7QThread4quitEv@Base 4.9.0
 _ZN5Katie7QThread4waitEm@Base 4.9.0
 _ZN5Katie7QThread5sleepEm@Base 4.9.0
 _ZN5Katie7QThread5startENS0_8PriorityE@Base 4.9.0
 _ZN5Katie7QThread6msleepEm@Base 4.9.0
 _ZN5Katie7QThread6usleepEm@Base 4.9.0
 _ZN5Katie7QThread7startedEv@Base 4.9.0
 _ZN5Katie7QThread8finishedEv@Base 4.9.0
 _ZN5Katie7QThread9terminateEv@Base 4.9.0
 _ZN5Katie7QThreadC1EPNS_7QObjectE@Base 4.9.0
 _ZN5Katie7QThreadC1ERNS_14QThreadPrivateEPNS_7QObjectE@Base 4.9.0
 _ZN5Katie7QThreadC2EPNS_7QObjectE@Base 4.9.0
 _ZN5Katie7QThreadC2ERNS_14QThreadPrivateEPNS_7QObjectE@Base 4.9.0
 _ZN5Katie7QThreadD0Ev@Base 4.9.0
 _ZN5Katie7QThreadD1Ev@Base 4.9.0
 _ZN5Katie7QThreadD2Ev@Base 4.9.0
 _ZN5Katie7qgetenvEPKc@Base 4.9.0
 _ZN5Katie7qputenvEPKcRKNS_10QByteArrayE@Base 4.9.0
 _ZN5Katie7qstrcmpEPKcS1_@Base 4.9.0
 _ZN5Katie7qstrcmpERKNS_10QByteArrayEPKc@Base 4.9.0
 _ZN5Katie7qstrcmpERKNS_10QByteArrayES2_@Base 4.9.0
 _ZN5Katie7qstrcpyEPcPKc@Base 4.9.0
 _ZN5Katie7qstrdupEPKc@Base 4.9.0
 _ZN5Katie8QLibrary11qt_metacallENS_11QMetaObject4CallEiPPv@Base 4.9.0
 _ZN5Katie8QLibrary11qt_metacastEPKc@Base 4.9.0
 _ZN5Katie8QLibrary11setFileNameERKNS_7QStringE@Base 4.9.0
 _ZN5Katie8QLibrary12setLoadHintsENS_6QFlagsINS0_8LoadHintEEE@Base 4.9.0
 _ZN5Katie8QLibrary16staticMetaObjectE@Base 4.9.0
 _ZN5Katie8QLibrary19getStaticMetaObjectEv@Base 4.9.0
 _ZN5Katie8QLibrary21setFileNameAndVersionERKNS_7QStringES3_@Base 4.9.0
 _ZN5Katie8QLibrary21setFileNameAndVersionERKNS_7QStringEi@Base 4.9.0
 _ZN5Katie8QLibrary4loadEv@Base 4.9.0
 _ZN5Katie8QLibrary6unloadEv@Base 4.9.0
 _ZN5Katie8QLibrary7resolveEPKc@Base 4.9.0
 _ZN5Katie8QLibrary7resolveERKNS_7QStringEPKc@Base 4.9.0
 _ZN5Katie8QLibrary7resolveERKNS_7QStringES3_PKc@Base 4.9.0
 _ZN5Katie8QLibrary7resolveERKNS_7QStringEiPKc@Base 4.9.0
 _ZN5Katie8QLibrary9isLibraryERKNS_7QStringE@Base 4.9.0
 _ZN5Katie8QLibraryC1EPNS_7QObjectE@Base 4.9.0
 _ZN5Katie8QLibraryC1ERKNS_7QStringEPNS_7QObjectE@Base 4.9.0
 _ZN5Katie8QLibraryC1ERKNS_7QStringES3_PNS_7QObjectE@Base 4.9.0
 _ZN5Katie8QLibraryC1ERKNS_7QStringEiPNS_7QObjectE@Base 4.9.0
 _ZN5Katie8QLibraryC2EPNS_7QObjectE@Base 4.9.0
 _ZN5Katie8QLibraryC2ERKNS_7QStringEPNS_7QObjectE@Base 4.9.0
 _ZN5Katie8QLibraryC2ERKNS_7QStringES3_PNS_7QObjectE@Base 4.9.0
 _ZN5Katie8QLibraryC2ERKNS_7QStringEiPNS_7QObjectE@Base 4.9.0
 _ZN5Katie8QLibraryD0Ev@Base 4.9.0
 _ZN5Katie8QLibraryD1Ev@Base 4.9.0
 _ZN5Katie8QLibraryD2Ev@Base 4.9.0
 _ZN5Katie8QMapData10createDataEv@Base 4.9.0
 _ZN5Katie8QMapData11node_createEPPNS0_4NodeEi@Base 4.9.0
 _ZN5Katie8QMapData11node_deleteEPPNS0_4NodeEiS2_@Base 4.9.0
 _ZN5Katie8QMapData11shared_nullE@Base 4.9.0
 _ZN5Katie8QMapData16continueFreeDataEi@Base 4.9.0
 _ZN5Katie8QProcess11qt_metacallENS_11QMetaObject4CallEiPPv@Base 4.9.0
 _ZN5Katie8QProcess11qt_metacastEPKc@Base 4.9.0
 _ZN5Katie8QProcess12stateChangedENS0_12ProcessStateE@Base 4.9.0
 _ZN5Katie8QProcess13startDetachedERKNS_7QStringE@Base 4.9.0
 _ZN5Katie8QProcess13startDetachedERKNS_7QStringERKNS_11QStringListE@Base 4.9.0
 _ZN5Katie8QProcess13startDetachedERKNS_7QStringERKNS_11QStringListES3_Px@Base 4.9.0
 _ZN5Katie8QProcess14setEnvironmentERKNS_11QStringListE@Base 4.9.0
 _ZN5Katie8QProcess14setReadChannelENS0_14ProcessChannelE@Base 4.9.0
 _ZN5Katie8QProcess14waitForStartedEi@Base 4.9.0
 _ZN5Katie8QProcess15setProcessStateENS0_12ProcessStateE@Base 4.9.0
 _ZN5Katie8QProcess15waitForFinishedEi@Base 4.9.0
 _ZN5Katie8QProcess16closeReadChannelENS0_14ProcessChannelE@Base 4.9.0
 _ZN5Katie8QProcess16staticMetaObjectE@Base 4.9.0
 _ZN5Katie8QProcess16waitForReadyReadEi@Base 4.9.0
 _ZN5Katie8QProcess17closeWriteChannelEv@Base 4.9.0
 _ZN5Katie8QProcess17setupChildProcessEv@Base 4.9.0
 _ZN5Katie8QProcess17systemEnvironmentEv@Base 4.9.0
 _ZN5Katie8QProcess19getStaticMetaObjectEv@Base 4.9.0
 _ZN5Katie8QProcess19setWorkingDirectoryERKNS_7QStringE@Base 4.9.0
 _ZN5Katie8QProcess19waitForBytesWrittenEi@Base 4.9.0
 _ZN5Katie8QProcess20readAllStandardErrorEv@Base 4.9.0
 _ZN5Katie8QProcess20setStandardErrorFileERKNS_7QStringENS_6QFlagsINS_9QIODevice12OpenModeFlagEEE@Base 4.9.0
 _ZN5Katie8QProcess20setStandardInputFileERKNS_7QStringE@Base 4.9.0
 _ZN5Katie8QProcess21readAllStandardOutputEv@Base 4.9.0
 _ZN5Katie8QProcess21setProcessChannelModeENS0_18ProcessChannelModeE@Base 4.9.0
 _ZN5Katie8QProcess21setProcessEnvironmentERKNS_19QProcessEnvironmentE@Base 4.9.0
 _ZN5Katie8QProcess21setStandardOutputFileERKNS_7QStringENS_6QFlagsINS_9QIODevice12OpenModeFlagEEE@Base 4.9.0
 _ZN5Katie8QProcess22readyReadStandardErrorEv@Base 4.9.0
 _ZN5Katie8QProcess23readyReadStandardOutputEv@Base 4.9.0
 _ZN5Katie8QProcess24setStandardOutputProcessEPS0_@Base 4.9.0
 _ZN5Katie8QProcess4killEv@Base 4.9.0
 _ZN5Katie8QProcess5closeEv@Base 4.9.0
 _ZN5Katie8QProcess5errorENS0_12ProcessErrorE@Base 4.9.0
 _ZN5Katie8QProcess5startERKNS_7QStringENS_6QFlagsINS_9QIODevice12OpenModeFlagEEE@Base 4.9.0
 _ZN5Katie8QProcess5startERKNS_7QStringERKNS_11QStringListENS_6QFlagsINS_9QIODevice12OpenModeFlagEEE@Base 4.9.0
 _ZN5Katie8QProcess7executeERKNS_7QStringE@Base 4.9.0
 _ZN5Katie8QProcess7executeERKNS_7QStringERKNS_11QStringListE@Base 4.9.0
 _ZN5Katie8QProcess7startedEv@Base 4.9.0
 _ZN5Katie8QProcess8finishedEi@Base 4.9.0
 _ZN5Katie8QProcess8finishedEiNS0_10ExitStatusE@Base 4.9.0
 _ZN5Katie8QProcess8readDataEPcx@Base 4.9.0
 _ZN5Katie8QProcess9terminateEv@Base 4.9.0
 _ZN5Katie8QProcess9writeDataEPKcx@Base 4.9.0
 _ZN5Katie8QProcessC1EPNS_7QObjectE@Base 4.9.0
 _ZN5Katie8QProcessC2EPNS_7QObjectE@Base 4.9.0
 _ZN5Katie8QProcessD0Ev@Base 4.9.0
 _ZN5Katie8QProcessD1Ev@Base 4.9.0
 _ZN5Katie8QProcessD2Ev@Base 4.9.0
 _ZN5Katie8QVariant10nameToTypeEPKc@Base 4.9.0
 _ZN5Katie8QVariant10typeToNameENS0_4TypeE@Base 4.9.0
 _ZN5Katie8QVariant4dataEv@Base 4.9.0
 _ZN5Katie8QVariant4loadERNS_11QDataStreamE@Base 4.9.0
 _ZN5Katie8QVariant5clearEv@Base 4.9.0
 _ZN5Katie8QVariant6createEiPKv@Base 4.9.0
 _ZN5Katie8QVariant6detachEv@Base 4.9.0
 _ZN5Katie8QVariant7convertENS0_4TypeE@Base 4.9.0
 _ZN5Katie8QVariant7handlerE@Base 4.9.0
 _ZN5Katie8QVariantC1ENS0_4TypeE@Base 4.9.0
 _ZN5Katie8QVariantC1EPKc@Base 4.9.0
 _ZN5Katie8QVariantC1ERKNS_10QByteArrayE@Base 4.9.0
 _ZN5Katie8QVariantC1ERKNS_10QJsonArrayE@Base 4.9.0
 _ZN5Katie8QVariantC1ERKNS_10QJsonValueE@Base 4.9.0
 _ZN5Katie8QVariantC1ERKNS_11QJsonObjectE@Base 4.9.0
 _ZN5Katie8QVariantC1ERKNS_11QStringListE@Base 4.9.0
 _ZN5Katie8QVariantC1ERKNS_12QEasingCurveE@Base 4.9.0
 _ZN5Katie8QVariantC1ERKNS_13QJsonDocumentE@Base 4.9.0
 _ZN5Katie8QVariantC1ERKNS_13QLatin1StringE@Base 4.9.0
 _ZN5Katie8QVariantC1ERKNS_4QMapINS_7QStringES0_EE@Base 4.9.0
 _ZN5Katie8QVariantC1ERKNS_4QUrlE@Base 4.9.0
 _ZN5Katie8QVariantC1ERKNS_5QCharE@Base 4.9.0
 _ZN5Katie8QVariantC1ERKNS_5QDateE@Base 4.9.0
 _ZN5Katie8QVariantC1ERKNS_5QHashINS_7QStringES0_EE@Base 4.9.0
 _ZN5Katie8QVariantC1ERKNS_5QLineE@Base 4.9.0
 _ZN5Katie8QVariantC1ERKNS_5QListIS0_EE@Base 4.9.0
 _ZN5Katie8QVariantC1ERKNS_5QRectE@Base 4.9.0
 _ZN5Katie8QVariantC1ERKNS_5QSizeE@Base 4.9.0
 _ZN5Katie8QVariantC1ERKNS_5QTimeE@Base 4.9.0
 _ZN5Katie8QVariantC1ERKNS_6QLineFE@Base 4.9.0
 _ZN5Katie8QVariantC1ERKNS_6QPointE@Base 4.9.0
 _ZN5Katie8QVariantC1ERKNS_6QRectFE@Base 4.9.0
 _ZN5Katie8QVariantC1ERKNS_6QSizeFE@Base 4.9.0
 _ZN5Katie8QVariantC1ERKNS_7QLocaleE@Base 4.9.0
 _ZN5Katie8QVariantC1ERKNS_7QPointFE@Base 4.9.0
 _ZN5Katie8QVariantC1ERKNS_7QRegExpE@Base 4.9.0
 _ZN5Katie8QVariantC1ERKNS_7QStringE@Base 4.9.0
 _ZN5Katie8QVariantC1ERKNS_9QBitArrayE@Base 4.9.0
 _ZN5Katie8QVariantC1ERKNS_9QDateTimeE@Base 4.9.0
 _ZN5Katie8QVariantC1ERKS0_@Base 4.9.0
 _ZN5Katie8QVariantC1ERNS_11QDataStreamE@Base 4.9.0
 _ZN5Katie8QVariantC1Eb@Base 4.9.0
 _ZN5Katie8QVariantC1Ed@Base 4.9.0
 _ZN5Katie8QVariantC1Ef@Base 4.9.0
 _ZN5Katie8QVariantC1Ei@Base 4.9.0
 _ZN5Katie8QVariantC1EiPKv@Base 4.9.0
 _ZN5Katie8QVariantC1EiPKvj@Base 4.9.0
 _ZN5Katie8QVariantC1Ej@Base 4.9.0
 _ZN5Katie8QVariantC1Ex@Base 4.9.0
 _ZN5Katie8QVariantC1Ey@Base 4.9.0
 _ZN5Katie8QVariantC2ENS0_4TypeE@Base 4.9.0
 _ZN5Katie8QVariantC2EPKc@Base 4.9.0
 _ZN5Katie8QVariantC2ERKNS_10QByteArrayE@Base 4.9.0
 _ZN5Katie8QVariantC2ERKNS_10QJsonArrayE@Base 4.9.0
 _ZN5Katie8QVariantC2ERKNS_10QJsonValueE@Base 4.9.0
 _ZN5Katie8QVariantC2ERKNS_11QJsonObjectE@Base 4.9.0
 _ZN5Katie8QVariantC2ERKNS_11QStringListE@Base 4.9.0
 _ZN5Katie8QVariantC2ERKNS_12QEasingCurveE@Base 4.9.0
 _ZN5Katie8QVariantC2ERKNS_13QJsonDocumentE@Base 4.9.0
 _ZN5Katie8QVariantC2ERKNS_13QLatin1StringE@Base 4.9.0
 _ZN5Katie8QVariantC2ERKNS_4QMapINS_7QStringES0_EE@Base 4.9.0
 _ZN5Katie8QVariantC2ERKNS_4QUrlE@Base 4.9.0
 _ZN5Katie8QVariantC2ERKNS_5QCharE@Base 4.9.0
 _ZN5Katie8QVariantC2ERKNS_5QDateE@Base 4.9.0
 _ZN5Katie8QVariantC2ERKNS_5QHashINS_7QStringES0_EE@Base 4.9.0
 _ZN5Katie8QVariantC2ERKNS_5QLineE@Base 4.9.0
 _ZN5Katie8QVariantC2ERKNS_5QListIS0_EE@Base 4.9.0
 _ZN5Katie8QVariantC2ERKNS_5QRectE@Base 4.9.0
 _ZN5Katie8QVariantC2ERKNS_5QSizeE@Base 4.9.0
 _ZN5Katie8QVariantC2ERKNS_5QTimeE@Base 4.9.0
 _ZN5Katie8QVariantC2ERKNS_6QLineFE@Base 4.9.0
 _ZN5Katie8QVariantC2ERKNS_6QPointE@Base 4.9.0
 _ZN5Katie8QVariantC2ERKNS_6QRectFE@Base 4.9.0
 _ZN5Katie8QVariantC2ERKNS_6QSizeFE@Base 4.9.0
 _ZN5Katie8QVariantC2ERKNS_7QLocaleE@Base 4.9.0
 _ZN5Katie8QVariantC2ERKNS_7QPointFE@Base 4.9.0
 _ZN5Katie8QVariantC2ERKNS_7QRegExpE@Base 4.9.0
 _ZN5Katie8QVariantC2ERKNS_7QStringE@Base 4.9.0
 _ZN5Katie8QVariantC2ERKNS_9QBitArrayE@Base 4.9.0
 _ZN5Katie8QVariantC2ERKNS_9QDateTimeE@Base 4.9.0
 _ZN5Katie8QVariantC2ERKS0_@Base 4.9.0
 _ZN5Katie8QVariantC2ERNS_11QDataStreamE@Base 4.9.0
 _ZN5Katie8QVariantC2Eb@Base 4.9.0
 _ZN5Katie8QVariantC2Ed@Base 4.9.0
 _ZN5Katie8QVariantC2Ef@Base 4.9.0
 _ZN5Katie8QVariantC2Ei@Base 4.9.0
 _ZN5Katie8QVariantC2EiPKv@Base 4.9.0
 _ZN5Katie8QVariantC2EiPKvj@Base 4.9.0
 _ZN5Katie8QVariantC2Ej@Base 4.9.0
 _ZN5Katie8QVariantC2Ex@Base 4.9.0
 _ZN5Katie8QVariantC2Ey@Base 4.9.0
 _ZN5Katie8QVariantD1Ev@Base 4.9.0
 _ZN5Katie8QVariantD2Ev@Base 4.9.0
 _ZN5Katie8QVariantaSERKS0_@Base 4.9.0
 _ZN5Katie8qVersionEv@Base 4.9.0
 _ZN5Katie8qWarningEPKcz@Base 4.9.0
 _ZN5Katie8qstricmpEPKcS1_@Base 4.9.0
 _ZN5Katie8qstrncpyEPcPKcj@Base 4.9.0
 _ZN5Katie8showbaseERNS_11QTextStreamE@Base 4.9.0
 _ZN5Katie9QBitArray4fillEbii@Base 4.9.0
 _ZN5Katie9QBitArray6resizeEi@Base 4.9.0
 _ZN5Katie9QBitArrayC1Eib@Base 4.9.0
 _ZN5Katie9QBitArrayC2Eib@Base 4.9.0
 _ZN5Katie9QBitArrayaNERKS0_@Base 4.9.0
 _ZN5Katie9QBitArrayeOERKS0_@Base 4.9.0
 _ZN5Katie9QBitArrayoRERKS0_@Base 4.9.0
 _ZN5Katie9QDateTime10fromStringERKNS_7QStringENS_2Qt10DateFormatE@Base 4.9.0
 _ZN5Katie9QDateTime10fromStringERKNS_7QStringES3_@Base 4.9.0
 _ZN5Katie9QDateTime10fromTime_tEj@Base 4.9.0
 _ZN5Katie9QDateTime11setTimeSpecENS_2Qt8TimeSpecE@Base 4.9.0
 _ZN5Katie9QDateTime12setUtcOffsetEi@Base 4.9.0
 _ZN5Katie9QDateTime15currentDateTimeEv@Base 4.9.0
 _ZN5Katie9QDateTime18currentDateTimeUtcEv@Base 4.9.0
 _ZN5Katie9QDateTime18setMSecsSinceEpochEx@Base 4.9.0
 _ZN5Katie9QDateTime19fromMSecsSinceEpochEx@Base 4.9.0
 _ZN5Katie9QDateTime22currentMSecsSinceEpochEv@Base 4.9.0
 _ZN5Katie9QDateTime6detachEv@Base 4.9.0
 _ZN5Katie9QDateTime7setDateERKNS_5QDateE@Base 4.9.0
 _ZN5Katie9QDateTime7setTimeERKNS_5QTimeE@Base 4.9.0
 _ZN5Katie9QDateTime9setTime_tEj@Base 4.9.0
 _ZN5Katie9QDateTimeC1ERKNS_5QDateE@Base 4.9.0
 _ZN5Katie9QDateTimeC1ERKNS_5QDateERKNS_5QTimeENS_2Qt8TimeSpecE@Base 4.9.0
 _ZN5Katie9QDateTimeC1ERKS0_@Base 4.9.0
 _ZN5Katie9QDateTimeC1Ev@Base 4.9.0
 _ZN5Katie9QDateTimeC2ERKNS_5QDateE@Base 4.9.0
 _ZN5Katie9QDateTimeC2ERKNS_5QDateERKNS_5QTimeENS_2Qt8TimeSpecE@Base 4.9.0
 _ZN5Katie9QDateTimeC2ERKS0_@Base 4.9.0
 _ZN5Katie9QDateTimeC2Ev@Base 4.9.0
 _ZN5Katie9QDateTimeD1Ev@Base 4.9.0
 _ZN5Katie9QDateTimeD2Ev@Base 4.9.0
 _ZN5Katie9QDateTimeaSERKS0_@Base 4.9.0
 _ZN5Katie9QFileInfo10setCachingEb@Base 4.9.0
 _ZN5Katie9QFileInfo12makeAbsoluteEv@Base 4.9.0
 _ZN5Katie9QFileInfo6d_funcEv@Base 4.9.0
 _ZN5Katie9QFileInfo7refreshEv@Base 4.9.0
 _ZN5Katie9QFileInfo7setFileERKNS_4QDirERKNS_7QStringE@Base 4.9.0
 _ZN5Katie9QFileInfo7setFileERKNS_5QFileE@Base 4.9.0
 _ZN5Katie9QFileInfo7setFileERKNS_7QStringE@Base 4.9.0
 _ZN5Katie9QFileInfoC1EPNS_16QFileInfoPrivateE@Base 4.9.0
 _ZN5Katie9QFileInfoC1ERKNS_4QDirERKNS_7QStringE@Base 4.9.0
 _ZN5Katie9QFileInfoC1ERKNS_5QFileE@Base 4.9.0
 _ZN5Katie9QFileInfoC1ERKNS_7QStringE@Base 4.9.0
 _ZN5Katie9QFileInfoC1ERKS0_@Base 4.9.0
 _ZN5Katie9QFileInfoC1Ev@Base 4.9.0
 _ZN5Katie9QFileInfoC2EPNS_16QFileInfoPrivateE@Base 4.9.0
 _ZN5Katie9QFileInfoC2ERKNS_4QDirERKNS_7QStringE@Base 4.9.0
 _ZN5Katie9QFileInfoC2ERKNS_5QFileE@Base 4.9.0
 _ZN5Katie9QFileInfoC2ERKNS_7QStringE@Base 4.9.0
 _ZN5Katie9QFileInfoC2ERKS0_@Base 4.9.0
 _ZN5Katie9QFileInfoC2Ev@Base 4.9.0
 _ZN5Katie9QFileInfoD1Ev@Base 4.9.0
 _ZN5Katie9QFileInfoD2Ev@Base 4.9.0
 _ZN5Katie9QFileInfoaSERKS0_@Base 4.9.0
 _ZN5Katie9QHashData11free_helperEPFvPNS0_4NodeEE@Base 4.9.0
 _ZN5Katie9QHashData11shared_nullE@Base 4.9.0
 _ZN5Katie9QHashData12previousNodeEPNS0_4NodeE@Base 4.9.0
 _ZN5Katie9QHashData13detach_helperEPFvPNS0_4NodeEPvEPFvS2_Ei@Base 4.9.0
 _ZN5Katie9QHashData6rehashEi@Base 4.9.0
 _ZN5Katie9QHashData8nextNodeEPNS0_4NodeE@Base 4.9.0
 _ZN5Katie9QIODevice11qt_metacallENS_11QMetaObject4CallEiPPv@Base 4.9.0
 _ZN5Katie9QIODevice11qt_metacastEPKc@Base 4.9.0
 _ZN5Katie9QIODevice11setOpenModeENS_6QFlagsINS0_12OpenModeFlagEEE@Base 4.9.0
 _ZN5Katie9QIODevice12aboutToCloseEv@Base 4.9.0
 _ZN5Katie9QIODevice12bytesWrittenEx@Base 4.9.0
 _ZN5Katie9QIODevice12readLineDataEPcx@Base 4.9.0
 _ZN5Katie9QIODevice14setErrorStringERKNS_7QStringE@Base 4.9.0
 _ZN5Katie9QIODevice16staticMetaObjectE@Base 4.9.0
 _ZN5Katie9QIODevice16waitForReadyReadEi@Base 4.9.0
 _ZN5Katie9QIODevice18setTextModeEnabledEb@Base 4.9.0
 _ZN5Katie9QIODevice19getStaticMetaObjectEv@Base 4.9.0
 _ZN5Katie9QIODevice19readChannelFinishedEv@Base 4.9.0
 _ZN5Katie9QIODevice19waitForBytesWrittenEi@Base 4.9.0
 _ZN5Katie9QIODevice4openENS_6QFlagsINS0_12OpenModeFlagEEE@Base 4.9.0
 _ZN5Katie9QIODevice4peekEPcx@Base 4.9.0
 _ZN5Katie9QIODevice4peekEx@Base 4.9.0
 _ZN5Katie9QIODevice4readEPcx@Base 4.9.0
 _ZN5Katie9QIODevice4readEx@Base 4.9.0
 _ZN5Katie9QIODevice4seekEx@Base 4.9.0
 _ZN5Katie9QIODevice5closeEv@Base 4.9.0
 _ZN5Katie9QIODevice5resetEv@Base 4.9.0
 _ZN5Katie9QIODevice5writeEPKc@Base 4.9.0
 _ZN5Katie9QIODevice5writeEPKcx@Base 4.9.0
 _ZN5Katie9QIODevice7getCharEPc@Base 4.9.0
 _ZN5Katie9QIODevice7putCharEc@Base 4.9.0
 _ZN5Katie9QIODevice7readAllEv@Base 4.9.0
 _ZN5Katie9QIODevice8readLineEPcx@Base 4.9.0
 _ZN5Katie9QIODevice8readLineEx@Base 4.9.0
 _ZN5Katie9QIODevice9readyReadEv@Base 4.9.0
 _ZN5Katie9QIODevice9ungetCharEc@Base 4.9.0
 _ZN5Katie9QIODeviceC1EPNS_7QObjectE@Base 4.9.0
 _ZN5Katie9QIODeviceC1ERNS_16QIODevicePrivateEPNS_7QObjectE@Base 4.9.0
 _ZN5Katie9QIODeviceC1Ev@Base 4.9.0
 _ZN5Katie9QIODeviceC2EPNS_7QObjectE@Base 4.9.0
 _ZN5Katie9QIODeviceC2ERNS_16QIODevicePrivateEPNS_7QObjectE@Base 4.9.0
 _ZN5Katie9QIODeviceC2Ev@Base 4.9.0
 _ZN5Katie9QIODeviceD0Ev@Base 4.9.0
 _ZN5Katie9QIODeviceD1Ev@Base 4.9.0
 _ZN5Katie9QIODeviceD2Ev@Base 4.9.0
 _ZN5Katie9QInternal16registerCallbackENS0_8CallbackEPFbPPvE@Base 4.9.0
 _ZN5Katie9QInternal17activateCallbacksENS0_8CallbackEPPv@Base 4.9.0
 _ZN5Katie9QInternal18unregisterCallbackENS0_8CallbackEPFbPPvE@Base 4.9.0
 _ZN5Katie9QListData11detach_growEPii@Base 4.9.0
 _ZN5Katie9QListData11reallocDataEi@Base 4.9.0
 _ZN5Katie9QListData11shared_nullE@Base 4.9.0
 _ZN5Katie9QListData4moveEii@Base 4.9.0
 _ZN5Katie9QListData5eraseEPPv@Base 4.9.0
 _ZN5Katie9QListData6appendERKS0_@Base 4.9.0
 _ZN5Katie9QListData6appendEi@Base 4.9.0
 _ZN5Katie9QListData6appendEv@Base 4.9.0
 _ZN5Katie9QListData6detachEi@Base 4.9.0
 _ZN5Katie9QListData6insertEi@Base 4.9.0
 _ZN5Katie9QListData6removeEi@Base 4.9.0
 _ZN5Katie9QListData6removeEii@Base 4.9.0
 _ZN5Katie9QListData7prependEv@Base 4.9.0
 _ZN5Katie9QListData8freeDataEPNS0_4DataE@Base 4.9.0
 _ZN5Katie9QMetaType12isRegisteredEi@Base 4.9.0
 _ZN5Katie9QMetaType12registerTypeEPKcPFvPvEPFS3_PKvE@Base 4.9.0
 _ZN5Katie9QMetaType14unregisterTypeEPKc@Base 4.9.0
 _ZN5Katie9QMetaType15registerTypedefEPKci@Base 4.9.0
 _ZN5Katie9QMetaType23registerStreamOperatorsEPKcPFvRNS_11QDataStreamEPKvEPFvS4_PvE@Base 4.9.0
 _ZN5Katie9QMetaType23registerStreamOperatorsEiPFvRNS_11QDataStreamEPKvEPFvS2_PvE@Base 4.9.0
 _ZN5Katie9QMetaType4loadERNS_11QDataStreamEiPv@Base 4.9.0
 _ZN5Katie9QMetaType4saveERNS_11QDataStreamEiPKv@Base 4.9.0
 _ZN5Katie9QMetaType4typeEPKc@Base 4.9.0
 _ZN5Katie9QMetaType7destroyEiPv@Base 4.9.0
 _ZN5Katie9QMetaType8typeNameEi@Base 4.9.0
 _ZN5Katie9QMetaType9constructEiPKv@Base 4.9.0
 _ZN5Katie9QMimeData11qt_metacallENS_11QMetaObject4CallEiPPv@Base 4.9.0
 _ZN5Katie9QMimeData11qt_metacastEPKc@Base 4.9.0
 _ZN5Katie9QMimeData12removeFormatERKNS_7QStringE@Base 4.9.0
 _ZN5Katie9QMimeData12setColorDataERKNS_8QVariantE@Base 4.9.0
 _ZN5Katie9QMimeData12setImageDataERKNS_8QVariantE@Base 4.9.0
 _ZN5Katie9QMimeData16staticMetaObjectE@Base 4.9.0
 _ZN5Katie9QMimeData19getStaticMetaObjectEv@Base 4.9.0
 _ZN5Katie9QMimeData5clearEv@Base 4.9.0
 _ZN5Katie9QMimeData7setDataERKNS_7QStringERKNS_10QByteArrayE@Base 4.9.0
 _ZN5Katie9QMimeData7setHtmlERKNS_7QStringE@Base 4.9.0
 _ZN5Katie9QMimeData7setTextERKNS_7QStringE@Base 4.9.0
 _ZN5Katie9QMimeData7setUrlsERKNS_5QListINS_4QUrlEEE@Base 4.9.0
 _ZN5Katie9QMimeDataC1Ev@Base 4.9.0
 _ZN5Katie9QMimeDataC2Ev@Base 4.9.0
 _ZN5Katie9QMimeDataD0Ev@Base 4.9.0
 _ZN5Katie9QMimeDataD1Ev@Base 4.9.0
 _ZN5Katie9QMimeDataD2Ev@Base 4.9.0
 _ZN5Katie9QResource11searchPathsEv@Base 4.9.0
 _ZN5Katie9QResource11setFileNameERKNS_7QStringE@Base 4.9.0
 _ZN5Katie9QResource13addSearchPathERKNS_7QStringE@Base 4.9.0
 _ZN5Katie9QResource16registerResourceEPKhRKNS_7QStringE@Base 4.9.0
 _ZN5Katie9QResource16registerResourceERKNS_7QStringES3_@Base 4.9.0
 _ZN5Katie9QResource18unregisterResourceEPKhRKNS_7QStringE@Base 4.9.0
 _ZN5Katie9QResource18unregisterResourceERKNS_7QStringES3_@Base 4.9.0
 _ZN5Katie9QResource9setLocaleERKNS_7QLocaleE@Base 4.9.0
 _ZN5Katie9QResourceC1ERKNS_7QStringERKNS_7QLocaleE@Base 4.9.0
 _ZN5Katie9QResourceC2ERKNS_7QStringERKNS_7QLocaleE@Base 4.9.0
 _ZN5Katie9QResourceD1Ev@Base 4.9.0
 _ZN5Katie9QResourceD2Ev@Base 4.9.0
 _ZN5Katie9QSettings10beginGroupERKNS_7QStringE@Base 4.9.0
 _ZN5Katie9QSettings11qt_metacallENS_11QMetaObject4CallEiPPv@Base 4.9.0
 _ZN5Katie9QSettings11qt_metacastEPKc@Base 4.9.0
 _ZN5Katie9QSettings11setIniCodecEPKc@Base 4.9.0
 _ZN5Katie9QSettings11setIniCodecEPNS_10QTextCodecE@Base 4.9.0
 _ZN5Katie9QSettings13defaultFormatEv@Base 4.9.0
 _ZN5Katie9QSettings13setArrayIndexEi@Base 4.9.0
 _ZN5Katie9QSettings14beginReadArrayERKNS_7QStringE@Base 4.9.0
 _ZN5Katie9QSettings14registerFormatERKNS_7QStringEPFbRNS_9QIODeviceERNS_4QMapIS1_NS_8QVariantEEEEPFbS5_RKS8_ENS_2Qt15CaseSensitivityE@Base 4.9.0
 _ZN5Katie9QSettings14setUserIniPathERKNS_7QStringE@Base 4.9.0
 _ZN5Katie9QSettings15beginWriteArrayERKNS_7QStringEi@Base 4.9.0
 _ZN5Katie9QSettings16setDefaultFormatENS0_6FormatE@Base 4.9.0
 _ZN5Katie9QSettings16setSystemIniPathERKNS_7QStringE@Base 4.9.0
 _ZN5Katie9QSettings16staticMetaObjectE@Base 4.9.0
 _ZN5Katie9QSettings19getStaticMetaObjectEv@Base 4.9.0
 _ZN5Katie9QSettings19setFallbacksEnabledEb@Base 4.9.0
 _ZN5Katie9QSettings4syncEv@Base 4.9.0
 _ZN5Katie9QSettings5clearEv@Base 4.9.0
 _ZN5Katie9QSettings5eventEPNS_6QEventE@Base 4.9.0
 _ZN5Katie9QSettings6removeERKNS_7QStringE@Base 4.9.0
 _ZN5Katie9QSettings7setPathENS0_6FormatENS0_5ScopeERKNS_7QStringE@Base 4.9.0
 _ZN5Katie9QSettings8endArrayEv@Base 4.9.0
 _ZN5Katie9QSettings8endGroupEv@Base 4.9.0
 _ZN5Katie9QSettings8setValueERKNS_7QStringERKNS_8QVariantE@Base 4.9.0
 _ZN5Katie9QSettingsC1ENS0_5ScopeERKNS_7QStringES4_PNS_7QObjectE@Base 4.9.0
 _ZN5Katie9QSettingsC1ENS0_6FormatENS0_5ScopeERKNS_7QStringES5_PNS_7QObjectE@Base 4.9.0
 _ZN5Katie9QSettingsC1EPNS_7QObjectE@Base 4.9.0
 _ZN5Katie9QSettingsC1ERKNS_7QStringENS0_6FormatEPNS_7QObjectE@Base 4.9.0
 _ZN5Katie9QSettingsC1ERKNS_7QStringES3_PNS_7QObjectE@Base 4.9.0
 _ZN5Katie9QSettingsC2ENS0_5ScopeERKNS_7QStringES4_PNS_7QObjectE@Base 4.9.0
 _ZN5Katie9QSettingsC2ENS0_6FormatENS0_5ScopeERKNS_7QStringES5_PNS_7QObjectE@Base 4.9.0
 _ZN5Katie9QSettingsC2EPNS_7QObjectE@Base 4.9.0
 _ZN5Katie9QSettingsC2ERKNS_7QStringENS0_6FormatEPNS_7QObjectE@Base 4.9.0
 _ZN5Katie9QSettingsC2ERKNS_7QStringES3_PNS_7QObjectE@Base 4.9.0
 _ZN5Katie9QSettingsD0Ev@Base 4.9.0
 _ZN5Katie9QSettingsD1Ev@Base 4.9.0
 _ZN5Katie9QSettingsD2Ev@Base 4.9.0
 _ZN5Katie9QTimeLine10timerEventEPNS_11QTimerEventE@Base 4.9.0
 _ZN5Katie9QTimeLine11qt_metacallENS_11QMetaObject4CallEiPPv@Base 4.9.0
 _ZN5Katie9QTimeLine11qt_metacastEPKc@Base 4.9.0
 _ZN5Katie9QTimeLine11setDurationEi@Base 4.9.0
 _ZN5Katie9QTimeLine11setEndFrameEi@Base 4.9.0
 _ZN5Katie9QTimeLine12frameChangedEi@Base 4.9.0
 _ZN5Katie9QTimeLine12setDirectionENS0_9DirectionE@Base 4.9.0
 _ZN5Katie9QTimeLine12setLoopCountEi@Base 4.9.0
 _ZN5Katie9QTimeLine12stateChangedENS0_5StateE@Base 4.9.0
 _ZN5Katie9QTimeLine12valueChangedEd@Base 4.9.0
 _ZN5Katie9QTimeLine13setCurveShapeENS0_10CurveShapeE@Base 4.9.0
 _ZN5Katie9QTimeLine13setFrameRangeEii@Base 4.9.0
 _ZN5Katie9QTimeLine13setStartFrameEi@Base 4.9.0
 _ZN5Katie9QTimeLine14setCurrentTimeEi@Base 4.9.0
 _ZN5Katie9QTimeLine14setEasingCurveERKNS_12QEasingCurveE@Base 4.9.0
 _ZN5Katie9QTimeLine15toggleDirectionEv@Base 4.9.0
 _ZN5Katie9QTimeLine16staticMetaObjectE@Base 4.9.0
 _ZN5Katie9QTimeLine17setUpdateIntervalEi@Base 4.9.0
 _ZN5Katie9QTimeLine19getStaticMetaObjectEv@Base 4.9.0
 _ZN5Katie9QTimeLine4stopEv@Base 4.9.0
 _ZN5Katie9QTimeLine5startEv@Base 4.9.0
 _ZN5Katie9QTimeLine6resumeEv@Base 4.9.0
 _ZN5Katie9QTimeLine8finishedEv@Base 4.9.0
 _ZN5Katie9QTimeLine9setPausedEb@Base 4.9.0
 _ZN5Katie9QTimeLineC1EiPNS_7QObjectE@Base 4.9.0
 _ZN5Katie9QTimeLineC2EiPNS_7QObjectE@Base 4.9.0
 _ZN5Katie9QTimeLineD0Ev@Base 4.9.0
 _ZN5Katie9QTimeLineD1Ev@Base 4.9.0
 _ZN5Katie9QTimeLineD2Ev@Base 4.9.0
 _ZN5Katie9forcesignERNS_11QTextStreamE@Base 4.9.0
 _ZN5Katie9qBadAllocEv@Base 4.9.0
 _ZN5Katie9qChecksumEPKcj@Base 4.9.0
 _ZN5Katie9qCompressEPKhii@Base 4.9.0
 _ZN5Katie9qCriticalEPKcz@Base 4.9.0
 _ZN5Katie9qsnprintfEPcjPKcz@Base 4.9.0
 _ZN5Katie9qstrnicmpEPKcS1_j@Base 4.9.0
 _ZN5Katie9qt_assertEPKcS1_i@Base 4.9.0
 _ZN5KatieanERKNS_9QBitArrayES2_@Base 4.9.0
 _ZN5KatieeoERKNS_9QBitArrayES2_@Base 4.9.0
 _ZN5KatieeqERKNS_10QStringRefES2_@Base 4.9.0
 _ZN5KatieeqERKNS_13QLatin1StringERKNS_10QStringRefE@Base 4.9.0
 _ZN5KatieeqERKNS_15QDateTimeParser11SectionNodeES3_@Base 4.9.0
 _ZN5KatieeqERKNS_7QStringERKNS_10QStringRefE@Base 4.9.0
 _ZN5KatielsENS_6QDebugENS_6QFlagsINS_4QDir6FilterEEE@Base 4.9.0
 _ZN5KatielsENS_6QDebugENS_6QFlagsINS_9QIODevice12OpenModeFlagEEE@Base 4.9.0
 _ZN5KatielsENS_6QDebugENS_8QVariant4TypeE@Base 4.9.0
 _ZN5KatielsENS_6QDebugEPKNS_7QObjectE@Base 4.9.0
 _ZN5KatielsENS_6QDebugERKNS_10QJsonArrayE@Base 4.9.0
 _ZN5KatielsENS_6QDebugERKNS_10QJsonValueE@Base 4.9.0
 _ZN5KatielsENS_6QDebugERKNS_11QJsonObjectE@Base 4.9.0
 _ZN5KatielsENS_6QDebugERKNS_11QModelIndexE@Base 4.9.0
 _ZN5KatielsENS_6QDebugERKNS_12QEasingCurveE@Base 4.9.0
 _ZN5KatielsENS_6QDebugERKNS_13QJsonDocumentE@Base 4.9.0
 _ZN5KatielsENS_6QDebugERKNS_21QPersistentModelIndexE@Base 4.9.0
 _ZN5KatielsENS_6QDebugERKNS_4QDirE@Base 4.9.0
 _ZN5KatielsENS_6QDebugERKNS_4QUrlE@Base 4.9.0
 _ZN5KatielsENS_6QDebugERKNS_5QDateE@Base 4.9.0
 _ZN5KatielsENS_6QDebugERKNS_5QLineE@Base 4.9.0
 _ZN5KatielsENS_6QDebugERKNS_5QRectE@Base 4.9.0
 _ZN5KatielsENS_6QDebugERKNS_5QSizeE@Base 4.9.0
 _ZN5KatielsENS_6QDebugERKNS_5QTimeE@Base 4.9.0
 _ZN5KatielsENS_6QDebugERKNS_6QLineFE@Base 4.9.0
 _ZN5KatielsENS_6QDebugERKNS_6QPointE@Base 4.9.0
 _ZN5KatielsENS_6QDebugERKNS_6QRectFE@Base 4.9.0
 _ZN5KatielsENS_6QDebugERKNS_6QSizeFE@Base 4.9.0
 _ZN5KatielsENS_6QDebugERKNS_7QPointFE@Base 4.9.0
 _ZN5KatielsENS_6QDebugERKNS_8QMarginsE@Base 4.9.0
 _ZN5KatielsENS_6QDebugERKNS_8QVariantE@Base 4.9.0
 _ZN5KatielsENS_6QDebugERKNS_9QDateTimeE@Base 4.9.0
 _ZN5KatielsERNS_11QDataStreamENS_8QVariant4TypeE@Base 4.9.0
 _ZN5KatielsERNS_11QDataStreamERKNS_10QByteArrayE@Base 4.9.0
 _ZN5KatielsERNS_11QDataStreamERKNS_12QEasingCurveE@Base 4.9.0
 _ZN5KatielsERNS_11QDataStreamERKNS_4QUrlE@Base 4.9.0
 _ZN5KatielsERNS_11QDataStreamERKNS_5QCharE@Base 4.9.0
 _ZN5KatielsERNS_11QDataStreamERKNS_5QDateE@Base 4.9.0
 _ZN5KatielsERNS_11QDataStreamERKNS_5QLineE@Base 4.9.0
 _ZN5KatielsERNS_11QDataStreamERKNS_5QRectE@Base 4.9.0
 _ZN5KatielsERNS_11QDataStreamERKNS_5QSizeE@Base 4.9.0
 _ZN5KatielsERNS_11QDataStreamERKNS_5QTimeE@Base 4.9.0
 _ZN5KatielsERNS_11QDataStreamERKNS_5QUuidE@Base 4.9.0
 _ZN5KatielsERNS_11QDataStreamERKNS_6QLineFE@Base 4.9.0
 _ZN5KatielsERNS_11QDataStreamERKNS_6QPointE@Base 4.9.0
 _ZN5KatielsERNS_11QDataStreamERKNS_6QRectFE@Base 4.9.0
 _ZN5KatielsERNS_11QDataStreamERKNS_6QSizeFE@Base 4.9.0
 _ZN5KatielsERNS_11QDataStreamERKNS_7QLocaleE@Base 4.9.0
 _ZN5KatielsERNS_11QDataStreamERKNS_7QPointFE@Base 4.9.0
 _ZN5KatielsERNS_11QDataStreamERKNS_7QRegExpE@Base 4.9.0
 _ZN5KatielsERNS_11QDataStreamERKNS_7QStringE@Base 4.9.0
 _ZN5KatielsERNS_11QDataStreamERKNS_8QVariantE@Base 4.9.0
 _ZN5KatielsERNS_11QDataStreamERKNS_9QBitArrayE@Base 4.9.0
 _ZN5KatielsERNS_11QDataStreamERKNS_9QDateTimeE@Base 4.9.0
 _ZN5KatieltERKNS_10QStringRefES2_@Base 4.9.0
 _ZN5KatieorERKNS_9QBitArrayES2_@Base 4.9.0
 _ZN5KatiersERNS_11QDataStreamERNS_10QByteArrayE@Base 4.9.0
 _ZN5KatiersERNS_11QDataStreamERNS_12QEasingCurveE@Base 4.9.0
 _ZN5KatiersERNS_11QDataStreamERNS_4QUrlE@Base 4.9.0
 _ZN5KatiersERNS_11QDataStreamERNS_5QCharE@Base 4.9.0
 _ZN5KatiersERNS_11QDataStreamERNS_5QDateE@Base 4.9.0
 _ZN5KatiersERNS_11QDataStreamERNS_5QLineE@Base 4.9.0
 _ZN5KatiersERNS_11QDataStreamERNS_5QRectE@Base 4.9.0
 _ZN5KatiersERNS_11QDataStreamERNS_5QSizeE@Base 4.9.0
 _ZN5KatiersERNS_11QDataStreamERNS_5QTimeE@Base 4.9.0
 _ZN5KatiersERNS_11QDataStreamERNS_5QUuidE@Base 4.9.0
 _ZN5KatiersERNS_11QDataStreamERNS_6QLineFE@Base 4.9.0
 _ZN5KatiersERNS_11QDataStreamERNS_6QPointE@Base 4.9.0
 _ZN5KatiersERNS_11QDataStreamERNS_6QRectFE@Base 4.9.0
 _ZN5KatiersERNS_11QDataStreamERNS_6QSizeFE@Base 4.9.0
 _ZN5KatiersERNS_11QDataStreamERNS_7QLocaleE@Base 4.9.0
 _ZN5KatiersERNS_11QDataStreamERNS_7QPointFE@Base 4.9.0
 _ZN5KatiersERNS_11QDataStreamERNS_7QRegExpE@Base 4.9.0
 _ZN5KatiersERNS_11QDataStreamERNS_7QStringE@Base 4.9.0
 _ZN5KatiersERNS_11QDataStreamERNS_8QVariant4TypeE@Base 4.9.0
 _ZN5KatiersERNS_11QDataStreamERNS_8QVariantE@Base 4.9.0
 _ZN5KatiersERNS_11QDataStreamERNS_9QBitArrayE@Base 4.9.0
 _ZN5KatiersERNS_11QDataStreamERNS_9QDateTimeE@Base 4.9.0
 _ZNK5Katie10QByteArray10simplifiedEv@Base 4.9.0
 _ZNK5Katie10QByteArray10startsWithEPKc@Base 4.9.0
 _ZNK5Katie10QByteArray10startsWithERKS0_@Base 4.9.0
 _ZNK5Katie10QByteArray10startsWithEc@Base 4.9.0
 _ZNK5Katie10QByteArray10toLongLongEPbi@Base 4.9.0
 _ZNK5Katie10QByteArray11lastIndexOfEPKci@Base 4.9.0
 _ZNK5Katie10QByteArray11lastIndexOfERKS0_i@Base 4.9.0
 _ZNK5Katie10QByteArray11lastIndexOfEci@Base 4.9.0
 _ZNK5Katie10QByteArray11toULongLongEPbi@Base 4.9.0
 _ZNK5Katie10QByteArray13leftJustifiedEicb@Base 4.9.0
 _ZNK5Katie10QByteArray13nulTerminatedEv@Base 4.9.0
 _ZNK5Katie10QByteArray14rightJustifiedEicb@Base 4.9.0
 _ZNK5Katie10QByteArray17toPercentEncodingERKS0_S2_c@Base 4.9.0
 _ZNK5Katie10QByteArray3midEii@Base 4.9.0
 _ZNK5Katie10QByteArray4leftEi@Base 4.9.0
 _ZNK5Katie10QByteArray5countEPKc@Base 4.9.0
 _ZNK5Katie10QByteArray5countERKS0_@Base 4.9.0
 _ZNK5Katie10QByteArray5countEc@Base 4.9.0
 _ZNK5Katie10QByteArray5rightEi@Base 4.9.0
 _ZNK5Katie10QByteArray5splitEc@Base 4.9.0
 _ZNK5Katie10QByteArray5toHexEv@Base 4.9.0
 _ZNK5Katie10QByteArray5toIntEPbi@Base 4.9.0
 _ZNK5Katie10QByteArray6isNullEv@Base 4.9.0
 _ZNK5Katie10QByteArray6toLongEPbi@Base 4.9.0
 _ZNK5Katie10QByteArray6toUIntEPbi@Base 4.9.0
 _ZNK5Katie10QByteArray7indexOfEPKci@Base 4.9.0
 _ZNK5Katie10QByteArray7indexOfERKS0_i@Base 4.9.0
 _ZNK5Katie10QByteArray7indexOfEci@Base 4.9.0
 _ZNK5Katie10QByteArray7toFloatEPb@Base 4.9.0
 _ZNK5Katie10QByteArray7toLowerEv@Base 4.9.0
 _ZNK5Katie10QByteArray7toShortEPbi@Base 4.9.0
 _ZNK5Katie10QByteArray7toULongEPbi@Base 4.9.0
 _ZNK5Katie10QByteArray7toUpperEv@Base 4.9.0
 _ZNK5Katie10QByteArray7trimmedEv@Base 4.9.0
 _ZNK5Katie10QByteArray8endsWithEPKc@Base 4.9.0
 _ZNK5Katie10QByteArray8endsWithERKS0_@Base 4.9.0
 _ZNK5Katie10QByteArray8endsWithEc@Base 4.9.0
 _ZNK5Katie10QByteArray8repeatedEi@Base 4.9.0
 _ZNK5Katie10QByteArray8toBase64Ev@Base 4.9.0
 _ZNK5Katie10QByteArray8toDoubleEPb@Base 4.9.0
 _ZNK5Katie10QByteArray8toUShortEPbi@Base 4.9.0
 _ZNK5Katie10QEventLoop10metaObjectEv@Base 4.9.0
 _ZNK5Katie10QEventLoop9isRunningEv@Base 4.9.0
 _ZNK5Katie10QJsonArray13toVariantListEv@Base 4.9.0
 _ZNK5Katie10QJsonArray2atEi@Base 4.9.0
 _ZNK5Katie10QJsonArray4lastEv@Base 4.9.0
 _ZNK5Katie10QJsonArray4sizeEv@Base 4.9.0
 _ZNK5Katie10QJsonArray5firstEv@Base 4.9.0
 _ZNK5Katie10QJsonArray7isEmptyEv@Base 4.9.0
 _ZNK5Katie10QJsonArray8containsERKNS_10QJsonValueE@Base 4.9.0
 _ZNK5Katie10QJsonArrayeqERKS0_@Base 4.9.0
 _ZNK5Katie10QJsonArrayixEi@Base 4.9.0
 _ZNK5Katie10QJsonArrayneERKS0_@Base 4.9.0
 _ZNK5Katie10QJsonValue4typeEv@Base 4.9.0
 _ZNK5Katie10QJsonValue5toIntEi@Base 4.9.0
 _ZNK5Katie10QJsonValue6toBoolEb@Base 4.9.0
 _ZNK5Katie10QJsonValue7toArrayERKNS_10QJsonArrayE@Base 4.9.0
 _ZNK5Katie10QJsonValue7toArrayEv@Base 4.9.0
 _ZNK5Katie10QJsonValue8toDoubleEd@Base 4.9.0
 _ZNK5Katie10QJsonValue8toObjectERKNS_11QJsonObjectE@Base 4.9.0
 _ZNK5Katie10QJsonValue8toObjectEv@Base 4.9.0
 _ZNK5Katie10QJsonValue8toStringERKNS_7QStringE@Base 4.9.0
 _ZNK5Katie10QJsonValue9toVariantEv@Base 4.9.0
 _ZNK5Katie10QJsonValueeqERKS0_@Base 4.9.0
 _ZNK5Katie10QJsonValueneERKS0_@Base 4.9.0
 _ZNK5Katie10QSemaphore9availableEv@Base 4.9.0
 _ZNK5Katie10QStringRef10startsWithENS_13QLatin1StringENS_2Qt15CaseSensitivityE@Base 4.9.0
 _ZNK5Katie10QStringRef10startsWithENS_5QCharENS_2Qt15CaseSensitivityE@Base 4.9.0
 _ZNK5Katie10QStringRef10startsWithERKNS_7QStringENS_2Qt15CaseSensitivityE@Base 4.9.0
 _ZNK5Katie10QStringRef10startsWithERKS0_NS_2Qt15CaseSensitivityE@Base 4.9.0
 _ZNK5Katie10QStringRef11lastIndexOfENS_13QLatin1StringEiNS_2Qt15CaseSensitivityE@Base 4.9.0
 _ZNK5Katie10QStringRef11lastIndexOfENS_5QCharEiNS_2Qt15CaseSensitivityE@Base 4.9.0
 _ZNK5Katie10QStringRef11lastIndexOfERKNS_7QStringEiNS_2Qt15CaseSensitivityE@Base 4.9.0
 _ZNK5Katie10QStringRef11lastIndexOfERKS0_iNS_2Qt15CaseSensitivityE@Base 4.9.0
 _ZNK5Katie10QStringRef11toLocal8BitEv@Base 4.9.0
 _ZNK5Katie10QStringRef5countENS_5QCharENS_2Qt15CaseSensitivityE@Base 4.9.0
 _ZNK5Katie10QStringRef5countERKNS_7QStringENS_2Qt15CaseSensitivityE@Base 4.9.0
 _ZNK5Katie10QStringRef5countERKS0_NS_2Qt15CaseSensitivityE@Base 4.9.0
 _ZNK5Katie10QStringRef6toUcs4Ev@Base 4.9.0
 _ZNK5Katie10QStringRef6toUtf8Ev@Base 4.9.0
 _ZNK5Katie10QStringRef7indexOfENS_13QLatin1StringEiNS_2Qt15CaseSensitivityE@Base 4.9.0
 _ZNK5Katie10QStringRef7indexOfENS_5QCharEiNS_2Qt15CaseSensitivityE@Base 4.9.0
 _ZNK5Katie10QStringRef7indexOfERKNS_7QStringEiNS_2Qt15CaseSensitivityE@Base 4.9.0
 _ZNK5Katie10QStringRef7indexOfERKS0_iNS_2Qt15CaseSensitivityE@Base 4.9.0
 _ZNK5Katie10QStringRef7toAsciiEv@Base 4.9.0
 _ZNK5Katie10QStringRef8appendToEPNS_7QStringE@Base 4.9.0
 _ZNK5Katie10QStringRef8endsWithENS_13QLatin1StringENS_2Qt15CaseSensitivityE@Base 4.9.0
 _ZNK5Katie10QStringRef8endsWithENS_5QCharENS_2Qt15CaseSensitivityE@Base 4.9.0
 _ZNK5Katie10QStringRef8endsWithERKNS_7QStringENS_2Qt15CaseSensitivityE@Base 4.9.0
 _ZNK5Katie10QStringRef8endsWithERKS0_NS_2Qt15CaseSensitivityE@Base 4.9.0
 _ZNK5Katie10QStringRef8toLatin1Ev@Base 4.9.0
 _ZNK5Katie10QStringRef8toStringEv@Base 4.9.0
 _ZNK5Katie10QTextCodec11fromUnicodeERKNS_7QStringE@Base 4.9.0
 _ZNK5Katie10QTextCodec11makeDecoderENS_6QFlagsINS0_14ConversionFlagEEE@Base 4.9.0
 _ZNK5Katie10QTextCodec11makeEncoderENS_6QFlagsINS0_14ConversionFlagEEE@Base 4.9.0
 _ZNK5Katie10QTextCodec7aliasesEv@Base 4.9.0
 _ZNK5Katie10QTextCodec9canEncodeENS_5QCharE@Base 4.9.0
 _ZNK5Katie10QTextCodec9canEncodeERKNS_7QStringE@Base 4.9.0
 _ZNK5Katie10QTextCodec9toUnicodeEPKc@Base 4.9.0
 _ZNK5Katie10QTextCodec9toUnicodeERKNS_10QByteArrayE@Base 4.9.0
 _ZNK5Katie11QDataStream22floatingPointPrecisionEv@Base 4.9.0
 _ZNK5Katie11QDataStream5atEndEv@Base 4.9.0
 _ZNK5Katie11QDataStream6statusEv@Base 4.9.0
 _ZNK5Katie11QJsonObject12toVariantMapEv@Base 4.9.0
 _ZNK5Katie11QJsonObject13toVariantHashEv@Base 4.9.0
 _ZNK5Katie11QJsonObject4keysEv@Base 4.9.0
 _ZNK5Katie11QJsonObject4sizeEv@Base 4.9.0
 _ZNK5Katie11QJsonObject5keyAtEi@Base 4.9.0
 _ZNK5Katie11QJsonObject5valueERKNS_7QStringE@Base 4.9.0
 _ZNK5Katie11QJsonObject7isEmptyEv@Base 4.9.0
 _ZNK5Katie11QJsonObject7valueAtEi@Base 4.9.0
 _ZNK5Katie11QJsonObject8containsERKNS_7QStringE@Base 4.9.0
 _ZNK5Katie11QJsonObject9constFindERKNS_7QStringE@Base 4.9.0
 _ZNK5Katie11QJsonObjecteqERKS0_@Base 4.9.0
 _ZNK5Katie11QJsonObjectixERKNS_7QStringE@Base 4.9.0
 _ZNK5Katie11QJsonObjectneERKS0_@Base 4.9.0
 _ZNK5Katie11QMetaMethod10attributesEv@Base 4.9.0
 _ZNK5Katie11QMetaMethod10methodTypeEv@Base 4.9.0
 _ZNK5Katie11QMetaMethod11methodIndexEv@Base 4.9.0
 _ZNK5Katie11QMetaMethod14parameterNamesEv@Base 4.9.0
 _ZNK5Katie11QMetaMethod14parameterTypesEv@Base 4.9.0
 _ZNK5Katie11QMetaMethod3tagEv@Base 4.9.0
 _ZNK5Katie11QMetaMethod6accessEv@Base 4.9.0
 _ZNK5Katie11QMetaMethod6invokeEPNS_7QObjectENS_2Qt14ConnectionTypeENS_22QGenericReturnArgumentENS_16QGenericArgumentES6_S6_S6_S6_S6_S6_S6_S6_S6_@Base 4.9.0
 _ZNK5Katie11QMetaMethod8revisionEv@Base 4.9.0
 _ZNK5Katie11QMetaMethod8typeNameEv@Base 4.9.0
 _ZNK5Katie11QMetaMethod9signatureEv@Base 4.9.0
 _ZNK5Katie11QMetaObject10enumeratorEi@Base 4.9.0
 _ZNK5Katie11QMetaObject11constructorEi@Base 4.9.0
 _ZNK5Katie11QMetaObject11indexOfSlotEPKc@Base 4.9.0
 _ZNK5Katie11QMetaObject11methodCountEv@Base 4.9.0
 _ZNK5Katie11QMetaObject11newInstanceENS_16QGenericArgumentES1_S1_S1_S1_S1_S1_S1_S1_S1_@Base 4.9.0
 _ZNK5Katie11QMetaObject12methodOffsetEv@Base 4.9.0
 _ZNK5Katie11QMetaObject12userPropertyEv@Base 4.9.0
 _ZNK5Katie11QMetaObject13indexOfMethodEPKc@Base 4.9.0
 _ZNK5Katie11QMetaObject13indexOfSignalEPKc@Base 4.9.0
 _ZNK5Katie11QMetaObject13propertyCountEv@Base 4.9.0
 _ZNK5Katie11QMetaObject14classInfoCountEv@Base 4.9.0
 _ZNK5Katie11QMetaObject14propertyOffsetEv@Base 4.9.0
 _ZNK5Katie11QMetaObject15classInfoOffsetEv@Base 4.9.0
 _ZNK5Katie11QMetaObject15enumeratorCountEv@Base 4.9.0
 _ZNK5Katie11QMetaObject15indexOfPropertyEPKc@Base 4.9.0
 _ZNK5Katie11QMetaObject15static_metacallENS0_4CallEiPPv@Base 4.9.0
 _ZNK5Katie11QMetaObject16constructorCountEv@Base 4.9.0
 _ZNK5Katie11QMetaObject16enumeratorOffsetEv@Base 4.9.0
 _ZNK5Katie11QMetaObject16indexOfClassInfoEPKc@Base 4.9.0
 _ZNK5Katie11QMetaObject17indexOfEnumeratorEPKc@Base 4.9.0
 _ZNK5Katie11QMetaObject18indexOfConstructorEPKc@Base 4.9.0
 _ZNK5Katie11QMetaObject2trEPKcS2_i@Base 4.9.0
 _ZNK5Katie11QMetaObject4castEPKNS_7QObjectE@Base 4.9.0
 _ZNK5Katie11QMetaObject4castEPNS_7QObjectE@Base 4.9.0
 _ZNK5Katie11QMetaObject6methodEi@Base 4.9.0
 _ZNK5Katie11QMetaObject6trUtf8EPKcS2_i@Base 4.9.0
 _ZNK5Katie11QMetaObject8propertyEi@Base 4.9.0
 _ZNK5Katie11QMetaObject9classInfoEi@Base 4.9.0
 _ZNK5Katie11QStringList11lastIndexOfERKNS_7QRegExpEi@Base 4.9.0
 _ZNK5Katie11QStringList11lastIndexOfERNS_7QRegExpEi@Base 4.9.0
 _ZNK5Katie11QStringList4joinERKNS_7QStringE@Base 4.9.0
 _ZNK5Katie11QStringList6filterERKNS_7QRegExpE@Base 4.9.0
 _ZNK5Katie11QStringList6filterERKNS_7QStringENS_2Qt15CaseSensitivityE@Base 4.9.0
 _ZNK5Katie11QStringList7indexOfERKNS_7QRegExpEi@Base 4.9.0
 _ZNK5Katie11QStringList7indexOfERNS_7QRegExpEi@Base 4.9.0
 _ZNK5Katie11QStringList8containsERKNS_7QStringENS_2Qt15CaseSensitivityE@Base 4.9.0
 _ZNK5Katie11QTextStream10fieldWidthEv@Base 4.9.0
 _ZNK5Katie11QTextStream11integerBaseEv@Base 4.9.0
 _ZNK5Katie11QTextStream11numberFlagsEv@Base 4.9.0
 _ZNK5Katie11QTextStream14fieldAlignmentEv@Base 4.9.0
 _ZNK5Katie11QTextStream17autoDetectUnicodeEv@Base 4.9.0
 _ZNK5Katie11QTextStream18realNumberNotationEv@Base 4.9.0
 _ZNK5Katie11QTextStream19realNumberPrecisionEv@Base 4.9.0
 _ZNK5Katie11QTextStream21generateByteOrderMarkEv@Base 4.9.0
 _ZNK5Katie11QTextStream3posEv@Base 4.9.0
 _ZNK5Katie11QTextStream5atEndEv@Base 4.9.0
 _ZNK5Katie11QTextStream5codecEv@Base 4.9.0
 _ZNK5Katie11QTextStream6deviceEv@Base 4.9.0
 _ZNK5Katie11QTextStream6localeEv@Base 4.9.0
 _ZNK5Katie11QTextStream6statusEv@Base 4.9.0
 _ZNK5Katie11QTextStream6stringEv@Base 4.9.0
 _ZNK5Katie11QTextStream7padCharEv@Base 4.9.0
 _ZNK5Katie11QThreadPool10metaObjectEv@Base 4.9.0
 _ZNK5Katie11QThreadPool13expiryTimeoutEv@Base 4.9.0
 _ZNK5Katie11QThreadPool14maxThreadCountEv@Base 4.9.0
 _ZNK5Katie11QThreadPool17activeThreadCountEv@Base 4.9.0
 _ZNK5Katie11QTranslator10metaObjectEv@Base 4.9.0
 _ZNK5Katie11QTranslator7isEmptyEv@Base 4.9.0
 _ZNK5Katie11QTranslator9translateEPKcS2_S2_i@Base 4.9.0
 _ZNK5Katie12QDirIterator4pathEv@Base 4.9.0
 _ZNK5Katie12QDirIterator7hasNextEv@Base 4.9.0
 _ZNK5Katie12QDirIterator8fileInfoEv@Base 4.9.0
 _ZNK5Katie12QDirIterator8fileNameEv@Base 4.9.0
 _ZNK5Katie12QDirIterator8filePathEv@Base 4.9.0
 _ZNK5Katie12QEasingCurve10customTypeEv@Base 4.9.0
 _ZNK5Katie12QEasingCurve16valueForProgressEd@Base 4.9.0
 _ZNK5Katie12QEasingCurve4typeEv@Base 4.9.0
 _ZNK5Katie12QEasingCurve6periodEv@Base 4.9.0
 _ZNK5Katie12QEasingCurve9amplitudeEv@Base 4.9.0
 _ZNK5Katie12QEasingCurve9overshootEv@Base 4.9.0
 _ZNK5Katie12QEasingCurveeqERKS0_@Base 4.9.0
 _ZNK5Katie12QTextDecoder10hasFailureEv@Base 4.9.0
 _ZNK5Katie12QTextEncoder10hasFailureEv@Base 4.9.0
 _ZNK5Katie12QtConcurrent15ResultStoreBase10filterModeEv@Base 4.9.0
 _ZNK5Katie12QtConcurrent15ResultStoreBase13hasNextResultEv@Base 4.9.0
 _ZNK5Katie12QtConcurrent15ResultStoreBase3endEv@Base 4.9.0
 _ZNK5Katie12QtConcurrent15ResultStoreBase5beginEv@Base 4.9.0
 _ZNK5Katie12QtConcurrent15ResultStoreBase5countEv@Base 4.9.0
 _ZNK5Katie12QtConcurrent15ResultStoreBase8containsEi@Base 4.9.0
 _ZNK5Katie12QtConcurrent15ResultStoreBase8resultAtEi@Base 4.9.0
 _ZNK5Katie12QtConcurrent18ResultIteratorBase11resultIndexEv@Base 4.9.0
 _ZNK5Katie12QtConcurrent18ResultIteratorBase11vectorIndexEv@Base 4.9.0
 _ZNK5Katie12QtConcurrent18ResultIteratorBase23canIncrementVectorIndexEv@Base 4.9.0
 _ZNK5Katie12QtConcurrent18ResultIteratorBase8isVectorEv@Base 4.9.0
 _ZNK5Katie12QtConcurrent18ResultIteratorBase9batchSizeEv@Base 4.9.0
 _ZNK5Katie12QtConcurrent18ResultIteratorBaseeqERKS1_@Base 4.9.0
 _ZNK5Katie12QtConcurrent18ResultIteratorBaseneERKS1_@Base 4.9.0
 _ZNK5Katie12QtConcurrent18UnhandledException5cloneEv@Base 4.9.0
 _ZNK5Katie12QtConcurrent18UnhandledException5raiseEv@Base 4.9.0
 _ZNK5Katie12QtConcurrent8internal14ExceptionStore12hasExceptionEv@Base 4.9.0
 _ZNK5Katie12QtConcurrent8internal14ExceptionStore9hasThrownEv@Base 4.9.0
 _ZNK5Katie12QtConcurrent9Exception5cloneEv@Base 4.9.0
 _ZNK5Katie12QtConcurrent9Exception5raiseEv@Base 4.9.0
 _ZNK5Katie13QElapsedTimer10hasExpiredEx@Base 4.9.0
 _ZNK5Katie13QElapsedTimer12nsecsElapsedEv@Base 4.9.0
 _ZNK5Katie13QElapsedTimer19msecsSinceReferenceEv@Base 4.9.0
 _ZNK5Katie13QElapsedTimer6secsToERKS0_@Base 4.9.0
 _ZNK5Katie13QElapsedTimer7elapsedEv@Base 4.9.0
 _ZNK5Katie13QElapsedTimer7isValidEv@Base 4.9.0
 _ZNK5Katie13QElapsedTimer7msecsToERKS0_@Base 4.9.0
 _ZNK5Katie13QFSFileEngine12isSequentialEv@Base 4.9.0
 _ZNK5Katie13QFSFileEngine13caseSensitiveEv@Base 4.9.0
 _ZNK5Katie13QFSFileEngine14isRelativePathEv@Base 4.9.0
 _ZNK5Katie13QFSFileEngine17supportsExtensionENS_19QAbstractFileEngine9ExtensionE@Base 4.9.0
 _ZNK5Katie13QFSFileEngine3posEv@Base 4.9.0
 _ZNK5Katie13QFSFileEngine4sizeEv@Base 4.9.0
 _ZNK5Katie13QFSFileEngine5mkdirERKNS_7QStringEb@Base 4.9.0
 _ZNK5Katie13QFSFileEngine5ownerENS_19QAbstractFileEngine9FileOwnerE@Base 4.9.0
 _ZNK5Katie13QFSFileEngine5rmdirERKNS_7QStringEb@Base 4.9.0
 _ZNK5Katie13QFSFileEngine6handleEv@Base 4.9.0
 _ZNK5Katie13QFSFileEngine7ownerIdENS_19QAbstractFileEngine9FileOwnerE@Base 4.9.0
 _ZNK5Katie13QFSFileEngine8fileNameENS_19QAbstractFileEngine8FileNameE@Base 4.9.0
 _ZNK5Katie13QFSFileEngine8fileTimeENS_19QAbstractFileEngine8FileTimeE@Base 4.9.0
 _ZNK5Katie13QFSFileEngine9entryListENS_6QFlagsINS_4QDir6FilterEEERKNS_11QStringListE@Base 4.9.0
 _ZNK5Katie13QFSFileEngine9fileFlagsENS_6QFlagsINS_19QAbstractFileEngine8FileFlagEEE@Base 4.9.0
 _ZNK5Katie13QJsonDocument12toBinaryDataEv@Base 4.9.0
 _ZNK5Katie13QJsonDocument5arrayEv@Base 4.9.0
 _ZNK5Katie13QJsonDocument6isNullEv@Base 4.9.0
 _ZNK5Katie13QJsonDocument6objectEv@Base 4.9.0
 _ZNK5Katie13QJsonDocument6toJsonENS0_10JsonFormatE@Base 4.9.0
 _ZNK5Katie13QJsonDocument7isArrayEv@Base 4.9.0
 _ZNK5Katie13QJsonDocument7isEmptyEv@Base 4.9.0
 _ZNK5Katie13QJsonDocument7rawDataEPi@Base 4.9.0
 _ZNK5Katie13QJsonDocument8isObjectEv@Base 4.9.0
 _ZNK5Katie13QJsonDocument9toVariantEv@Base 4.9.0
 _ZNK5Katie13QJsonDocumenteqERKS0_@Base 4.9.0
 _ZNK5Katie13QJsonValueRef7toArrayEv@Base 4.9.0
 _ZNK5Katie13QJsonValueRef7toValueEv@Base 4.9.0
 _ZNK5Katie13QJsonValueRef8toObjectEv@Base 4.9.0
 _ZNK5Katie13QMetaProperty10enumeratorEv@Base 4.9.0
 _ZNK5Katie13QMetaProperty10isConstantEv@Base 4.9.0
 _ZNK5Katie13QMetaProperty10isEditableEPKNS_7QObjectE@Base 4.9.0
 _ZNK5Katie13QMetaProperty10isEnumTypeEv@Base 4.9.0
 _ZNK5Katie13QMetaProperty10isFlagTypeEv@Base 4.9.0
 _ZNK5Katie13QMetaProperty10isReadableEv@Base 4.9.0
 _ZNK5Katie13QMetaProperty10isWritableEv@Base 4.9.0
 _ZNK5Katie13QMetaProperty12hasStdCppSetEv@Base 4.9.0
 _ZNK5Katie13QMetaProperty12isDesignableEPKNS_7QObjectE@Base 4.9.0
 _ZNK5Katie13QMetaProperty12isResettableEv@Base 4.9.0
 _ZNK5Katie13QMetaProperty12isScriptableEPKNS_7QObjectE@Base 4.9.0
 _ZNK5Katie13QMetaProperty12notifySignalEv@Base 4.9.0
 _ZNK5Katie13QMetaProperty13propertyIndexEv@Base 4.9.0
 _ZNK5Katie13QMetaProperty15hasNotifySignalEv@Base 4.9.0
 _ZNK5Katie13QMetaProperty17notifySignalIndexEv@Base 4.9.0
 _ZNK5Katie13QMetaProperty4nameEv@Base 4.9.0
 _ZNK5Katie13QMetaProperty4readEPKNS_7QObjectE@Base 4.9.0
 _ZNK5Katie13QMetaProperty4typeEv@Base 4.9.0
 _ZNK5Katie13QMetaProperty5resetEPNS_7QObjectE@Base 4.9.0
 _ZNK5Katie13QMetaProperty5writeEPNS_7QObjectERKNS_8QVariantE@Base 4.9.0
 _ZNK5Katie13QMetaProperty6isUserEPKNS_7QObjectE@Base 4.9.0
 _ZNK5Katie13QMetaProperty7isFinalEv@Base 4.9.0
 _ZNK5Katie13QMetaProperty8isStoredEPKNS_7QObjectE@Base 4.9.0
 _ZNK5Katie13QMetaProperty8revisionEv@Base 4.9.0
 _ZNK5Katie13QMetaProperty8typeNameEv@Base 4.9.0
 _ZNK5Katie13QMetaProperty8userTypeEv@Base 4.9.0
 _ZNK5Katie13QPluginLoader10metaObjectEv@Base 4.9.0
 _ZNK5Katie13QPluginLoader11errorStringEv@Base 4.9.0
 _ZNK5Katie13QPluginLoader8fileNameEv@Base 4.9.0
 _ZNK5Katie13QPluginLoader8isLoadedEv@Base 4.9.0
 _ZNK5Katie13QPluginLoader9loadHintsEv@Base 4.9.0
 _ZNK5Katie13QSharedMemory10isAttachedEv@Base 4.9.0
 _ZNK5Katie13QSharedMemory10metaObjectEv@Base 4.9.0
 _ZNK5Katie13QSharedMemory11errorStringEv@Base 4.9.0
 _ZNK5Katie13QSharedMemory3keyEv@Base 4.9.0
 _ZNK5Katie13QSharedMemory4dataEv@Base 4.9.0
 _ZNK5Katie13QSharedMemory4sizeEv@Base 4.9.0
 _ZNK5Katie13QSharedMemory5errorEv@Base 4.9.0
 _ZNK5Katie13QSharedMemory9constDataEv@Base 4.9.0
 _ZNK5Katie13QSharedMemory9nativeKeyEv@Base 4.9.0
 _ZNK5Katie13QSignalMapper10metaObjectEv@Base 4.9.0
 _ZNK5Katie13QSignalMapper7mappingEPNS_7QObjectE@Base 4.9.0
 _ZNK5Katie13QSignalMapper7mappingEPNS_7QWidgetE@Base 4.9.0
 _ZNK5Katie13QSignalMapper7mappingERKNS_7QStringE@Base 4.9.0
 _ZNK5Katie13QSignalMapper7mappingEi@Base 4.9.0
 _ZNK5Katie13QSystemLocale14fallbackLocaleEv@Base 4.9.0
 _ZNK5Katie13QSystemLocale5queryENS0_9QueryTypeENS_8QVariantE@Base 4.9.0
 _ZNK5Katie14QFactoryLoader10metaObjectEv@Base 4.9.0
 _ZNK5Katie14QFactoryLoader4keysEv@Base 4.9.0
 _ZNK5Katie14QFactoryLoader8instanceERKNS_7QStringE@Base 4.9.0
 _ZNK5Katie14QLocalePrivate13validateCharsERKNS_7QStringENS0_10NumberModeEPNS_10QByteArrayEi@Base 4.9.0
 _ZNK5Katie14QLocalePrivate14doubleToStringEdiNS0_10DoubleFormEij@Base 4.9.0
 _ZNK5Katie14QLocalePrivate14stringToDoubleERKNS_7QStringEPbNS0_18GroupSeparatorModeE@Base 4.9.0
 _ZNK5Katie14QLocalePrivate15numberToCLocaleERKNS_7QStringENS0_18GroupSeparatorModeEPNS_15QVarLengthArrayIcLi256EEE@Base 4.9.0
 _ZNK5Katie14QLocalePrivate16dateTimeToStringERKNS_7QStringEPKNS_5QDateEPKNS_5QTimeEPKNS_7QLocaleE@Base 4.9.0
 _ZNK5Katie14QLocalePrivate16longLongToStringExiiij@Base 4.9.0
 _ZNK5Katie14QLocalePrivate16stringToLongLongERKNS_7QStringEiPbNS0_18GroupSeparatorModeE@Base 4.9.0
 _ZNK5Katie14QLocalePrivate17measurementSystemEv@Base 4.9.0
 _ZNK5Katie14QLocalePrivate19stringToUnsLongLongERKNS_7QStringEiPbNS0_18GroupSeparatorModeE@Base 4.9.0
 _ZNK5Katie14QLocalePrivate19unsLongLongToStringEyiiij@Base 4.9.0
 _ZNK5Katie14QLocalePrivate9bcp47NameEv@Base 4.9.0
 _ZNK5Katie14QMetaClassInfo4nameEv@Base 4.9.0
 _ZNK5Katie14QMetaClassInfo5valueEv@Base 4.9.0
 _ZNK5Katie14QObjectPrivate10senderListEv@Base 4.9.0
 _ZNK5Katie14QObjectPrivate11signalIndexEPKc@Base 4.9.0
 _ZNK5Katie14QObjectPrivate12receiverListEPKc@Base 4.9.0
 _ZNK5Katie14QObjectPrivate8isSenderEPKNS_7QObjectEPKc@Base 4.9.0
 _ZNK5Katie14QStringMatcher7indexInEPKNS_5QCharEii@Base 4.9.0
 _ZNK5Katie14QStringMatcher7indexInERKNS_7QStringEi@Base 4.9.0
 _ZNK5Katie14QStringMatcher7patternEv@Base 4.9.0
 _ZNK5Katie14QTemporaryFile10autoRemoveEv@Base 4.9.0
 _ZNK5Katie14QTemporaryFile10fileEngineEv@Base 4.9.0
 _ZNK5Katie14QTemporaryFile10metaObjectEv@Base 4.9.0
 _ZNK5Katie14QTemporaryFile12fileTemplateEv@Base 4.9.0
 _ZNK5Katie14QTemporaryFile8fileNameEv@Base 4.9.0
 _ZNK5Katie15QDateTimeParser10fromStringERKNS_7QStringEPNS_5QDateEPNS_5QTimeE@Base 4.9.0
 _ZNK5Katie15QDateTimeParser10getMaximumEv@Base 4.9.0
 _ZNK5Katie15QDateTimeParser10getMinimumEv@Base 4.9.0
 _ZNK5Katie15QDateTimeParser10sectionPosERKNS0_11SectionNodeE@Base 4.9.0
 _ZNK5Katie15QDateTimeParser10sectionPosEi@Base 4.9.0
 _ZNK5Katie15QDateTimeParser11absoluteMaxEiRKNS_9QDateTimeE@Base 4.9.0
 _ZNK5Katie15QDateTimeParser11absoluteMinEi@Base 4.9.0
 _ZNK5Katie15QDateTimeParser11getAmPmTextENS0_4AmPmENS0_4CaseE@Base 4.9.0
 _ZNK5Katie15QDateTimeParser11sectionNameEi@Base 4.9.0
 _ZNK5Katie15QDateTimeParser11sectionNodeEi@Base 4.9.0
 _ZNK5Katie15QDateTimeParser11sectionSizeEi@Base 4.9.0
 _ZNK5Katie15QDateTimeParser11sectionTextERKNS_7QStringEii@Base 4.9.0
 _ZNK5Katie15QDateTimeParser11sectionTextEi@Base 4.9.0
 _ZNK5Katie15QDateTimeParser11sectionTypeEi@Base 4.9.0
 _ZNK5Katie15QDateTimeParser12findTimeZoneENS_7QStringERKNS_9QDateTimeEPi@Base 4.9.0
 _ZNK5Katie15QDateTimeParser12parseSectionERKNS_9QDateTimeEiRNS_7QStringERiiRNS0_5StateEPi@Base 4.9.0
 _ZNK5Katie15QDateTimeParser13sectionFormatENS0_7SectionEi@Base 4.9.0
 _ZNK5Katie15QDateTimeParser13sectionFormatEi@Base 4.9.0
 _ZNK5Katie15QDateTimeParser14potentialValueERKNS_7QStringEiiiRKNS_9QDateTimeEi@Base 4.9.0
 _ZNK5Katie15QDateTimeParser14sectionMaxSizeENS0_7SectionEi@Base 4.9.0
 _ZNK5Katie15QDateTimeParser14sectionMaxSizeEi@Base 4.9.0
 _ZNK5Katie15QDateTimeParser17skipToNextSectionEiRKNS_9QDateTimeERKNS_7QStringE@Base 4.9.0
 _ZNK5Katie15QDateTimeParser5parseERNS_7QStringERiRKNS_9QDateTimeEb@Base 4.9.0
 _ZNK5Katie15QDateTimeParser7findDayERKNS_7QStringEiiPS1_Pi@Base 4.9.0
 _ZNK5Katie15QDateTimeParser8findAmPmERNS_7QStringEiPi@Base 4.9.0
 _ZNK5Katie15QDateTimeParser8getDigitERKNS_9QDateTimeEi@Base 4.9.0
 _ZNK5Katie15QDateTimeParser8setDigitERNS_9QDateTimeEii@Base 4.9.0
 _ZNK5Katie15QDateTimeParser9fieldInfoEi@Base 4.9.0
 _ZNK5Katie15QDateTimeParser9findMonthERKNS_7QStringEiiPS1_Pi@Base 4.9.0
 _ZNK5Katie15QDateTimeParser9maxChangeEi@Base 4.9.0
 _ZNK5Katie15QDateTimeParser9stateNameEi@Base 4.9.0
 _ZNK5Katie15QJsonParseError11errorStringEv@Base 4.9.0
 _ZNK5Katie15QSocketNotifier10metaObjectEv@Base 4.9.0
 _ZNK5Katie16QCoreApplication10metaObjectEv@Base 4.9.0
 _ZNK5Katie16QSystemSemaphore11errorStringEv@Base 4.9.0
 _ZNK5Katie16QSystemSemaphore3keyEv@Base 4.9.0
 _ZNK5Katie16QSystemSemaphore5errorEv@Base 4.9.0
 _ZNK5Katie16QTextCodecPlugin10metaObjectEv@Base 4.9.0
 _ZNK5Katie16QTextCodecPlugin4keysEv@Base 4.9.0
 _ZNK5Katie17QByteArrayMatcher7indexInEPKcii@Base 4.9.0
 _ZNK5Katie17QByteArrayMatcher7indexInERKNS_10QByteArrayEi@Base 4.9.0
 _ZNK5Katie18QAbstractItemModel10encodeDataERKNS_5QListINS_11QModelIndexEEERNS_11QDataStreamE@Base 4.9.0
 _ZNK5Katie18QAbstractItemModel10headerDataEiNS_2Qt11OrientationEi@Base 4.9.0
 _ZNK5Katie18QAbstractItemModel10metaObjectEv@Base 4.9.0
 _ZNK5Katie18QAbstractItemModel11hasChildrenERKNS_11QModelIndexE@Base 4.9.0
 _ZNK5Katie18QAbstractItemModel12canFetchMoreERKNS_11QModelIndexE@Base 4.9.0
 _ZNK5Katie18QAbstractItemModel19persistentIndexListEv@Base 4.9.0
 _ZNK5Katie18QAbstractItemModel20supportedDragActionsEv@Base 4.9.0
 _ZNK5Katie18QAbstractItemModel20supportedDropActionsEv@Base 4.9.0
 _ZNK5Katie18QAbstractItemModel4spanERKNS_11QModelIndexE@Base 4.9.0
 _ZNK5Katie18QAbstractItemModel5buddyERKNS_11QModelIndexE@Base 4.9.0
 _ZNK5Katie18QAbstractItemModel5flagsERKNS_11QModelIndexE@Base 4.9.0
 _ZNK5Katie18QAbstractItemModel5matchERKNS_11QModelIndexEiRKNS_8QVariantEiNS_6QFlagsINS_2Qt9MatchFlagEEE@Base 4.9.0
 _ZNK5Katie18QAbstractItemModel8hasIndexEiiRKNS_11QModelIndexE@Base 4.9.0
 _ZNK5Katie18QAbstractItemModel8itemDataERKNS_11QModelIndexE@Base 4.9.0
 _ZNK5Katie18QAbstractItemModel8mimeDataERKNS_5QListINS_11QModelIndexEEE@Base 4.9.0
 _ZNK5Katie18QAbstractItemModel9mimeTypesEv@Base 4.9.0
 _ZNK5Katie18QAbstractItemModel9roleNamesEv@Base 4.9.0
 _ZNK5Katie18QAbstractListModel10metaObjectEv@Base 4.9.0
 _ZNK5Katie18QAbstractListModel11columnCountERKNS_11QModelIndexE@Base 4.9.0
 _ZNK5Katie18QAbstractListModel11hasChildrenERKNS_11QModelIndexE@Base 4.9.0
 _ZNK5Katie18QAbstractListModel5indexEiiRKNS_11QModelIndexE@Base 4.9.0
 _ZNK5Katie18QAbstractListModel6parentERKNS_11QModelIndexE@Base 4.9.0
 _ZNK5Katie18QCommandLineOption11descriptionEv@Base 4.9.0
 _ZNK5Katie18QCommandLineOption13defaultValuesEv@Base 4.9.0
 _ZNK5Katie18QCommandLineOption5namesEv@Base 4.9.0
 _ZNK5Katie18QCommandLineOption9valueNameEv@Base 4.9.0
 _ZNK5Katie18QCommandLineParser11optionNamesEv@Base 4.9.0
 _ZNK5Katie18QCommandLineParser18unknownOptionNamesEv@Base 4.9.0
 _ZNK5Katie18QCommandLineParser19positionalArgumentsEv@Base 4.9.0
 _ZNK5Katie18QCommandLineParser22applicationDescriptionEv@Base 4.9.0
 _ZNK5Katie18QCommandLineParser5isSetERKNS_18QCommandLineOptionE@Base 4.9.0
 _ZNK5Katie18QCommandLineParser5isSetERKNS_7QStringE@Base 4.9.0
 _ZNK5Katie18QCommandLineParser5valueERKNS_18QCommandLineOptionE@Base 4.9.0
 _ZNK5Katie18QCommandLineParser5valueERKNS_7QStringE@Base 4.9.0
 _ZNK5Katie18QCommandLineParser6valuesERKNS_18QCommandLineOptionE@Base 4.9.0
 _ZNK5Katie18QCommandLineParser6valuesERKNS_7QStringE@Base 4.9.0
 _ZNK5Katie18QCommandLineParser8helpTextEv@Base 4.9.0
 _ZNK5Katie18QCommandLineParser9errorTextEv@Base 4.9.0
 _ZNK5Katie18QCryptographicHash6resultEv@Base 4.9.0
 _ZNK5Katie18QFileSystemWatcher10metaObjectEv@Base 4.9.0
 _ZNK5Katie18QFileSystemWatcher11directoriesEv@Base 4.9.0
 _ZNK5Katie18QFileSystemWatcher5filesEv@Base 4.9.0
 _ZNK5Katie18QFutureWatcherBase10isCanceledEv@Base 4.9.0
 _ZNK5Katie18QFutureWatcherBase10isFinishedEv@Base 4.9.0
 _ZNK5Katie18QFutureWatcherBase10metaObjectEv@Base 4.9.0
 _ZNK5Katie18QFutureWatcherBase12progressTextEv@Base 4.9.0
 _ZNK5Katie18QFutureWatcherBase13progressValueEv@Base 4.9.0
 _ZNK5Katie18QFutureWatcherBase15progressMaximumEv@Base 4.9.0
 _ZNK5Katie18QFutureWatcherBase15progressMinimumEv@Base 4.9.0
 _ZNK5Katie18QFutureWatcherBase8isPausedEv@Base 4.9.0
 _ZNK5Katie18QFutureWatcherBase9isRunningEv@Base 4.9.0
 _ZNK5Katie18QFutureWatcherBase9isStartedEv@Base 4.9.0
 _ZNK5Katie19QAbstractFileEngine11errorStringEv@Base 4.9.0
 _ZNK5Katie19QAbstractFileEngine12isSequentialEv@Base 4.9.0
 _ZNK5Katie19QAbstractFileEngine13caseSensitiveEv@Base 4.9.0
 _ZNK5Katie19QAbstractFileEngine14isRelativePathEv@Base 4.9.0
 _ZNK5Katie19QAbstractFileEngine17supportsExtensionENS0_9ExtensionE@Base 4.9.0
 _ZNK5Katie19QAbstractFileEngine3posEv@Base 4.9.0
 _ZNK5Katie19QAbstractFileEngine4sizeEv@Base 4.9.0
 _ZNK5Katie19QAbstractFileEngine5atEndEv@Base 4.9.0
 _ZNK5Katie19QAbstractFileEngine5errorEv@Base 4.9.0
 _ZNK5Katie19QAbstractFileEngine5mkdirERKNS_7QStringEb@Base 4.9.0
 _ZNK5Katie19QAbstractFileEngine5ownerENS0_9FileOwnerE@Base 4.9.0
 _ZNK5Katie19QAbstractFileEngine5rmdirERKNS_7QStringEb@Base 4.9.0
 _ZNK5Katie19QAbstractFileEngine6handleEv@Base 4.9.0
 _ZNK5Katie19QAbstractFileEngine7ownerIdENS0_9FileOwnerE@Base 4.9.0
 _ZNK5Katie19QAbstractFileEngine8fileNameENS0_8FileNameE@Base 4.9.0
 _ZNK5Katie19QAbstractFileEngine8fileTimeENS0_8FileTimeE@Base 4.9.0
 _ZNK5Katie19QAbstractFileEngine9entryListENS_6QFlagsINS_4QDir6FilterEEERKNS_11QStringListE@Base 4.9.0
 _ZNK5Katie19QAbstractFileEngine9fileFlagsENS_6QFlagsINS0_8FileFlagEEE@Base 4.9.0
 _ZNK5Katie19QAbstractTableModel10metaObjectEv@Base 4.9.0
 _ZNK5Katie19QAbstractTableModel11hasChildrenERKNS_11QModelIndexE@Base 4.9.0
 _ZNK5Katie19QAbstractTableModel5indexEiiRKNS_11QModelIndexE@Base 4.9.0
 _ZNK5Katie19QAbstractTableModel6parentERKNS_11QModelIndexE@Base 4.9.0
 _ZNK5Katie19QProcessEnvironment12toStringListEv@Base 4.9.0
 _ZNK5Katie19QProcessEnvironment4keysEv@Base 4.9.0
 _ZNK5Katie19QProcessEnvironment5valueERKNS_7QStringES3_@Base 4.9.0
 _ZNK5Katie19QProcessEnvironment7isEmptyEv@Base 4.9.0
 _ZNK5Katie19QProcessEnvironment8containsERKNS_7QStringE@Base 4.9.0
 _ZNK5Katie19QProcessEnvironmenteqERKS0_@Base 4.9.0
 _ZNK5Katie19QTextBoundaryFinder12isAtBoundaryEv@Base 4.9.0
 _ZNK5Katie19QTextBoundaryFinder15boundaryReasonsEv@Base 4.9.0
 _ZNK5Katie19QTextBoundaryFinder4typeEv@Base 4.9.0
 _ZNK5Katie19QTextBoundaryFinder6stringEv@Base 4.9.0
 _ZNK5Katie19QTextBoundaryFinder8positionEv@Base 4.9.0
 _ZNK5Katie20QEventDispatcherUNIX10metaObjectEv@Base 4.9.0
 _ZNK5Katie20QEventDispatcherUNIX16registeredTimersEPNS_7QObjectE@Base 4.9.0
 _ZNK5Katie20QFutureInterfaceBase10queryStateENS0_5StateE@Base 4.9.0
 _ZNK5Katie20QFutureInterfaceBase11resultCountEv@Base 4.9.0
 _ZNK5Katie20QFutureInterfaceBase12progressTextEv@Base 4.9.0
 _ZNK5Katie20QFutureInterfaceBase13progressValueEv@Base 4.9.0
 _ZNK5Katie20QFutureInterfaceBase15isResultReadyAtEi@Base 4.9.0
 _ZNK5Katie20QFutureInterfaceBase15progressMaximumEv@Base 4.9.0
 _ZNK5Katie20QFutureInterfaceBase15progressMinimumEv@Base 4.9.0
 _ZNK5Katie20QFutureInterfaceBase15resultStoreBaseEv@Base 4.9.0
 _ZNK5Katie20QFutureInterfaceBase19referenceCountIsOneEv@Base 4.9.0
 _ZNK5Katie20QFutureInterfaceBase22isProgressUpdateNeededEv@Base 4.9.0
 _ZNK5Katie20QFutureInterfaceBase5mutexEv@Base 4.9.0
 _ZNK5Katie21QObjectCleanupHandler10metaObjectEv@Base 4.9.0
 _ZNK5Katie21QObjectCleanupHandler7isEmptyEv@Base 4.9.0
 _ZNK5Katie21QPersistentModelIndex10internalIdEv@Base 4.9.0
 _ZNK5Katie21QPersistentModelIndex15internalPointerEv@Base 4.9.0
 _ZNK5Katie21QPersistentModelIndex3rowEv@Base 4.9.0
 _ZNK5Katie21QPersistentModelIndex4dataEi@Base 4.9.0
 _ZNK5Katie21QPersistentModelIndex5childEii@Base 4.9.0
 _ZNK5Katie21QPersistentModelIndex5flagsEv@Base 4.9.0
 _ZNK5Katie21QPersistentModelIndex5modelEv@Base 4.9.0
 _ZNK5Katie21QPersistentModelIndex6columnEv@Base 4.9.0
 _ZNK5Katie21QPersistentModelIndex6parentEv@Base 4.9.0
 _ZNK5Katie21QPersistentModelIndex7isValidEv@Base 4.9.0
 _ZNK5Katie21QPersistentModelIndex7siblingEii@Base 4.9.0
 _ZNK5Katie21QPersistentModelIndexcvRKNS_11QModelIndexEEv@Base 4.9.0
 _ZNK5Katie21QPersistentModelIndexeqERKNS_11QModelIndexE@Base 4.9.0
 _ZNK5Katie21QPersistentModelIndexeqERKS0_@Base 4.9.0
 _ZNK5Katie21QPersistentModelIndexltERKS0_@Base 4.9.0
 _ZNK5Katie21QPersistentModelIndexneERKNS_11QModelIndexE@Base 4.9.0
 _ZNK5Katie23QCoreApplicationPrivate7appNameEv@Base 4.9.0
 _ZNK5Katie24QAbstractEventDispatcher10metaObjectEv@Base 4.9.0
 _ZNK5Katie24QNonContiguousByteDevice10metaObjectEv@Base 4.9.0
 _ZNK5Katie27QAbstractFileEngineIterator11nameFiltersEv@Base 4.9.0
 _ZNK5Katie27QAbstractFileEngineIterator15currentFileInfoEv@Base 4.9.0
 _ZNK5Katie27QAbstractFileEngineIterator15currentFilePathEv@Base 4.9.0
 _ZNK5Katie27QAbstractFileEngineIterator4pathEv@Base 4.9.0
 _ZNK5Katie27QAbstractFileEngineIterator7filtersEv@Base 4.9.0
 _ZNK5Katie27QAbstractFileEngineIterator9entryInfoENS0_13EntryInfoTypeE@Base 4.9.0
 _ZNK5Katie4QDir10isReadableEv@Base 4.9.0
 _ZNK5Katie4QDir10isRelativeEv@Base 4.9.0
 _ZNK5Katie4QDir11nameFiltersEv@Base 4.9.0
 _ZNK5Katie4QDir12absolutePathEv@Base 4.9.0
 _ZNK5Katie4QDir13canonicalPathEv@Base 4.9.0
 _ZNK5Katie4QDir13entryInfoListENS_6QFlagsINS0_6FilterEEENS1_INS0_8SortFlagEEE@Base 4.9.0
 _ZNK5Katie4QDir13entryInfoListERKNS_11QStringListENS_6QFlagsINS0_6FilterEEENS4_INS0_8SortFlagEEE@Base 4.9.0
 _ZNK5Katie4QDir16absoluteFilePathERKNS_7QStringE@Base 4.9.0
 _ZNK5Katie4QDir16relativeFilePathERKNS_7QStringE@Base 4.9.0
 _ZNK5Katie4QDir4pathEv@Base 4.9.0
 _ZNK5Katie4QDir5countEv@Base 4.9.0
 _ZNK5Katie4QDir5mkdirERKNS_7QStringE@Base 4.9.0
 _ZNK5Katie4QDir5rmdirERKNS_7QStringE@Base 4.9.0
 _ZNK5Katie4QDir6existsERKNS_7QStringE@Base 4.9.0
 _ZNK5Katie4QDir6existsEv@Base 4.9.0
 _ZNK5Katie4QDir6filterEv@Base 4.9.0
 _ZNK5Katie4QDir6isRootEv@Base 4.9.0
 _ZNK5Katie4QDir6mkpathERKNS_7QStringE@Base 4.9.0
 _ZNK5Katie4QDir6rmpathERKNS_7QStringE@Base 4.9.0
 _ZNK5Katie4QDir7dirNameEv@Base 4.9.0
 _ZNK5Katie4QDir7refreshEv@Base 4.9.0
 _ZNK5Katie4QDir7sortingEv@Base 4.9.0
 _ZNK5Katie4QDir8filePathERKNS_7QStringE@Base 4.9.0
 _ZNK5Katie4QDir9entryListENS_6QFlagsINS0_6FilterEEENS1_INS0_8SortFlagEEE@Base 4.9.0
 _ZNK5Katie4QDir9entryListERKNS_11QStringListENS_6QFlagsINS0_6FilterEEENS4_INS0_8SortFlagEEE@Base 4.9.0
 _ZNK5Katie4QDireqERKS0_@Base 4.9.0
 _ZNK5Katie4QDirixEi@Base 4.9.0
 _ZNK5Katie4QUrl10isDetachedEv@Base 4.9.0
 _ZNK5Katie4QUrl10isParentOfERKS0_@Base 4.9.0
 _ZNK5Katie4QUrl10isRelativeEv@Base 4.9.0
 _ZNK5Katie4QUrl10queryItemsEv@Base 4.9.0
 _ZNK5Katie4QUrl11encodedHostEv@Base 4.9.0
 _ZNK5Katie4QUrl11encodedPathEv@Base 4.9.0
 _ZNK5Katie4QUrl11errorStringEv@Base 4.9.0
 _ZNK5Katie4QUrl11hasFragmentEv@Base 4.9.0
 _ZNK5Katie4QUrl11isLocalFileEv@Base 4.9.0
 _ZNK5Katie4QUrl11toLocalFileEv@Base 4.9.0
 _ZNK5Katie4QUrl12encodedQueryEv@Base 4.9.0
 _ZNK5Katie4QUrl12hasQueryItemERKNS_7QStringE@Base 4.9.0
 _ZNK5Katie4QUrl14queryItemValueERKNS_7QStringE@Base 4.9.0
 _ZNK5Katie4QUrl14topLevelDomainEv@Base 4.9.0
 _ZNK5Katie4QUrl15encodedFragmentEv@Base 4.9.0
 _ZNK5Katie4QUrl15encodedPasswordEv@Base 4.9.0
 _ZNK5Katie4QUrl15encodedUserNameEv@Base 4.9.0
 _ZNK5Katie4QUrl17encodedQueryItemsEv@Base 4.9.0
 _ZNK5Katie4QUrl18allQueryItemValuesERKNS_7QStringE@Base 4.9.0
 _ZNK5Katie4QUrl18queryPairDelimiterEv@Base 4.9.0
 _ZNK5Katie4QUrl19hasEncodedQueryItemERKNS_10QByteArrayE@Base 4.9.0
 _ZNK5Katie4QUrl19queryValueDelimiterEv@Base 4.9.0
 _ZNK5Katie4QUrl21encodedQueryItemValueERKNS_10QByteArrayE@Base 4.9.0
 _ZNK5Katie4QUrl25allEncodedQueryItemValuesERKNS_10QByteArrayE@Base 4.9.0
 _ZNK5Katie4QUrl4hostEv@Base 4.9.0
 _ZNK5Katie4QUrl4pathEv@Base 4.9.0
 _ZNK5Katie4QUrl4portEi@Base 4.9.0
 _ZNK5Katie4QUrl6schemeEv@Base 4.9.0
 _ZNK5Katie4QUrl7isEmptyEv@Base 4.9.0
 _ZNK5Katie4QUrl7isValidEv@Base 4.9.0
 _ZNK5Katie4QUrl8fragmentEv@Base 4.9.0
 _ZNK5Katie4QUrl8hasQueryEv@Base 4.9.0
 _ZNK5Katie4QUrl8passwordEv@Base 4.9.0
 _ZNK5Katie4QUrl8resolvedERKS0_@Base 4.9.0
 _ZNK5Katie4QUrl8toStringENS_6QFlagsINS0_16FormattingOptionEEE@Base 4.9.0
 _ZNK5Katie4QUrl8userInfoEv@Base 4.9.0
 _ZNK5Katie4QUrl8userNameEv@Base 4.9.0
 _ZNK5Katie4QUrl9authorityEv@Base 4.9.0
 _ZNK5Katie4QUrl9toEncodedENS_6QFlagsINS0_16FormattingOptionEEE@Base 4.9.0
 _ZNK5Katie4QUrleqERKS0_@Base 4.9.0
 _ZNK5Katie4QUrlltERKS0_@Base 4.9.0
 _ZNK5Katie4QUrlneERKS0_@Base 4.9.0
 _ZNK5Katie5QChar10digitValueEv@Base 4.9.0
 _ZNK5Katie5QChar11hasMirroredEv@Base 4.9.0
 _ZNK5Katie5QChar11isTitleCaseEv@Base 4.9.0
 _ZNK5Katie5QChar11toTitleCaseEv@Base 4.9.0
 _ZNK5Katie5QChar12mirroredCharEv@Base 4.9.0
 _ZNK5Katie5QChar12toCaseFoldedEv@Base 4.9.0
 _ZNK5Katie5QChar13decompositionEv@Base 4.9.0
 _ZNK5Katie5QChar14unicodeVersionEv@Base 4.9.0
 _ZNK5Katie5QChar16decompositionTagEv@Base 4.9.0
 _ZNK5Katie5QChar16isLetterOrNumberEv@Base 4.9.0
 _ZNK5Katie5QChar6isMarkEv@Base 4.9.0
 _ZNK5Katie5QChar7isDigitEv@Base 4.9.0
 _ZNK5Katie5QChar7isLowerEv@Base 4.9.0
 _ZNK5Katie5QChar7isPrintEv@Base 4.9.0
 _ZNK5Katie5QChar7isPunctEv@Base 4.9.0
 _ZNK5Katie5QChar7isSpaceEv@Base 4.9.0
 _ZNK5Katie5QChar7isUpperEv@Base 4.9.0
 _ZNK5Katie5QChar7joiningEv@Base 4.9.0
 _ZNK5Katie5QChar7toAsciiEv@Base 4.9.0
 _ZNK5Katie5QChar7toLowerEv@Base 4.9.0
 _ZNK5Katie5QChar7toUpperEv@Base 4.9.0
 _ZNK5Katie5QChar8categoryEv@Base 4.9.0
 _ZNK5Katie5QChar8isLetterEv@Base 4.9.0
 _ZNK5Katie5QChar8isNumberEv@Base 4.9.0
 _ZNK5Katie5QChar8isSymbolEv@Base 4.9.0
 _ZNK5Katie5QChar9directionEv@Base 4.9.0
 _ZNK5Katie5QDate10daysInYearEv@Base 4.9.0
 _ZNK5Katie5QDate10weekNumberEPi@Base 4.9.0
 _ZNK5Katie5QDate11daysInMonthEv@Base 4.9.0
 _ZNK5Katie5QDate3dayEv@Base 4.9.0
 _ZNK5Katie5QDate4yearEv@Base 4.9.0
 _ZNK5Katie5QDate5monthEv@Base 4.9.0
 _ZNK5Katie5QDate6daysToERKS0_@Base 4.9.0
 _ZNK5Katie5QDate7addDaysEi@Base 4.9.0
 _ZNK5Katie5QDate7getDateEPiS1_S1_@Base 4.9.0
 _ZNK5Katie5QDate7isValidEv@Base 4.9.0
 _ZNK5Katie5QDate8addYearsEi@Base 4.9.0
 _ZNK5Katie5QDate8toStringENS_2Qt10DateFormatE@Base 4.9.0
 _ZNK5Katie5QDate8toStringERKNS_7QStringE@Base 4.9.0
 _ZNK5Katie5QDate9addMonthsEi@Base 4.9.0
 _ZNK5Katie5QDate9dayOfWeekEv@Base 4.9.0
 _ZNK5Katie5QDate9dayOfYearEv@Base 4.9.0
 _ZNK5Katie5QFile10fileEngineEv@Base 4.9.0
 _ZNK5Katie5QFile10metaObjectEv@Base 4.9.0
 _ZNK5Katie5QFile11permissionsEv@Base 4.9.0
 _ZNK5Katie5QFile12isSequentialEv@Base 4.9.0
 _ZNK5Katie5QFile4sizeEv@Base 4.9.0
 _ZNK5Katie5QFile5atEndEv@Base 4.9.0
 _ZNK5Katie5QFile5errorEv@Base 4.9.0
 _ZNK5Katie5QFile6existsEv@Base 4.9.0
 _ZNK5Katie5QFile6handleEv@Base 4.9.0
 _ZNK5Katie5QFile8fileNameEv@Base 4.9.0
 _ZNK5Katie5QFile8readLinkEv@Base 4.9.0
 _ZNK5Katie5QRect10intersectsERKS0_@Base 4.9.0
 _ZNK5Katie5QRect10normalizedEv@Base 4.9.0
 _ZNK5Katie5QRect8containsERKNS_6QPointEb@Base 4.9.0
 _ZNK5Katie5QRect8containsERKS0_b@Base 4.9.0
 _ZNK5Katie5QRectanERKS0_@Base 4.9.0
 _ZNK5Katie5QRectorERKS0_@Base 4.9.0
 _ZNK5Katie5QTime4hourEv@Base 4.9.0
 _ZNK5Katie5QTime4msecEv@Base 4.9.0
 _ZNK5Katie5QTime6minuteEv@Base 4.9.0
 _ZNK5Katie5QTime6secondEv@Base 4.9.0
 _ZNK5Katie5QTime6secsToERKS0_@Base 4.9.0
 _ZNK5Katie5QTime7addSecsEi@Base 4.9.0
 _ZNK5Katie5QTime7elapsedEv@Base 4.9.0
 _ZNK5Katie5QTime7isValidEv@Base 4.9.0
 _ZNK5Katie5QTime7msecsToERKS0_@Base 4.9.0
 _ZNK5Katie5QTime8addMSecsEi@Base 4.9.0
 _ZNK5Katie5QTime8toStringENS_2Qt10DateFormatE@Base 4.9.0
 _ZNK5Katie5QTime8toStringERKNS_7QStringE@Base 4.9.0
 _ZNK5Katie5QUuid11toByteArrayEv@Base 4.9.0
 _ZNK5Katie5QUuid6isNullEv@Base 4.9.0
 _ZNK5Katie5QUuid7variantEv@Base 4.9.0
 _ZNK5Katie5QUuid7versionEv@Base 4.9.0
 _ZNK5Katie5QUuid8toStringEv@Base 4.9.0
 _ZNK5Katie5QUuid9toRfc4122Ev@Base 4.9.0
 _ZNK5Katie5QUuidgtERKS0_@Base 4.9.0
 _ZNK5Katie5QUuidltERKS0_@Base 4.9.0
 _ZNK5Katie6QLineF10unitVectorEv@Base 4.9.0
 _ZNK5Katie6QLineF5angleERKS0_@Base 4.9.0
 _ZNK5Katie6QLineF5angleEv@Base 4.9.0
 _ZNK5Katie6QLineF6isNullEv@Base 4.9.0
 _ZNK5Katie6QLineF6lengthEv@Base 4.9.0
 _ZNK5Katie6QLineF7angleToERKS0_@Base 4.9.0
 _ZNK5Katie6QLineF9intersectERKS0_PNS_7QPointFE@Base 4.9.0
 _ZNK5Katie6QPoint15manhattanLengthEv@Base 4.9.0
 _ZNK5Katie6QRectF10intersectsERKS0_@Base 4.9.0
 _ZNK5Katie6QRectF10normalizedEv@Base 4.9.0
 _ZNK5Katie6QRectF13toAlignedRectEv@Base 4.9.0
 _ZNK5Katie6QRectF8containsERKNS_7QPointFE@Base 4.9.0
 _ZNK5Katie6QRectF8containsERKS0_@Base 4.9.0
 _ZNK5Katie6QRectFanERKS0_@Base 4.9.0
 _ZNK5Katie6QRectForERKS0_@Base 4.9.0
 _ZNK5Katie6QTimer10metaObjectEv@Base 4.9.0
 _ZNK5Katie7QBuffer10metaObjectEv@Base 4.9.0
 _ZNK5Katie7QBuffer11canReadLineEv@Base 4.9.0
 _ZNK5Katie7QBuffer4dataEv@Base 4.9.0
 _ZNK5Katie7QBuffer4sizeEv@Base 4.9.0
 _ZNK5Katie7QBuffer6bufferEv@Base 4.9.0
 _ZNK5Katie7QLocale10dateFormatENS0_10FormatTypeE@Base 4.9.0
 _ZNK5Katie7QLocale10timeFormatENS0_10FormatTypeE@Base 4.9.0
 _ZNK5Katie7QLocale10toDateTimeERKNS_7QStringENS0_10FormatTypeE@Base 4.9.0
 _ZNK5Katie7QLocale10toDateTimeERKNS_7QStringES3_@Base 4.9.0
 _ZNK5Katie7QLocale10toLongLongERKNS_7QStringEPbi@Base 4.9.0
 _ZNK5Katie7QLocale11exponentialEv@Base 4.9.0
 _ZNK5Katie7QLocale11quoteStringERKNS_10QStringRefENS0_14QuotationStyleE@Base 4.9.0
 _ZNK5Katie7QLocale11quoteStringERKNS_7QStringENS0_14QuotationStyleE@Base 4.9.0
 _ZNK5Katie7QLocale11toULongLongERKNS_7QStringEPbi@Base 4.9.0
 _ZNK5Katie7QLocale11uiLanguagesEv@Base 4.9.0
 _ZNK5Katie7QLocale12decimalPointEv@Base 4.9.0
 _ZNK5Katie7QLocale12negativeSignEv@Base 4.9.0
 _ZNK5Katie7QLocale12positiveSignEv@Base 4.9.0
 _ZNK5Katie7QLocale13numberOptionsEv@Base 4.9.0
 _ZNK5Katie7QLocale13textDirectionEv@Base 4.9.0
 _ZNK5Katie7QLocale14currencySymbolENS0_20CurrencySymbolFormatE@Base 4.9.0
 _ZNK5Katie7QLocale14dateTimeFormatENS0_10FormatTypeE@Base 4.9.0
 _ZNK5Katie7QLocale14firstDayOfWeekEv@Base 4.9.0
 _ZNK5Katie7QLocale14groupSeparatorEv@Base 4.9.0
 _ZNK5Katie7QLocale16toCurrencyStringEdRKNS_7QStringE@Base 4.9.0
 _ZNK5Katie7QLocale16toCurrencyStringExRKNS_7QStringE@Base 4.9.0
 _ZNK5Katie7QLocale16toCurrencyStringEyRKNS_7QStringE@Base 4.9.0
 _ZNK5Katie7QLocale17measurementSystemEv@Base 4.9.0
 _ZNK5Katie7QLocale17nativeCountryNameEv@Base 4.9.0
 _ZNK5Katie7QLocale17standaloneDayNameEiNS0_10FormatTypeE@Base 4.9.0
 _ZNK5Katie7QLocale18nativeLanguageNameEv@Base 4.9.0
 _ZNK5Katie7QLocale19createSeparatedListERKNS_11QStringListE@Base 4.9.0
 _ZNK5Katie7QLocale19standaloneMonthNameEiNS0_10FormatTypeE@Base 4.9.0
 _ZNK5Katie7QLocale1dEv@Base 4.9.0
 _ZNK5Katie7QLocale4nameEv@Base 4.9.0
 _ZNK5Katie7QLocale5toIntERKNS_7QStringEPbi@Base 4.9.0
 _ZNK5Katie7QLocale6amTextEv@Base 4.9.0
 _ZNK5Katie7QLocale6pmTextEv@Base 4.9.0
 _ZNK5Katie7QLocale6scriptEv@Base 4.9.0
 _ZNK5Katie7QLocale6toDateERKNS_7QStringENS0_10FormatTypeE@Base 4.9.0
 _ZNK5Katie7QLocale6toDateERKNS_7QStringES3_@Base 4.9.0
 _ZNK5Katie7QLocale6toTimeERKNS_7QStringENS0_10FormatTypeE@Base 4.9.0
 _ZNK5Katie7QLocale6toTimeERKNS_7QStringES3_@Base 4.9.0
 _ZNK5Katie7QLocale6toUIntERKNS_7QStringEPbi@Base 4.9.0
 _ZNK5Katie7QLocale7countryEv@Base 4.9.0
 _ZNK5Katie7QLocale7dayNameEiNS0_10FormatTypeE@Base 4.9.0
 _ZNK5Katie7QLocale7percentEv@Base 4.9.0
 _ZNK5Katie7QLocale7toFloatERKNS_7QStringEPb@Base 4.9.0
 _ZNK5Katie7QLocale7toLowerERKNS_7QStringE@Base 4.9.0
 _ZNK5Katie7QLocale7toShortERKNS_7QStringEPbi@Base 4.9.0
 _ZNK5Katie7QLocale7toUpperERKNS_7QStringE@Base 4.9.0
 _ZNK5Katie7QLocale8languageEv@Base 4.9.0
 _ZNK5Katie7QLocale8toDoubleERKNS_7QStringEPb@Base 4.9.0
 _ZNK5Katie7QLocale8toStringERKNS_5QDateENS0_10FormatTypeE@Base 4.9.0
 _ZNK5Katie7QLocale8toStringERKNS_5QDateERKNS_7QStringE@Base 4.9.0
 _ZNK5Katie7QLocale8toStringERKNS_5QTimeENS0_10FormatTypeE@Base 4.9.0
 _ZNK5Katie7QLocale8toStringERKNS_5QTimeERKNS_7QStringE@Base 4.9.0
 _ZNK5Katie7QLocale8toStringERKNS_9QDateTimeENS0_10FormatTypeE@Base 4.9.0
 _ZNK5Katie7QLocale8toStringERKNS_9QDateTimeERKNS_7QStringE@Base 4.9.0
 _ZNK5Katie7QLocale8toStringEdci@Base 4.9.0
 _ZNK5Katie7QLocale8toStringEx@Base 4.9.0
 _ZNK5Katie7QLocale8toStringEy@Base 4.9.0
 _ZNK5Katie7QLocale8toUShortERKNS_7QStringEPbi@Base 4.9.0
 _ZNK5Katie7QLocale8weekdaysEv@Base 4.9.0
 _ZNK5Katie7QLocale9bcp47NameEv@Base 4.9.0
 _ZNK5Katie7QLocale9monthNameEiNS0_10FormatTypeE@Base 4.9.0
 _ZNK5Katie7QLocale9zeroDigitEv@Base 4.9.0
 _ZNK5Katie7QObject10metaObjectEv@Base 4.9.0
 _ZNK5Katie7QObject10objectNameEv@Base 4.9.0
 _ZNK5Katie7QObject17senderSignalIndexEv@Base 4.9.0
 _ZNK5Katie7QObject20dynamicPropertyNamesEv@Base 4.9.0
 _ZNK5Katie7QObject6senderEv@Base 4.9.0
 _ZNK5Katie7QObject6threadEv@Base 4.9.0
 _ZNK5Katie7QObject8propertyEPKc@Base 4.9.0
 _ZNK5Katie7QObject9receiversEPKc@Base 4.9.0
 _ZNK5Katie7QPointF15manhattanLengthEv@Base 4.9.0
 _ZNK5Katie7QRegExp10exactMatchERKNS_7QStringE@Base 4.9.0
 _ZNK5Katie7QRegExp11errorStringEv@Base 4.9.0
 _ZNK5Katie7QRegExp11lastIndexInERKNS_7QStringEiNS0_9CaretModeE@Base 4.9.0
 _ZNK5Katie7QRegExp12captureCountEv@Base 4.9.0
 _ZNK5Katie7QRegExp13capturedTextsEv@Base 4.9.0
 _ZNK5Katie7QRegExp13matchedLengthEv@Base 4.9.0
 _ZNK5Katie7QRegExp13patternSyntaxEv@Base 4.9.0
 _ZNK5Katie7QRegExp15caseSensitivityEv@Base 4.9.0
 _ZNK5Katie7QRegExp3capEi@Base 4.9.0
 _ZNK5Katie7QRegExp3posEi@Base 4.9.0
 _ZNK5Katie7QRegExp7indexInERKNS_7QStringEiNS0_9CaretModeE@Base 4.9.0
 _ZNK5Katie7QRegExp7isEmptyEv@Base 4.9.0
 _ZNK5Katie7QRegExp7isValidEv@Base 4.9.0
 _ZNK5Katie7QRegExp7patternEv@Base 4.9.0
 _ZNK5Katie7QRegExp9isMinimalEv@Base 4.9.0
 _ZNK5Katie7QRegExpeqERKS0_@Base 4.9.0
 _ZNK5Katie7QString10normalizedENS0_17NormalizationFormE@Base 4.9.0
 _ZNK5Katie7QString10normalizedENS0_17NormalizationFormENS_5QChar14UnicodeVersionE@Base 4.9.0
 _ZNK5Katie7QString10simplifiedEv@Base 4.9.0
 _ZNK5Katie7QString10startsWithERKNS_10QStringRefENS_2Qt15CaseSensitivityE@Base 4.9.0
 _ZNK5Katie7QString10startsWithERKNS_13QLatin1StringENS_2Qt15CaseSensitivityE@Base 4.9.0
 _ZNK5Katie7QString10startsWithERKNS_5QCharENS_2Qt15CaseSensitivityE@Base 4.9.0
 _ZNK5Katie7QString10startsWithERKS0_NS_2Qt15CaseSensitivityE@Base 4.9.0
 _ZNK5Katie7QString10toLongLongEPbi@Base 4.9.0
 _ZNK5Katie7QString11lastIndexOfENS_5QCharEiNS_2Qt15CaseSensitivityE@Base 4.9.0
 _ZNK5Katie7QString11lastIndexOfERKNS_10QStringRefEiNS_2Qt15CaseSensitivityE@Base 4.9.0
 _ZNK5Katie7QString11lastIndexOfERKNS_13QLatin1StringEiNS_2Qt15CaseSensitivityE@Base 4.9.0
 _ZNK5Katie7QString11lastIndexOfERKNS_7QRegExpEi@Base 4.9.0
 _ZNK5Katie7QString11lastIndexOfERKS0_iNS_2Qt15CaseSensitivityE@Base 4.9.0
 _ZNK5Katie7QString11lastIndexOfERNS_7QRegExpEi@Base 4.9.0
 _ZNK5Katie7QString11toLocal8BitEv@Base 4.9.0
 _ZNK5Katie7QString11toULongLongEPbi@Base 4.9.0
 _ZNK5Katie7QString12toCaseFoldedEv@Base 4.9.0
 _ZNK5Katie7QString12toWCharArrayEPw@Base 4.9.0
 _ZNK5Katie7QString13isRightToLeftEv@Base 4.9.0
 _ZNK5Katie7QString13leftJustifiedEiNS_5QCharEb@Base 4.9.0
 _ZNK5Katie7QString14rightJustifiedEiNS_5QCharEb@Base 4.9.0
 _ZNK5Katie7QString18localeAwareCompareERKS0_@Base 4.9.0
 _ZNK5Katie7QString3argENS_5QCharEiRKS1_@Base 4.9.0
 _ZNK5Katie7QString3argERKS0_iRKNS_5QCharE@Base 4.9.0
 _ZNK5Katie7QString3argEciRKNS_5QCharE@Base 4.9.0
 _ZNK5Katie7QString3argEdiciRKNS_5QCharE@Base 4.9.0
 _ZNK5Katie7QString3argExiiRKNS_5QCharE@Base 4.9.0
 _ZNK5Katie7QString3argEyiiRKNS_5QCharE@Base 4.9.0
 _ZNK5Katie7QString3midEii@Base 4.9.0
 _ZNK5Katie7QString4leftEi@Base 4.9.0
 _ZNK5Katie7QString5countENS_5QCharENS_2Qt15CaseSensitivityE@Base 4.9.0
 _ZNK5Katie7QString5countERKNS_10QStringRefENS_2Qt15CaseSensitivityE@Base 4.9.0
 _ZNK5Katie7QString5countERKNS_7QRegExpE@Base 4.9.0
 _ZNK5Katie7QString5countERKS0_NS_2Qt15CaseSensitivityE@Base 4.9.0
 _ZNK5Katie7QString5rightEi@Base 4.9.0
 _ZNK5Katie7QString5splitERKNS_5QCharENS0_13SplitBehaviorENS_2Qt15CaseSensitivityE@Base 4.9.0
 _ZNK5Katie7QString5splitERKNS_7QRegExpENS0_13SplitBehaviorE@Base 4.9.0
 _ZNK5Katie7QString5splitERKS0_NS0_13SplitBehaviorENS_2Qt15CaseSensitivityE@Base 4.9.0
 _ZNK5Katie7QString5toIntEPbi@Base 4.9.0
 _ZNK5Katie7QString5utf16Ev@Base 4.9.0
 _ZNK5Katie7QString6midRefEii@Base 4.9.0
 _ZNK5Katie7QString6toLongEPbi@Base 4.9.0
 _ZNK5Katie7QString6toUIntEPbi@Base 4.9.0
 _ZNK5Katie7QString6toUcs4Ev@Base 4.9.0
 _ZNK5Katie7QString6toUtf8Ev@Base 4.9.0
 _ZNK5Katie7QString7compareERKNS_13QLatin1StringENS_2Qt15CaseSensitivityE@Base 4.9.0
 _ZNK5Katie7QString7compareERKS0_NS_2Qt15CaseSensitivityE@Base 4.9.0
 _ZNK5Katie7QString7indexOfENS_5QCharEiNS_2Qt15CaseSensitivityE@Base 4.9.0
 _ZNK5Katie7QString7indexOfERKNS_10QStringRefEiNS_2Qt15CaseSensitivityE@Base 4.9.0
 _ZNK5Katie7QString7indexOfERKNS_13QLatin1StringEiNS_2Qt15CaseSensitivityE@Base 4.9.0
 _ZNK5Katie7QString7indexOfERKNS_7QRegExpEi@Base 4.9.0
 _ZNK5Katie7QString7indexOfERKS0_iNS_2Qt15CaseSensitivityE@Base 4.9.0
 _ZNK5Katie7QString7indexOfERNS_7QRegExpEi@Base 4.9.0
 _ZNK5Katie7QString7leftRefEi@Base 4.9.0
 _ZNK5Katie7QString7sectionERKNS_7QRegExpEiiNS_6QFlagsINS0_11SectionFlagEEE@Base 4.9.0
 _ZNK5Katie7QString7sectionERKS0_iiNS_6QFlagsINS0_11SectionFlagEEE@Base 4.9.0
 _ZNK5Katie7QString7toAsciiEv@Base 4.9.0
 _ZNK5Katie7QString7toFloatEPb@Base 4.9.0
 _ZNK5Katie7QString7toLowerEv@Base 4.9.0
 _ZNK5Katie7QString7toShortEPbi@Base 4.9.0
 _ZNK5Katie7QString7toULongEPbi@Base 4.9.0
 _ZNK5Katie7QString7toUpperEv@Base 4.9.0
 _ZNK5Katie7QString7trimmedEv@Base 4.9.0
 _ZNK5Katie7QString8endsWithERKNS_10QStringRefENS_2Qt15CaseSensitivityE@Base 4.9.0
 _ZNK5Katie7QString8endsWithERKNS_13QLatin1StringENS_2Qt15CaseSensitivityE@Base 4.9.0
 _ZNK5Katie7QString8endsWithERKNS_5QCharENS_2Qt15CaseSensitivityE@Base 4.9.0
 _ZNK5Katie7QString8endsWithERKS0_NS_2Qt15CaseSensitivityE@Base 4.9.0
 _ZNK5Katie7QString8multiArgEiPPKS0_@Base 4.9.0
 _ZNK5Katie7QString8repeatedEi@Base 4.9.0
 _ZNK5Katie7QString8rightRefEi@Base 4.9.0
 _ZNK5Katie7QString8toDoubleEPb@Base 4.9.0
 _ZNK5Katie7QString8toLatin1Ev@Base 4.9.0
 _ZNK5Katie7QString8toUShortEPbi@Base 4.9.0
 _ZNK5Katie7QStringeqERKNS_13QLatin1StringE@Base 4.9.0
 _ZNK5Katie7QStringeqERKS0_@Base 4.9.0
 _ZNK5Katie7QStringgtERKNS_13QLatin1StringE@Base 4.9.0
 _ZNK5Katie7QStringltERKNS_13QLatin1StringE@Base 4.9.0
 _ZNK5Katie7QStringltERKS0_@Base 4.9.0
 _ZNK5Katie7QThread10isFinishedEv@Base 4.9.0
 _ZNK5Katie7QThread10metaObjectEv@Base 4.9.0
 _ZNK5Katie7QThread8priorityEv@Base 4.9.0
 _ZNK5Katie7QThread9isRunningEv@Base 4.9.0
 _ZNK5Katie7QThread9stackSizeEv@Base 4.9.0
 _ZNK5Katie8QLibrary10metaObjectEv@Base 4.9.0
 _ZNK5Katie8QLibrary11errorStringEv@Base 4.9.0
 _ZNK5Katie8QLibrary8fileNameEv@Base 4.9.0
 _ZNK5Katie8QLibrary8isLoadedEv@Base 4.9.0
 _ZNK5Katie8QLibrary9loadHintsEv@Base 4.9.0
 _ZNK5Katie8QProcess10exitStatusEv@Base 4.9.0
 _ZNK5Katie8QProcess10metaObjectEv@Base 4.9.0
 _ZNK5Katie8QProcess11canReadLineEv@Base 4.9.0
 _ZNK5Katie8QProcess11environmentEv@Base 4.9.0
 _ZNK5Katie8QProcess11readChannelEv@Base 4.9.0
 _ZNK5Katie8QProcess12bytesToWriteEv@Base 4.9.0
 _ZNK5Katie8QProcess12isSequentialEv@Base 4.9.0
 _ZNK5Katie8QProcess14bytesAvailableEv@Base 4.9.0
 _ZNK5Katie8QProcess16workingDirectoryEv@Base 4.9.0
 _ZNK5Katie8QProcess18processChannelModeEv@Base 4.9.0
 _ZNK5Katie8QProcess18processEnvironmentEv@Base 4.9.0
 _ZNK5Katie8QProcess3pidEv@Base 4.9.0
 _ZNK5Katie8QProcess5atEndEv@Base 4.9.0
 _ZNK5Katie8QProcess5errorEv@Base 4.9.0
 _ZNK5Katie8QProcess5stateEv@Base 4.9.0
 _ZNK5Katie8QProcess8exitCodeEv@Base 4.9.0
 _ZNK5Katie8QVariant10canConvertENS0_4TypeE@Base 4.9.0
 _ZNK5Katie8QVariant10toBitArrayEv@Base 4.9.0
 _ZNK5Katie8QVariant10toDateTimeEv@Base 4.9.0
 _ZNK5Katie8QVariant10toLongLongEPb@Base 4.9.0
 _ZNK5Katie8QVariant11toByteArrayEv@Base 4.9.0
 _ZNK5Katie8QVariant11toJsonArrayEv@Base 4.9.0
 _ZNK5Katie8QVariant11toJsonValueEv@Base 4.9.0
 _ZNK5Katie8QVariant11toULongLongEPb@Base 4.9.0
 _ZNK5Katie8QVariant12toJsonObjectEv@Base 4.9.0
 _ZNK5Katie8QVariant12toStringListEv@Base 4.9.0
 _ZNK5Katie8QVariant13toEasingCurveEv@Base 4.9.0
 _ZNK5Katie8QVariant14toJsonDocumentEv@Base 4.9.0
 _ZNK5Katie8QVariant3cmpERKS0_@Base 4.9.0
 _ZNK5Katie8QVariant4saveERNS_11QDataStreamE@Base 4.9.0
 _ZNK5Katie8QVariant4typeEv@Base 4.9.0
 _ZNK5Katie8QVariant5toIntEPb@Base 4.9.0
 _ZNK5Katie8QVariant5toMapEv@Base 4.9.0
 _ZNK5Katie8QVariant5toUrlEv@Base 4.9.0
 _ZNK5Katie8QVariant6isNullEv@Base 4.9.0
 _ZNK5Katie8QVariant6toBoolEv@Base 4.9.0
 _ZNK5Katie8QVariant6toCharEv@Base 4.9.0
 _ZNK5Katie8QVariant6toDateEv@Base 4.9.0
 _ZNK5Katie8QVariant6toHashEv@Base 4.9.0
 _ZNK5Katie8QVariant6toLineEv@Base 4.9.0
 _ZNK5Katie8QVariant6toListEv@Base 4.9.0
 _ZNK5Katie8QVariant6toRealEPb@Base 4.9.0
 _ZNK5Katie8QVariant6toRectEv@Base 4.9.0
 _ZNK5Katie8QVariant6toSizeEv@Base 4.9.0
 _ZNK5Katie8QVariant6toTimeEv@Base 4.9.0
 _ZNK5Katie8QVariant6toUIntEPb@Base 4.9.0
 _ZNK5Katie8QVariant7toFloatEPb@Base 4.9.0
 _ZNK5Katie8QVariant7toLineFEv@Base 4.9.0
 _ZNK5Katie8QVariant7toPointEv@Base 4.9.0
 _ZNK5Katie8QVariant7toRectFEv@Base 4.9.0
 _ZNK5Katie8QVariant7toSizeFEv@Base 4.9.0
 _ZNK5Katie8QVariant8toDoubleEPb@Base 4.9.0
 _ZNK5Katie8QVariant8toLocaleEv@Base 4.9.0
 _ZNK5Katie8QVariant8toPointFEv@Base 4.9.0
 _ZNK5Katie8QVariant8toRegExpEv@Base 4.9.0
 _ZNK5Katie8QVariant8toStringEv@Base 4.9.0
 _ZNK5Katie8QVariant8typeNameEv@Base 4.9.0
 _ZNK5Katie8QVariant8userTypeEv@Base 4.9.0
 _ZNK5Katie8QVariant9constDataEv@Base 4.9.0
 _ZNK5Katie9QBitArray5countEb@Base 4.9.0
 _ZNK5Katie9QBitArraycoEv@Base 4.9.0
 _ZNK5Katie9QDateTime10toTimeSpecENS_2Qt8TimeSpecE@Base 4.9.0
 _ZNK5Katie9QDateTime17toMSecsSinceEpochEv@Base 4.9.0
 _ZNK5Katie9QDateTime4dateEv@Base 4.9.0
 _ZNK5Katie9QDateTime4timeEv@Base 4.9.0
 _ZNK5Katie9QDateTime6daysToERKS0_@Base 4.9.0
 _ZNK5Katie9QDateTime6isNullEv@Base 4.9.0
 _ZNK5Katie9QDateTime6secsToERKS0_@Base 4.9.0
 _ZNK5Katie9QDateTime7addDaysEi@Base 4.9.0
 _ZNK5Katie9QDateTime7addSecsEi@Base 4.9.0
 _ZNK5Katie9QDateTime7isValidEv@Base 4.9.0
 _ZNK5Katie9QDateTime7msecsToERKS0_@Base 4.9.0
 _ZNK5Katie9QDateTime8addMSecsEx@Base 4.9.0
 _ZNK5Katie9QDateTime8addYearsEi@Base 4.9.0
 _ZNK5Katie9QDateTime8timeSpecEv@Base 4.9.0
 _ZNK5Katie9QDateTime8toStringENS_2Qt10DateFormatE@Base 4.9.0
 _ZNK5Katie9QDateTime8toStringERKNS_7QStringE@Base 4.9.0
 _ZNK5Katie9QDateTime8toTime_tEv@Base 4.9.0
 _ZNK5Katie9QDateTime9addMonthsEi@Base 4.9.0
 _ZNK5Katie9QDateTime9utcOffsetEv@Base 4.9.0
 _ZNK5Katie9QDateTimeeqERKS0_@Base 4.9.0
 _ZNK5Katie9QDateTimeltERKS0_@Base 4.9.0
 _ZNK5Katie9QFileInfo10isReadableEv@Base 4.9.0
 _ZNK5Katie9QFileInfo10isRelativeEv@Base 4.9.0
 _ZNK5Katie9QFileInfo10isWritableEv@Base 4.9.0
 _ZNK5Katie9QFileInfo10permissionENS_6QFlagsINS_5QFile10PermissionEEE@Base 4.9.0
 _ZNK5Katie9QFileInfo11absoluteDirEv@Base 4.9.0
 _ZNK5Katie9QFileInfo11permissionsEv@Base 4.9.0
 _ZNK5Katie9QFileInfo12absolutePathEv@Base 4.9.0
 _ZNK5Katie9QFileInfo12isExecutableEv@Base 4.9.0
 _ZNK5Katie9QFileInfo12lastModifiedEv@Base 4.9.0
 _ZNK5Katie9QFileInfo13canonicalPathEv@Base 4.9.0
 _ZNK5Katie9QFileInfo14completeSuffixEv@Base 4.9.0
 _ZNK5Katie9QFileInfo16absoluteFilePathEv@Base 4.9.0
 _ZNK5Katie9QFileInfo16completeBaseNameEv@Base 4.9.0
 _ZNK5Katie9QFileInfo17canonicalFilePathEv@Base 4.9.0
 _ZNK5Katie9QFileInfo3dirEv@Base 4.9.0
 _ZNK5Katie9QFileInfo4pathEv@Base 4.9.0
 _ZNK5Katie9QFileInfo4sizeEv@Base 4.9.0
 _ZNK5Katie9QFileInfo5groupEv@Base 4.9.0
 _ZNK5Katie9QFileInfo5isDirEv@Base 4.9.0
 _ZNK5Katie9QFileInfo5ownerEv@Base 4.9.0
 _ZNK5Katie9QFileInfo6d_funcEv@Base 4.9.0
 _ZNK5Katie9QFileInfo6existsEv@Base 4.9.0
 _ZNK5Katie9QFileInfo6isFileEv@Base 4.9.0
 _ZNK5Katie9QFileInfo6isRootEv@Base 4.9.0
 _ZNK5Katie9QFileInfo6suffixEv@Base 4.9.0
 _ZNK5Katie9QFileInfo7cachingEv@Base 4.9.0
 _ZNK5Katie9QFileInfo7createdEv@Base 4.9.0
 _ZNK5Katie9QFileInfo7groupIdEv@Base 4.9.0
 _ZNK5Katie9QFileInfo7ownerIdEv@Base 4.9.0
 _ZNK5Katie9QFileInfo8baseNameEv@Base 4.9.0
 _ZNK5Katie9QFileInfo8fileNameEv@Base 4.9.0
 _ZNK5Katie9QFileInfo8filePathEv@Base 4.9.0
 _ZNK5Katie9QFileInfo8isHiddenEv@Base 4.9.0
 _ZNK5Katie9QFileInfo8lastReadEv@Base 4.9.0
 _ZNK5Katie9QFileInfo8readLinkEv@Base 4.9.0
 _ZNK5Katie9QFileInfo9isSymLinkEv@Base 4.9.0
 _ZNK5Katie9QFileInfoeqERKS0_@Base 4.9.0
 _ZNK5Katie9QIODevice10isReadableEv@Base 4.9.0
 _ZNK5Katie9QIODevice10isWritableEv@Base 4.9.0
 _ZNK5Katie9QIODevice10metaObjectEv@Base 4.9.0
 _ZNK5Katie9QIODevice11canReadLineEv@Base 4.9.0
 _ZNK5Katie9QIODevice11errorStringEv@Base 4.9.0
 _ZNK5Katie9QIODevice12bytesToWriteEv@Base 4.9.0
 _ZNK5Katie9QIODevice12isSequentialEv@Base 4.9.0
 _ZNK5Katie9QIODevice14bytesAvailableEv@Base 4.9.0
 _ZNK5Katie9QIODevice17isTextModeEnabledEv@Base 4.9.0
 _ZNK5Katie9QIODevice3posEv@Base 4.9.0
 _ZNK5Katie9QIODevice4sizeEv@Base 4.9.0
 _ZNK5Katie9QIODevice5atEndEv@Base 4.9.0
 _ZNK5Katie9QIODevice6isOpenEv@Base 4.9.0
 _ZNK5Katie9QIODevice8openModeEv@Base 4.9.0
 _ZNK5Katie9QMetaEnum10keyToValueEPKc@Base 4.9.0
 _ZNK5Katie9QMetaEnum10valueToKeyEi@Base 4.9.0
 _ZNK5Katie9QMetaEnum11keysToValueEPKc@Base 4.9.0
 _ZNK5Katie9QMetaEnum11valueToKeysEi@Base 4.9.0
 _ZNK5Katie9QMetaEnum3keyEi@Base 4.9.0
 _ZNK5Katie9QMetaEnum4nameEv@Base 4.9.0
 _ZNK5Katie9QMetaEnum5scopeEv@Base 4.9.0
 _ZNK5Katie9QMetaEnum5valueEi@Base 4.9.0
 _ZNK5Katie9QMetaEnum6isFlagEv@Base 4.9.0
 _ZNK5Katie9QMetaEnum8keyCountEv@Base 4.9.0
 _ZNK5Katie9QMimeData10metaObjectEv@Base 4.9.0
 _ZNK5Katie9QMimeData12retrieveDataERKNS_7QStringENS_8QVariant4TypeE@Base 4.9.0
 _ZNK5Katie9QMimeData4dataERKNS_7QStringE@Base 4.9.0
 _ZNK5Katie9QMimeData4htmlEv@Base 4.9.0
 _ZNK5Katie9QMimeData4textEv@Base 4.9.0
 _ZNK5Katie9QMimeData4urlsEv@Base 4.9.0
 _ZNK5Katie9QMimeData7formatsEv@Base 4.9.0
 _ZNK5Katie9QMimeData7hasHtmlEv@Base 4.9.0
 _ZNK5Katie9QMimeData7hasTextEv@Base 4.9.0
 _ZNK5Katie9QMimeData7hasUrlsEv@Base 4.9.0
 _ZNK5Katie9QMimeData8hasColorEv@Base 4.9.0
 _ZNK5Katie9QMimeData8hasImageEv@Base 4.9.0
 _ZNK5Katie9QMimeData9colorDataEv@Base 4.9.0
 _ZNK5Katie9QMimeData9hasFormatERKNS_7QStringE@Base 4.9.0
 _ZNK5Katie9QMimeData9imageDataEv@Base 4.9.0
 _ZNK5Katie9QResource12isCompressedEv@Base 4.9.0
 _ZNK5Katie9QResource16absoluteFilePathEv@Base 4.9.0
 _ZNK5Katie9QResource4dataEv@Base 4.9.0
 _ZNK5Katie9QResource4sizeEv@Base 4.9.0
 _ZNK5Katie9QResource5isDirEv@Base 4.9.0
 _ZNK5Katie9QResource6localeEv@Base 4.9.0
 _ZNK5Katie9QResource7isValidEv@Base 4.9.0
 _ZNK5Katie9QResource8childrenEv@Base 4.9.0
 _ZNK5Katie9QResource8fileNameEv@Base 4.9.0
 _ZNK5Katie9QSettings10isWritableEv@Base 4.9.0
 _ZNK5Katie9QSettings10metaObjectEv@Base 4.9.0
 _ZNK5Katie9QSettings11childGroupsEv@Base 4.9.0
 _ZNK5Katie9QSettings15applicationNameEv@Base 4.9.0
 _ZNK5Katie9QSettings16fallbacksEnabledEv@Base 4.9.0
 _ZNK5Katie9QSettings16organizationNameEv@Base 4.9.0
 _ZNK5Katie9QSettings5groupEv@Base 4.9.0
 _ZNK5Katie9QSettings5scopeEv@Base 4.9.0
 _ZNK5Katie9QSettings5valueERKNS_7QStringERKNS_8QVariantE@Base 4.9.0
 _ZNK5Katie9QSettings6formatEv@Base 4.9.0
 _ZNK5Katie9QSettings6statusEv@Base 4.9.0
 _ZNK5Katie9QSettings7allKeysEv@Base 4.9.0
 _ZNK5Katie9QSettings8containsERKNS_7QStringE@Base 4.9.0
 _ZNK5Katie9QSettings8fileNameEv@Base 4.9.0
 _ZNK5Katie9QSettings8iniCodecEv@Base 4.9.0
 _ZNK5Katie9QSettings9childKeysEv@Base 4.9.0
 _ZNK5Katie9QTimeLine10curveShapeEv@Base 4.9.0
 _ZNK5Katie9QTimeLine10metaObjectEv@Base 4.9.0
 _ZNK5Katie9QTimeLine10startFrameEv@Base 4.9.0
 _ZNK5Katie9QTimeLine11currentTimeEv@Base 4.9.0
 _ZNK5Katie9QTimeLine11easingCurveEv@Base 4.9.0
 _ZNK5Katie9QTimeLine12currentFrameEv@Base 4.9.0
 _ZNK5Katie9QTimeLine12currentValueEv@Base 4.9.0
 _ZNK5Katie9QTimeLine12frameForTimeEi@Base 4.9.0
 _ZNK5Katie9QTimeLine12valueForTimeEi@Base 4.9.0
 _ZNK5Katie9QTimeLine14updateIntervalEv@Base 4.9.0
 _ZNK5Katie9QTimeLine5stateEv@Base 4.9.0
 _ZNK5Katie9QTimeLine8durationEv@Base 4.9.0
 _ZNK5Katie9QTimeLine8endFrameEv@Base 4.9.0
 _ZNK5Katie9QTimeLine9directionEv@Base 4.9.0
 _ZNK5Katie9QTimeLine9loopCountEv@Base 4.9.0
 _ZTIN5Katie10QEventLoopE@Base 4.9.0
 _ZTIN5Katie10QTextCodecE@Base 4.9.0
 _ZTIN5Katie11QChildEventE@Base 4.9.0
 _ZTIN5Katie11QDataStreamE@Base 4.9.0
 _ZTIN5Katie11QTextStreamE@Base 4.9.0
 _ZTIN5Katie11QThreadPoolE@Base 4.9.0
 _ZTIN5Katie11QTimerEventE@Base 4.9.0
 _ZTIN5Katie11QTranslatorE@Base 4.9.0
 _ZTIN5Katie12QDirIteratorE@Base 4.9.0
 _ZTIN5Katie12QtConcurrent15ResultStoreBaseE@Base 4.9.0
 _ZTIN5Katie12QtConcurrent16ThreadEngineBaseE@Base 4.9.0
 _ZTIN5Katie12QtConcurrent18UnhandledExceptionE@Base 4.9.0
 _ZTIN5Katie12QtConcurrent9ExceptionE@Base 4.9.0
 _ZTIN5Katie13QFSFileEngineE@Base 4.9.0
 _ZTIN5Katie13QPluginLoaderE@Base 4.9.0
 _ZTIN5Katie13QSharedMemoryE@Base 4.9.0
 _ZTIN5Katie13QSignalMapperE@Base 4.9.0
 _ZTIN5Katie13QSystemLocaleE@Base 4.9.0
 _ZTIN5Katie14QFactoryLoaderE@Base 4.9.0
 _ZTIN5Katie14QMetaCallEventE@Base 4.9.0
 _ZTIN5Katie14QObjectPrivateE@Base 4.9.0
 _ZTIN5Katie14QTemporaryFileE@Base 4.9.0
 _ZTIN5Katie15QDateTimeParserE@Base 4.9.0
 _ZTIN5Katie15QSocketNotifierE@Base 4.9.0
 _ZTIN5Katie16QCoreApplicationE@Base 4.9.0
 _ZTIN5Katie16QIODevicePrivateE@Base 4.9.0
 _ZTIN5Katie16QTextCodecPluginE@Base 4.9.0
 _ZTIN5Katie17QFactoryInterfaceE@Base 4.9.0
 _ZTIN5Katie18QAbstractItemModelE@Base 4.9.0
 _ZTIN5Katie18QAbstractListModelE@Base 4.9.0
 _ZTIN5Katie18QFileSystemWatcherE@Base 4.9.0
 _ZTIN5Katie18QFutureWatcherBaseE@Base 4.9.0
 _ZTIN5Katie19QAbstractFileEngineE@Base 4.9.0
 _ZTIN5Katie19QAbstractTableModelE@Base 4.9.0
 _ZTIN5Katie20QEventDispatcherUNIXE@Base 4.9.0
 _ZTIN5Katie20QFutureInterfaceBaseE@Base 4.9.0
 _ZTIN5Katie21QObjectCleanupHandlerE@Base 4.9.0
 _ZTIN5Katie23QCoreApplicationPrivateE@Base 4.9.0
 _ZTIN5Katie24QAbstractEventDispatcherE@Base 4.9.0
 _ZTIN5Katie24QNonContiguousByteDeviceE@Base 4.9.0
 _ZTIN5Katie25QAbstractItemModelPrivateE@Base 4.9.0
 _ZTIN5Katie26QAbstractFileEngineHandlerE@Base 4.9.0
 _ZTIN5Katie26QTextCodecFactoryInterfaceE@Base 4.9.0
 _ZTIN5Katie27QAbstractFileEngineIteratorE@Base 4.9.0
 _ZTIN5Katie27QDynamicPropertyChangeEventE@Base 4.9.0
 _ZTIN5Katie27QEventDispatcherUNIXPrivateE@Base 4.9.0
 _ZTIN5Katie31QAbstractEventDispatcherPrivateE@Base 4.9.0
 _ZTIN5Katie5QFileE@Base 4.9.0
 _ZTIN5Katie6QEventE@Base 4.9.0
 _ZTIN5Katie6QTimerE@Base 4.9.0
 _ZTIN5Katie7QBufferE@Base 4.9.0
 _ZTIN5Katie7QObjectE@Base 4.9.0
 _ZTIN5Katie7QThreadE@Base 4.9.0
 _ZTIN5Katie8QLibraryE@Base 4.9.0
 _ZTIN5Katie8QProcessE@Base 4.9.0
 _ZTIN5Katie9QIODeviceE@Base 4.9.0
 _ZTIN5Katie9QMimeDataE@Base 4.9.0
 _ZTIN5Katie9QSettingsE@Base 4.9.0
 _ZTIN5Katie9QTimeLineE@Base 4.9.0
 _ZTSN5Katie10QEventLoopE@Base 4.9.0
 _ZTSN5Katie10QTextCodecE@Base 4.9.0
 _ZTSN5Katie11QChildEventE@Base 4.9.0
 _ZTSN5Katie11QDataStreamE@Base 4.9.0
 _ZTSN5Katie11QTextStreamE@Base 4.9.0
 _ZTSN5Katie11QThreadPoolE@Base 4.9.0
 _ZTSN5Katie11QTimerEventE@Base 4.9.0
 _ZTSN5Katie11QTranslatorE@Base 4.9.0
 _ZTSN5Katie12QDirIteratorE@Base 4.9.0
 _ZTSN5Katie12QtConcurrent15ResultStoreBaseE@Base 4.9.0
 _ZTSN5Katie12QtConcurrent16ThreadEngineBaseE@Base 4.9.0
 _ZTSN5Katie12QtConcurrent18UnhandledExceptionE@Base 4.9.0
 _ZTSN5Katie12QtConcurrent9ExceptionE@Base 4.9.0
 _ZTSN5Katie13QFSFileEngineE@Base 4.9.0
 _ZTSN5Katie13QPluginLoaderE@Base 4.9.0
 _ZTSN5Katie13QSharedMemoryE@Base 4.9.0
 _ZTSN5Katie13QSignalMapperE@Base 4.9.0
 _ZTSN5Katie13QSystemLocaleE@Base 4.9.0
 _ZTSN5Katie14QFactoryLoaderE@Base 4.9.0
 _ZTSN5Katie14QMetaCallEventE@Base 4.9.0
 _ZTSN5Katie14QObjectPrivateE@Base 4.9.0
 _ZTSN5Katie14QTemporaryFileE@Base 4.9.0
 _ZTSN5Katie15QDateTimeParserE@Base 4.9.0
 _ZTSN5Katie15QSocketNotifierE@Base 4.9.0
 _ZTSN5Katie16QCoreApplicationE@Base 4.9.0
 _ZTSN5Katie16QIODevicePrivateE@Base 4.9.0
 _ZTSN5Katie16QTextCodecPluginE@Base 4.9.0
 _ZTSN5Katie17QFactoryInterfaceE@Base 4.9.0
 _ZTSN5Katie18QAbstractItemModelE@Base 4.9.0
 _ZTSN5Katie18QAbstractListModelE@Base 4.9.0
 _ZTSN5Katie18QFileSystemWatcherE@Base 4.9.0
 _ZTSN5Katie18QFutureWatcherBaseE@Base 4.9.0
 _ZTSN5Katie19QAbstractFileEngineE@Base 4.9.0
 _ZTSN5Katie19QAbstractTableModelE@Base 4.9.0
 _ZTSN5Katie20QEventDispatcherUNIXE@Base 4.9.0
 _ZTSN5Katie20QFutureInterfaceBaseE@Base 4.9.0
 _ZTSN5Katie21QObjectCleanupHandlerE@Base 4.9.0
 _ZTSN5Katie23QCoreApplicationPrivateE@Base 4.9.0
 _ZTSN5Katie24QAbstractEventDispatcherE@Base 4.9.0
 _ZTSN5Katie24QNonContiguousByteDeviceE@Base 4.9.0
 _ZTSN5Katie25QAbstractItemModelPrivateE@Base 4.9.0
 _ZTSN5Katie26QAbstractFileEngineHandlerE@Base 4.9.0
 _ZTSN5Katie26QTextCodecFactoryInterfaceE@Base 4.9.0
 _ZTSN5Katie27QAbstractFileEngineIteratorE@Base 4.9.0
 _ZTSN5Katie27QDynamicPropertyChangeEventE@Base 4.9.0
 _ZTSN5Katie27QEventDispatcherUNIXPrivateE@Base 4.9.0
 _ZTSN5Katie31QAbstractEventDispatcherPrivateE@Base 4.9.0
 _ZTSN5Katie5QFileE@Base 4.9.0
 _ZTSN5Katie6QEventE@Base 4.9.0
 _ZTSN5Katie6QTimerE@Base 4.9.0
 _ZTSN5Katie7QBufferE@Base 4.9.0
 _ZTSN5Katie7QObjectE@Base 4.9.0
 _ZTSN5Katie7QThreadE@Base 4.9.0
 _ZTSN5Katie8QLibraryE@Base 4.9.0
 _ZTSN5Katie8QProcessE@Base 4.9.0
 _ZTSN5Katie9QIODeviceE@Base 4.9.0
 _ZTSN5Katie9QMimeDataE@Base 4.9.0
 _ZTSN5Katie9QSettingsE@Base 4.9.0
 _ZTSN5Katie9QTimeLineE@Base 4.9.0
 _ZTVN5Katie10QEventLoopE@Base 4.9.0
 _ZTVN5Katie10QTextCodecE@Base 4.9.0
 _ZTVN5Katie11QChildEventE@Base 4.9.0
 _ZTVN5Katie11QDataStreamE@Base 4.9.0
 _ZTVN5Katie11QTextStreamE@Base 4.9.0
 _ZTVN5Katie11QThreadPoolE@Base 4.9.0
 _ZTVN5Katie11QTimerEventE@Base 4.9.0
 _ZTVN5Katie11QTranslatorE@Base 4.9.0
 _ZTVN5Katie12QDirIteratorE@Base 4.9.0
 _ZTVN5Katie12QtConcurrent15ResultStoreBaseE@Base 4.9.0
 _ZTVN5Katie12QtConcurrent16ThreadEngineBaseE@Base 4.9.0
 _ZTVN5Katie12QtConcurrent18UnhandledExceptionE@Base 4.9.0
 _ZTVN5Katie12QtConcurrent9ExceptionE@Base 4.9.0
 _ZTVN5Katie13QFSFileEngineE@Base 4.9.0
 _ZTVN5Katie13QPluginLoaderE@Base 4.9.0
 _ZTVN5Katie13QSharedMemoryE@Base 4.9.0
 _ZTVN5Katie13QSignalMapperE@Base 4.9.0
 _ZTVN5Katie13QSystemLocaleE@Base 4.9.0
 _ZTVN5Katie14QFactoryLoaderE@Base 4.9.0
 _ZTVN5Katie14QMetaCallEventE@Base 4.9.0
 _ZTVN5Katie14QObjectPrivateE@Base 4.9.0
 _ZTVN5Katie14QTemporaryFileE@Base 4.9.0
 _ZTVN5Katie15QDateTimeParserE@Base 4.9.0
 _ZTVN5Katie15QSocketNotifierE@Base 4.9.0
 _ZTVN5Katie16QCoreApplicationE@Base 4.9.0
 _ZTVN5Katie16QIODevicePrivateE@Base 4.9.0
 _ZTVN5Katie16QTextCodecPluginE@Base 4.9.0
 _ZTVN5Katie18QAbstractItemModelE@Base 4.9.0
 _ZTVN5Katie18QAbstractListModelE@Base 4.9.0
 _ZTVN5Katie18QFileSystemWatcherE@Base 4.9.0
 _ZTVN5Katie18QFutureWatcherBaseE@Base 4.9.0
 _ZTVN5Katie19QAbstractFileEngineE@Base 4.9.0
 _ZTVN5Katie19QAbstractTableModelE@Base 4.9.0
 _ZTVN5Katie20QEventDispatcherUNIXE@Base 4.9.0
 _ZTVN5Katie20QFutureInterfaceBaseE@Base 4.9.0
 _ZTVN5Katie21QObjectCleanupHandlerE@Base 4.9.0
 _ZTVN5Katie23QCoreApplicationPrivateE@Base 4.9.0
 _ZTVN5Katie24QAbstractEventDispatcherE@Base 4.9.0
 _ZTVN5Katie24QNonContiguousByteDeviceE@Base 4.9.0
 _ZTVN5Katie25QAbstractItemModelPrivateE@Base 4.9.0
 _ZTVN5Katie26QAbstractFileEngineHandlerE@Base 4.9.0
 _ZTVN5Katie27QAbstractFileEngineIteratorE@Base 4.9.0
 _ZTVN5Katie27QDynamicPropertyChangeEventE@Base 4.9.0
 _ZTVN5Katie27QEventDispatcherUNIXPrivateE@Base 4.9.0
 _ZTVN5Katie31QAbstractEventDispatcherPrivateE@Base 4.9.0
 _ZTVN5Katie5QFileE@Base 4.9.0
 _ZTVN5Katie6QEventE@Base 4.9.0
 _ZTVN5Katie6QTimerE@Base 4.9.0
 _ZTVN5Katie7QBufferE@Base 4.9.0
 _ZTVN5Katie7QObjectE@Base 4.9.0
 _ZTVN5Katie7QThreadE@Base 4.9.0
 _ZTVN5Katie8QLibraryE@Base 4.9.0
 _ZTVN5Katie8QProcessE@Base 4.9.0
 _ZTVN5Katie9QIODeviceE@Base 4.9.0
 _ZTVN5Katie9QMimeDataE@Base 4.9.0
 _ZTVN5Katie9QSettingsE@Base 4.9.0
 _ZTVN5Katie9QTimeLineE@Base 4.9.0
 _ZThn8_N5Katie16QTextCodecPlugin6createERKNS_7QStringE@Base 4.9.0
 _ZThn8_N5Katie16QTextCodecPluginD0Ev@Base 4.9.0
 _ZThn8_N5Katie16QTextCodecPluginD1Ev@Base 4.9.0
 _ZThn8_NK5Katie16QTextCodecPlugin4keysEv@Base 4.9.0
 qt_startup_hook@Base 4.9.0
libKtDBus.so.4.9.0 katie-git #MINVER#
 _ZN5Katie10QDBusError11errorStringENS0_9ErrorTypeE@Base 4.9.0
 _ZN5Katie10QDBusErrorC1ENS0_9ErrorTypeERKNS_7QStringE@Base 4.9.0
 _ZN5Katie10QDBusErrorC1EPK9DBusError@Base 4.9.0
 _ZN5Katie10QDBusErrorC1ERKNS_12QDBusMessageE@Base 4.9.0
 _ZN5Katie10QDBusErrorC1ERKS0_@Base 4.9.0
 _ZN5Katie10QDBusErrorC2ENS0_9ErrorTypeERKNS_7QStringE@Base 4.9.0
 _ZN5Katie10QDBusErrorC2EPK9DBusError@Base 4.9.0
 _ZN5Katie10QDBusErrorC2ERKNS_12QDBusMessageE@Base 4.9.0
 _ZN5Katie10QDBusErrorC2ERKS0_@Base 4.9.0
 _ZN5Katie10QDBusErroraSERKS0_@Base 4.9.0
 _ZN5Katie11QDBusServer11qt_metacallENS_11QMetaObject4CallEiPPv@Base 4.9.0
 _ZN5Katie11QDBusServer11qt_metacastEPKc@Base 4.9.0
 _ZN5Katie11QDBusServer13newConnectionERKNS_15QDBusConnectionE@Base 4.9.0
 _ZN5Katie11QDBusServer16staticMetaObjectE@Base 4.9.0
 _ZN5Katie11QDBusServer19getStaticMetaObjectEv@Base 4.9.0
 _ZN5Katie11QDBusServerC1ERKNS_7QStringEPNS_7QObjectE@Base 4.9.0
 _ZN5Katie11QDBusServerC2ERKNS_7QStringEPNS_7QObjectE@Base 4.9.0
 _ZN5Katie11QDBusServerD0Ev@Base 4.9.0
 _ZN5Katie11QDBusServerD1Ev@Base 4.9.0
 _ZN5Katie11QDBusServerD2Ev@Base 4.9.0
 _ZN5Katie12QDBusContext14sendErrorReplyENS_10QDBusError9ErrorTypeERKNS_7QStringE@Base 4.9.0
 _ZN5Katie12QDBusContext14sendErrorReplyERKNS_7QStringES3_@Base 4.9.0
 _ZN5Katie12QDBusContext15setDelayedReplyEb@Base 4.9.0
 _ZN5Katie12QDBusContextC1Ev@Base 4.9.0
 _ZN5Katie12QDBusContextC2Ev@Base 4.9.0
 _ZN5Katie12QDBusContextD1Ev@Base 4.9.0
 _ZN5Katie12QDBusContextD2Ev@Base 4.9.0
 _ZN5Katie12QDBusMessage11createErrorERKNS_7QStringES3_@Base 4.9.0
 _ZN5Katie12QDBusMessage12createSignalERKNS_7QStringES3_S3_@Base 4.9.0
 _ZN5Katie12QDBusMessage12setArgumentsERKNS_5QListINS_8QVariantEEE@Base 4.9.0
 _ZN5Katie12QDBusMessage15setDelayedReplyEb@Base 4.9.0
 _ZN5Katie12QDBusMessage16createMethodCallERKNS_7QStringES3_S3_S3_@Base 4.9.0
 _ZN5Katie12QDBusMessage19setAutoStartServiceEb@Base 4.9.0
 _ZN5Katie12QDBusMessageC1ERKS0_@Base 4.9.0
 _ZN5Katie12QDBusMessageC1Ev@Base 4.9.0
 _ZN5Katie12QDBusMessageC2ERKS0_@Base 4.9.0
 _ZN5Katie12QDBusMessageC2Ev@Base 4.9.0
 _ZN5Katie12QDBusMessageD1Ev@Base 4.9.0
 _ZN5Katie12QDBusMessageD2Ev@Base 4.9.0
 _ZN5Katie12QDBusMessageaSERKS0_@Base 4.9.0
 _ZN5Katie12QDBusMessagelsERKNS_8QVariantE@Base 4.9.0
 _ZN5Katie13QDBusArgument10beginArrayEi@Base 4.9.0
 _ZN5Katie13QDBusArgument11endMapEntryEv@Base 4.9.0
 _ZN5Katie13QDBusArgument12endStructureEv@Base 4.9.0
 _ZN5Katie13QDBusArgument13appendVariantERKNS_8QVariantE@Base 4.9.0
 _ZN5Katie13QDBusArgument13beginMapEntryEv@Base 4.9.0
 _ZN5Katie13QDBusArgument14beginStructureEv@Base 4.9.0
 _ZN5Katie13QDBusArgument6endMapEv@Base 4.9.0
 _ZN5Katie13QDBusArgument8beginMapEii@Base 4.9.0
 _ZN5Katie13QDBusArgument8endArrayEv@Base 4.9.0
 _ZN5Katie13QDBusArgumentC1EPNS_20QDBusArgumentPrivateE@Base 4.9.0
 _ZN5Katie13QDBusArgumentC1ERKS0_@Base 4.9.0
 _ZN5Katie13QDBusArgumentC1Ev@Base 4.9.0
 _ZN5Katie13QDBusArgumentC2EPNS_20QDBusArgumentPrivateE@Base 4.9.0
 _ZN5Katie13QDBusArgumentC2ERKS0_@Base 4.9.0
 _ZN5Katie13QDBusArgumentC2Ev@Base 4.9.0
 _ZN5Katie13QDBusArgumentD1Ev@Base 4.9.0
 _ZN5Katie13QDBusArgumentD2Ev@Base 4.9.0
 _ZN5Katie13QDBusArgumentaSERKS0_@Base 4.9.0
 _ZN5Katie13QDBusArgumentlsERKNS_10QByteArrayE@Base 4.9.0
 _ZN5Katie13QDBusArgumentlsERKNS_11QStringListE@Base 4.9.0
 _ZN5Katie13QDBusArgumentlsERKNS_12QDBusVariantE@Base 4.9.0
 _ZN5Katie13QDBusArgumentlsERKNS_14QDBusSignatureE@Base 4.9.0
 _ZN5Katie13QDBusArgumentlsERKNS_15QDBusObjectPathE@Base 4.9.0
 _ZN5Katie13QDBusArgumentlsERKNS_23QDBusUnixFileDescriptorE@Base 4.9.0
 _ZN5Katie13QDBusArgumentlsERKNS_7QStringE@Base 4.9.0
 _ZN5Katie13QDBusArgumentlsEb@Base 4.9.0
 _ZN5Katie13QDBusArgumentlsEd@Base 4.9.0
 _ZN5Katie13QDBusArgumentlsEh@Base 4.9.0
 _ZN5Katie13QDBusArgumentlsEi@Base 4.9.0
 _ZN5Katie13QDBusArgumentlsEj@Base 4.9.0
 _ZN5Katie13QDBusArgumentlsEs@Base 4.9.0
 _ZN5Katie13QDBusArgumentlsEt@Base 4.9.0
 _ZN5Katie13QDBusArgumentlsEx@Base 4.9.0
 _ZN5Katie13QDBusArgumentlsEy@Base 4.9.0
 _ZN5Katie13QDBusMetaType10demarshallERKNS_13QDBusArgumentEiPv@Base 4.9.0
 _ZN5Katie13QDBusMetaType15signatureToTypeEPKc@Base 4.9.0
 _ZN5Katie13QDBusMetaType15typeToSignatureEi@Base 4.9.0
 _ZN5Katie13QDBusMetaType25registerMarshallOperatorsEiPFvRNS_13QDBusArgumentEPKvEPFvRKS1_PvE@Base 4.9.0
 _ZN5Katie13QDBusMetaType8marshallERNS_13QDBusArgumentEiPKv@Base 4.9.0
 _ZN5Katie14QDBusInterface11qt_metacallENS_11QMetaObject4CallEiPPv@Base 4.9.0
 _ZN5Katie14QDBusInterface11qt_metacastEPKc@Base 4.9.0
 _ZN5Katie14QDBusInterfaceC1ERKNS_7QStringES3_S3_RKNS_15QDBusConnectionEPNS_7QObjectE@Base 4.9.0
 _ZN5Katie14QDBusInterfaceC2ERKNS_7QStringES3_S3_RKNS_15QDBusConnectionEPNS_7QObjectE@Base 4.9.0
 _ZN5Katie14QDBusInterfaceD0Ev@Base 4.9.0
 _ZN5Katie14QDBusInterfaceD1Ev@Base 4.9.0
 _ZN5Katie14QDBusInterfaceD2Ev@Base 4.9.0
 _ZN5Katie14QDBusSignature5checkEv@Base 4.9.0
 _ZN5Katie14qDBusReplyFillERKNS_12QDBusMessageERNS_10QDBusErrorERNS_8QVariantE@Base 4.9.0
 _ZN5Katie15QDBusConnection10disconnectERKNS_7QStringES3_S3_S3_PNS_7QObjectEPKc@Base 4.9.0
 _ZN5Katie15QDBusConnection10disconnectERKNS_7QStringES3_S3_S3_RKNS_11QStringListES3_PNS_7QObjectEPKc@Base 4.9.0
 _ZN5Katie15QDBusConnection10disconnectERKNS_7QStringES3_S3_S3_S3_PNS_7QObjectEPKc@Base 4.9.0
 _ZN5Katie15QDBusConnection10sessionBusEv@Base 4.9.0
 _ZN5Katie15QDBusConnection12connectToBusENS0_7BusTypeERKNS_7QStringE@Base 4.9.0
 _ZN5Katie15QDBusConnection12connectToBusERKNS_7QStringES3_@Base 4.9.0
 _ZN5Katie15QDBusConnection13connectToPeerERKNS_7QStringES3_@Base 4.9.0
 _ZN5Katie15QDBusConnection14localMachineIdEv@Base 4.9.0
 _ZN5Katie15QDBusConnection14registerObjectERKNS_7QStringEPNS_7QObjectENS_6QFlagsINS0_14RegisterOptionEEE@Base 4.9.0
 _ZN5Katie15QDBusConnection15registerServiceERKNS_7QStringE@Base 4.9.0
 _ZN5Katie15QDBusConnection16staticMetaObjectE@Base 4.9.0
 _ZN5Katie15QDBusConnection16unregisterObjectERKNS_7QStringENS0_14UnregisterModeE@Base 4.9.0
 _ZN5Katie15QDBusConnection17disconnectFromBusERKNS_7QStringE@Base 4.9.0
 _ZN5Katie15QDBusConnection17unregisterServiceERKNS_7QStringE@Base 4.9.0
 _ZN5Katie15QDBusConnection18disconnectFromPeerERKNS_7QStringE@Base 4.9.0
 _ZN5Katie15QDBusConnection19getStaticMetaObjectEv@Base 4.9.0
 _ZN5Katie15QDBusConnection6senderEv@Base 4.9.0
 _ZN5Katie15QDBusConnection7connectERKNS_7QStringES3_S3_S3_PNS_7QObjectEPKc@Base 4.9.0
 _ZN5Katie15QDBusConnection7connectERKNS_7QStringES3_S3_S3_RKNS_11QStringListES3_PNS_7QObjectEPKc@Base 4.9.0
 _ZN5Katie15QDBusConnection7connectERKNS_7QStringES3_S3_S3_S3_PNS_7QObjectEPKc@Base 4.9.0
 _ZN5Katie15QDBusConnection9systemBusEv@Base 4.9.0
 _ZN5Katie15QDBusConnectionC1EPNS_22QDBusConnectionPrivateE@Base 4.9.0
 _ZN5Katie15QDBusConnectionC1ERKNS_7QStringE@Base 4.9.0
 _ZN5Katie15QDBusConnectionC1ERKS0_@Base 4.9.0
 _ZN5Katie15QDBusConnectionC2EPNS_22QDBusConnectionPrivateE@Base 4.9.0
 _ZN5Katie15QDBusConnectionC2ERKNS_7QStringE@Base 4.9.0
 _ZN5Katie15QDBusConnectionC2ERKS0_@Base 4.9.0
 _ZN5Katie15QDBusConnectionD1Ev@Base 4.9.0
 _ZN5Katie15QDBusConnectionD2Ev@Base 4.9.0
 _ZN5Katie15QDBusConnectionaSERKS0_@Base 4.9.0
 _ZN5Katie15QDBusMetaObject16createMetaObjectERKNS_7QStringES3_RNS_5QHashIS1_PS0_EERNS_10QDBusErrorE@Base 4.9.0
 _ZN5Katie15QDBusMetaObjectC1Ev@Base 4.9.0
 _ZN5Katie15QDBusMetaObjectC2Ev@Base 4.9.0
 _ZN5Katie15QDBusObjectPath5checkEv@Base 4.9.0
 _ZN5Katie15qDBusAddSpyHookEPFvRKNS_12QDBusMessageEE@Base 4.9.0
 _ZN5Katie16QDBusPendingCall15waitForFinishedEv@Base 4.9.0
 _ZN5Katie16QDBusPendingCall17fromCompletedCallERKNS_12QDBusMessageE@Base 4.9.0
 _ZN5Katie16QDBusPendingCall9fromErrorERKNS_10QDBusErrorE@Base 4.9.0
 _ZN5Katie16QDBusPendingCallC1EPNS_23QDBusPendingCallPrivateE@Base 4.9.0
 _ZN5Katie16QDBusPendingCallC1ERKS0_@Base 4.9.0
 _ZN5Katie16QDBusPendingCallC2EPNS_23QDBusPendingCallPrivateE@Base 4.9.0
 _ZN5Katie16QDBusPendingCallC2ERKS0_@Base 4.9.0
 _ZN5Katie16QDBusPendingCallD1Ev@Base 4.9.0
 _ZN5Katie16QDBusPendingCallD2Ev@Base 4.9.0
 _ZN5Katie16QDBusPendingCallaSERKS0_@Base 4.9.0
 _ZN5Katie18QDBusIntrospection11parseObjectERKNS_7QStringES3_S3_@Base 4.9.0
 _ZN5Katie18QDBusIntrospection14parseInterfaceERKNS_7QStringE@Base 4.9.0
 _ZN5Katie18QDBusIntrospection15parseInterfacesERKNS_7QStringE@Base 4.9.0
 _ZN5Katie18QDBusIntrospection15parseObjectTreeERKNS_7QStringES3_S3_@Base 4.9.0
 _ZN5Katie19QDBusServiceWatcher11qt_metacallENS_11QMetaObject4CallEiPPv@Base 4.9.0
 _ZN5Katie19QDBusServiceWatcher11qt_metacastEPKc@Base 4.9.0
 _ZN5Katie19QDBusServiceWatcher12setWatchModeENS_6QFlagsINS0_13WatchModeFlagEEE@Base 4.9.0
 _ZN5Katie19QDBusServiceWatcher13setConnectionERKNS_15QDBusConnectionE@Base 4.9.0
 _ZN5Katie19QDBusServiceWatcher16staticMetaObjectE@Base 4.9.0
 _ZN5Katie19QDBusServiceWatcher17addWatchedServiceERKNS_7QStringE@Base 4.9.0
 _ZN5Katie19QDBusServiceWatcher17serviceRegisteredERKNS_7QStringE@Base 4.9.0
 _ZN5Katie19QDBusServiceWatcher18setWatchedServicesERKNS_11QStringListE@Base 4.9.0
 _ZN5Katie19QDBusServiceWatcher19getStaticMetaObjectEv@Base 4.9.0
 _ZN5Katie19QDBusServiceWatcher19serviceOwnerChangedERKNS_7QStringES3_S3_@Base 4.9.0
 _ZN5Katie19QDBusServiceWatcher19serviceUnregisteredERKNS_7QStringE@Base 4.9.0
 _ZN5Katie19QDBusServiceWatcher20removeWatchedServiceERKNS_7QStringE@Base 4.9.0
 _ZN5Katie19QDBusServiceWatcherC1EPNS_7QObjectE@Base 4.9.0
 _ZN5Katie19QDBusServiceWatcherC1ERKNS_7QStringERKNS_15QDBusConnectionENS_6QFlagsINS0_13WatchModeFlagEEEPNS_7QObjectE@Base 4.9.0
 _ZN5Katie19QDBusServiceWatcherC2EPNS_7QObjectE@Base 4.9.0
 _ZN5Katie19QDBusServiceWatcherC2ERKNS_7QStringERKNS_15QDBusConnectionENS_6QFlagsINS0_13WatchModeFlagEEEPNS_7QObjectE@Base 4.9.0
 _ZN5Katie19QDBusServiceWatcherD0Ev@Base 4.9.0
 _ZN5Katie19QDBusServiceWatcherD1Ev@Base 4.9.0
 _ZN5Katie19QDBusServiceWatcherD2Ev@Base 4.9.0
 _ZN5Katie20QDBusAbstractAdaptor11qt_metacallENS_11QMetaObject4CallEiPPv@Base 4.9.0
 _ZN5Katie20QDBusAbstractAdaptor11qt_metacastEPKc@Base 4.9.0
 _ZN5Katie20QDBusAbstractAdaptor16staticMetaObjectE@Base 4.9.0
 _ZN5Katie20QDBusAbstractAdaptor19getStaticMetaObjectEv@Base 4.9.0
 _ZN5Katie20QDBusAbstractAdaptor19setAutoRelaySignalsEb@Base 4.9.0
 _ZN5Katie20QDBusAbstractAdaptorC1EPNS_7QObjectE@Base 4.9.0
 _ZN5Katie20QDBusAbstractAdaptorC2EPNS_7QObjectE@Base 4.9.0
 _ZN5Katie20QDBusAbstractAdaptorD0Ev@Base 4.9.0
 _ZN5Katie20QDBusAbstractAdaptorD1Ev@Base 4.9.0
 _ZN5Katie20QDBusAbstractAdaptorD2Ev@Base 4.9.0
 _ZN5Katie21QDBusPendingReplyData12setMetaTypesEiPKi@Base 4.9.0
 _ZN5Katie21QDBusPendingReplyData6assignERKNS_12QDBusMessageE@Base 4.9.0
 _ZN5Katie21QDBusPendingReplyData6assignERKNS_16QDBusPendingCallE@Base 4.9.0
 _ZN5Katie21QDBusPendingReplyDataC1Ev@Base 4.9.0
 _ZN5Katie21QDBusPendingReplyDataC2Ev@Base 4.9.0
 _ZN5Katie21QDBusPendingReplyDataD1Ev@Base 4.9.0
 _ZN5Katie21QDBusPendingReplyDataD2Ev@Base 4.9.0
 _ZN5Katie22QDBusAbstractInterface10setTimeoutEi@Base 4.9.0
 _ZN5Katie22QDBusAbstractInterface11qt_metacallENS_11QMetaObject4CallEiPPv@Base 4.9.0
 _ZN5Katie22QDBusAbstractInterface11qt_metacastEPKc@Base 4.9.0
 _ZN5Katie22QDBusAbstractInterface13connectNotifyEPKc@Base 4.9.0
 _ZN5Katie22QDBusAbstractInterface16callWithCallbackERKNS_7QStringERKNS_5QListINS_8QVariantEEEPNS_7QObjectEPKc@Base 4.9.0
 _ZN5Katie22QDBusAbstractInterface16callWithCallbackERKNS_7QStringERKNS_5QListINS_8QVariantEEEPNS_7QObjectEPKcSC_@Base 4.9.0
 _ZN5Katie22QDBusAbstractInterface16disconnectNotifyEPKc@Base 4.9.0
 _ZN5Katie22QDBusAbstractInterface16staticMetaObjectE@Base 4.9.0
 _ZN5Katie22QDBusAbstractInterface19getStaticMetaObjectEv@Base 4.9.0
 _ZN5Katie22QDBusAbstractInterfaceC1ERKNS_7QStringES3_PKcRKNS_15QDBusConnectionEPNS_7QObjectE@Base 4.9.0
 _ZN5Katie22QDBusAbstractInterfaceC1ERNS_29QDBusAbstractInterfacePrivateEPNS_7QObjectE@Base 4.9.0
 _ZN5Katie22QDBusAbstractInterfaceC2ERKNS_7QStringES3_PKcRKNS_15QDBusConnectionEPNS_7QObjectE@Base 4.9.0
 _ZN5Katie22QDBusAbstractInterfaceC2ERNS_29QDBusAbstractInterfacePrivateEPNS_7QObjectE@Base 4.9.0
 _ZN5Katie22QDBusAbstractInterfaceD0Ev@Base 4.9.0
 _ZN5Katie22QDBusAbstractInterfaceD1Ev@Base 4.9.0
 _ZN5Katie22QDBusAbstractInterfaceD2Ev@Base 4.9.0
 _ZN5Katie23QDBusPendingCallWatcher11qt_metacallENS_11QMetaObject4CallEiPPv@Base 4.9.0
 _ZN5Katie23QDBusPendingCallWatcher11qt_metacastEPKc@Base 4.9.0
 _ZN5Katie23QDBusPendingCallWatcher15waitForFinishedEv@Base 4.9.0
 _ZN5Katie23QDBusPendingCallWatcher16staticMetaObjectE@Base 4.9.0
 _ZN5Katie23QDBusPendingCallWatcher19getStaticMetaObjectEv@Base 4.9.0
 _ZN5Katie23QDBusPendingCallWatcher8finishedEPS0_@Base 4.9.0
 _ZN5Katie23QDBusPendingCallWatcherC1ERKNS_16QDBusPendingCallEPNS_7QObjectE@Base 4.9.0
 _ZN5Katie23QDBusPendingCallWatcherC2ERKNS_16QDBusPendingCallEPNS_7QObjectE@Base 4.9.0
 _ZN5Katie23QDBusPendingCallWatcherD0Ev@Base 4.9.0
 _ZN5Katie23QDBusPendingCallWatcherD1Ev@Base 4.9.0
 _ZN5Katie23QDBusPendingCallWatcherD2Ev@Base 4.9.0
 _ZN5Katie23QDBusUnixFileDescriptor17setFileDescriptorEi@Base 4.9.0
 _ZN5Katie23QDBusUnixFileDescriptor18giveFileDescriptorEi@Base 4.9.0
 _ZN5Katie23QDBusUnixFileDescriptor18takeFileDescriptorEv@Base 4.9.0
 _ZN5Katie23QDBusUnixFileDescriptorC1ERKS0_@Base 4.9.0
 _ZN5Katie23QDBusUnixFileDescriptorC1Ei@Base 4.9.0
 _ZN5Katie23QDBusUnixFileDescriptorC1Ev@Base 4.9.0
 _ZN5Katie23QDBusUnixFileDescriptorC2ERKS0_@Base 4.9.0
 _ZN5Katie23QDBusUnixFileDescriptorC2Ei@Base 4.9.0
 _ZN5Katie23QDBusUnixFileDescriptorC2Ev@Base 4.9.0
 _ZN5Katie23QDBusUnixFileDescriptorD1Ev@Base 4.9.0
 _ZN5Katie23QDBusUnixFileDescriptorD2Ev@Base 4.9.0
 _ZN5Katie23QDBusUnixFileDescriptoraSERKS0_@Base 4.9.0
 _ZN5Katie24QDBusConnectionInterface11qt_metacallENS_11QMetaObject4CallEiPPv@Base 4.9.0
 _ZN5Katie24QDBusConnectionInterface11qt_metacastEPKc@Base 4.9.0
 _ZN5Katie24QDBusConnectionInterface12NameAcquiredERKNS_7QStringE@Base 4.9.0
 _ZN5Katie24QDBusConnectionInterface12startServiceERKNS_7QStringE@Base 4.9.0
 _ZN5Katie24QDBusConnectionInterface13connectNotifyEPKc@Base 4.9.0
 _ZN5Katie24QDBusConnectionInterface15registerServiceERKNS_7QStringENS0_19ServiceQueueOptionsENS0_25ServiceReplacementOptionsE@Base 4.9.0
 _ZN5Katie24QDBusConnectionInterface16NameOwnerChangedERKNS_7QStringES3_S3_@Base 4.9.0
 _ZN5Katie24QDBusConnectionInterface16disconnectNotifyEPKc@Base 4.9.0
 _ZN5Katie24QDBusConnectionInterface16staticMetaObjectE@Base 4.9.0
 _ZN5Katie24QDBusConnectionInterface17serviceRegisteredERKNS_7QStringE@Base 4.9.0
 _ZN5Katie24QDBusConnectionInterface17unregisterServiceERKNS_7QStringE@Base 4.9.0
 _ZN5Katie24QDBusConnectionInterface19getStaticMetaObjectEv@Base 4.9.0
 _ZN5Katie24QDBusConnectionInterface19serviceOwnerChangedERKNS_7QStringES3_S3_@Base 4.9.0
 _ZN5Katie24QDBusConnectionInterface19serviceUnregisteredERKNS_7QStringE@Base 4.9.0
 _ZN5Katie24QDBusConnectionInterface22callWithCallbackFailedERKNS_10QDBusErrorERKNS_12QDBusMessageE@Base 4.9.0
 _ZN5Katie24QDBusConnectionInterface8NameLostERKNS_7QStringE@Base 4.9.0
 _ZN5Katie24QDBusConnectionInterfaceC1ERKNS_15QDBusConnectionEPNS_7QObjectE@Base 4.9.0
 _ZN5Katie24QDBusConnectionInterfaceC2ERKNS_15QDBusConnectionEPNS_7QObjectE@Base 4.9.0
 _ZN5Katie24QDBusConnectionInterfaceD0Ev@Base 4.9.0
 _ZN5Katie24QDBusConnectionInterfaceD1Ev@Base 4.9.0
 _ZN5Katie24QDBusConnectionInterfaceD2Ev@Base 4.9.0
 _ZN5Katie26QDBusAbstractInterfaceBase11qt_metacallENS_11QMetaObject4CallEiPPv@Base 4.9.0
 _ZN5Katie26QDBusAbstractInterfaceBaseC1ERNS_29QDBusAbstractInterfacePrivateEPNS_7QObjectE@Base 4.9.0
 _ZN5Katie26QDBusAbstractInterfaceBaseC2ERNS_29QDBusAbstractInterfacePrivateEPNS_7QObjectE@Base 4.9.0
 _ZN5Katie26qDBusGenerateMetaObjectXmlENS_7QStringEPKNS_11QMetaObjectES3_i@Base 4.9.0
 _ZN5Katie35qt_dbus_metaobject_skip_annotationsE@Base 4.9.0
 _ZN5Katie9QDBusUtil14isValidBusNameERKNS_7QStringE@Base 4.9.0
 _ZN5Katie9QDBusUtil16argumentToStringERKNS_8QVariantE@Base 4.9.0
 _ZN5Katie9QDBusUtil16isValidBasicTypeEi@Base 4.9.0
 _ZN5Katie9QDBusUtil16isValidErrorNameERKNS_7QStringE@Base 4.9.0
 _ZN5Katie9QDBusUtil16isValidFixedTypeEi@Base 4.9.0
 _ZN5Katie9QDBusUtil16isValidSignatureERKNS_7QStringE@Base 4.9.0
 _ZN5Katie9QDBusUtil17isValidMemberNameERKNS_7QStringE@Base 4.9.0
 _ZN5Katie9QDBusUtil17isValidObjectPathERKNS_7QStringE@Base 4.9.0
 _ZN5Katie9QDBusUtil20isValidInterfaceNameERKNS_7QStringE@Base 4.9.0
 _ZN5Katie9QDBusUtil22isValidSingleSignatureERKNS_7QStringE@Base 4.9.0
 _ZN5Katie9QDBusUtil23isValidPartOfObjectPathERKNS_7QStringE@Base 4.9.0
 _ZN5Katie9QDBusUtil27isValidUniqueConnectionNameERKNS_7QStringE@Base 4.9.0
 _ZN5KatielsENS_6QDebugERKNS_10QDBusErrorE@Base 4.9.0
 _ZN5KatielsENS_6QDebugERKNS_12QDBusMessageE@Base 4.9.0
 _ZN5KatielsERNS_13QDBusArgumentERKNS_5QDateE@Base 4.9.0
 _ZN5KatielsERNS_13QDBusArgumentERKNS_5QLineE@Base 4.9.0
 _ZN5KatielsERNS_13QDBusArgumentERKNS_5QRectE@Base 4.9.0
 _ZN5KatielsERNS_13QDBusArgumentERKNS_5QSizeE@Base 4.9.0
 _ZN5KatielsERNS_13QDBusArgumentERKNS_5QTimeE@Base 4.9.0
 _ZN5KatielsERNS_13QDBusArgumentERKNS_6QLineFE@Base 4.9.0
 _ZN5KatielsERNS_13QDBusArgumentERKNS_6QPointE@Base 4.9.0
 _ZN5KatielsERNS_13QDBusArgumentERKNS_6QRectFE@Base 4.9.0
 _ZN5KatielsERNS_13QDBusArgumentERKNS_6QSizeFE@Base 4.9.0
 _ZN5KatielsERNS_13QDBusArgumentERKNS_7QPointFE@Base 4.9.0
 _ZN5KatielsERNS_13QDBusArgumentERKNS_9QDateTimeE@Base 4.9.0
 _ZN5KatiersERKNS_13QDBusArgumentERNS_5QDateE@Base 4.9.0
 _ZN5KatiersERKNS_13QDBusArgumentERNS_5QLineE@Base 4.9.0
 _ZN5KatiersERKNS_13QDBusArgumentERNS_5QRectE@Base 4.9.0
 _ZN5KatiersERKNS_13QDBusArgumentERNS_5QSizeE@Base 4.9.0
 _ZN5KatiersERKNS_13QDBusArgumentERNS_5QTimeE@Base 4.9.0
 _ZN5KatiersERKNS_13QDBusArgumentERNS_6QLineFE@Base 4.9.0
 _ZN5KatiersERKNS_13QDBusArgumentERNS_6QPointE@Base 4.9.0
 _ZN5KatiersERKNS_13QDBusArgumentERNS_6QRectFE@Base 4.9.0
 _ZN5KatiersERKNS_13QDBusArgumentERNS_6QSizeFE@Base 4.9.0
 _ZN5KatiersERKNS_13QDBusArgumentERNS_7QPointFE@Base 4.9.0
 _ZN5KatiersERKNS_13QDBusArgumentERNS_8QVariantE@Base 4.9.0
 _ZN5KatiersERKNS_13QDBusArgumentERNS_9QDateTimeE@Base 4.9.0
 _ZNK5Katie10QDBusError4nameEv@Base 4.9.0
 _ZNK5Katie10QDBusError4typeEv@Base 4.9.0
 _ZNK5Katie10QDBusError7isValidEv@Base 4.9.0
 _ZNK5Katie10QDBusError7messageEv@Base 4.9.0
 _ZNK5Katie11QDBusServer10metaObjectEv@Base 4.9.0
 _ZNK5Katie11QDBusServer11isConnectedEv@Base 4.9.0
 _ZNK5Katie11QDBusServer7addressEv@Base 4.9.0
 _ZNK5Katie11QDBusServer9lastErrorEv@Base 4.9.0
 _ZNK5Katie12QDBusContext10connectionEv@Base 4.9.0
 _ZNK5Katie12QDBusContext14calledFromDBusEv@Base 4.9.0
 _ZNK5Katie12QDBusContext14isDelayedReplyEv@Base 4.9.0
 _ZNK5Katie12QDBusContext7messageEv@Base 4.9.0
 _ZNK5Katie12QDBusMessage11createReplyERKNS_5QListINS_8QVariantEEE@Base 4.9.0
 _ZNK5Katie12QDBusMessage12errorMessageEv@Base 4.9.0
 _ZNK5Katie12QDBusMessage14isDelayedReplyEv@Base 4.9.0
 _ZNK5Katie12QDBusMessage15isReplyRequiredEv@Base 4.9.0
 _ZNK5Katie12QDBusMessage16autoStartServiceEv@Base 4.9.0
 _ZNK5Katie12QDBusMessage16createErrorReplyENS_10QDBusError9ErrorTypeERKNS_7QStringE@Base 4.9.0
 _ZNK5Katie12QDBusMessage16createErrorReplyERKNS_7QStringES3_@Base 4.9.0
 _ZNK5Katie12QDBusMessage4pathEv@Base 4.9.0
 _ZNK5Katie12QDBusMessage4typeEv@Base 4.9.0
 _ZNK5Katie12QDBusMessage6memberEv@Base 4.9.0
 _ZNK5Katie12QDBusMessage7serviceEv@Base 4.9.0
 _ZNK5Katie12QDBusMessage9argumentsEv@Base 4.9.0
 _ZNK5Katie12QDBusMessage9errorNameEv@Base 4.9.0
 _ZNK5Katie12QDBusMessage9interfaceEv@Base 4.9.0
 _ZNK5Katie12QDBusMessage9signatureEv@Base 4.9.0
 _ZNK5Katie13QDBusArgument10beginArrayEv@Base 4.9.0
 _ZNK5Katie13QDBusArgument11currentTypeEv@Base 4.9.0
 _ZNK5Katie13QDBusArgument11endMapEntryEv@Base 4.9.0
 _ZNK5Katie13QDBusArgument12endStructureEv@Base 4.9.0
 _ZNK5Katie13QDBusArgument13beginMapEntryEv@Base 4.9.0
 _ZNK5Katie13QDBusArgument14beginStructureEv@Base 4.9.0
 _ZNK5Katie13QDBusArgument16currentSignatureEv@Base 4.9.0
 _ZNK5Katie13QDBusArgument5atEndEv@Base 4.9.0
 _ZNK5Katie13QDBusArgument6endMapEv@Base 4.9.0
 _ZNK5Katie13QDBusArgument8beginMapEv@Base 4.9.0
 _ZNK5Katie13QDBusArgument8endArrayEv@Base 4.9.0
 _ZNK5Katie13QDBusArgument9asVariantEv@Base 4.9.0
 _ZNK5Katie13QDBusArgumentrsERNS_10QByteArrayE@Base 4.9.0
 _ZNK5Katie13QDBusArgumentrsERNS_11QStringListE@Base 4.9.0
 _ZNK5Katie13QDBusArgumentrsERNS_12QDBusVariantE@Base 4.9.0
 _ZNK5Katie13QDBusArgumentrsERNS_14QDBusSignatureE@Base 4.9.0
 _ZNK5Katie13QDBusArgumentrsERNS_15QDBusObjectPathE@Base 4.9.0
 _ZNK5Katie13QDBusArgumentrsERNS_23QDBusUnixFileDescriptorE@Base 4.9.0
 _ZNK5Katie13QDBusArgumentrsERNS_7QStringE@Base 4.9.0
 _ZNK5Katie13QDBusArgumentrsERb@Base 4.9.0
 _ZNK5Katie13QDBusArgumentrsERd@Base 4.9.0
 _ZNK5Katie13QDBusArgumentrsERh@Base 4.9.0
 _ZNK5Katie13QDBusArgumentrsERi@Base 4.9.0
 _ZNK5Katie13QDBusArgumentrsERj@Base 4.9.0
 _ZNK5Katie13QDBusArgumentrsERs@Base 4.9.0
 _ZNK5Katie13QDBusArgumentrsERt@Base 4.9.0
 _ZNK5Katie13QDBusArgumentrsERx@Base 4.9.0
 _ZNK5Katie13QDBusArgumentrsERy@Base 4.9.0
 _ZNK5Katie14QDBusInterface10metaObjectEv@Base 4.9.0
 _ZNK5Katie15QDBusConnection11baseServiceEv@Base 4.9.0
 _ZNK5Katie15QDBusConnection11isConnectedEv@Base 4.9.0
 _ZNK5Katie15QDBusConnection15internalPointerEv@Base 4.9.0
 _ZNK5Katie15QDBusConnection16callWithCallbackERKNS_12QDBusMessageEPNS_7QObjectEPKcS7_i@Base 4.9.0
 _ZNK5Katie15QDBusConnection16callWithCallbackERKNS_12QDBusMessageEPNS_7QObjectEPKci@Base 4.9.0
 _ZNK5Katie15QDBusConnection18objectRegisteredAtERKNS_7QStringE@Base 4.9.0
 _ZNK5Katie15QDBusConnection22connectionCapabilitiesEv@Base 4.9.0
 _ZNK5Katie15QDBusConnection4callERKNS_12QDBusMessageENS_5QDBus8CallModeEi@Base 4.9.0
 _ZNK5Katie15QDBusConnection4nameEv@Base 4.9.0
 _ZNK5Katie15QDBusConnection4sendERKNS_12QDBusMessageE@Base 4.9.0
 _ZNK5Katie15QDBusConnection9asyncCallERKNS_12QDBusMessageEi@Base 4.9.0
 _ZNK5Katie15QDBusConnection9interfaceEv@Base 4.9.0
 _ZNK5Katie15QDBusConnection9lastErrorEv@Base 4.9.0
 _ZNK5Katie15QDBusMetaObject16propertyMetaTypeEi@Base 4.9.0
 _ZNK5Katie15QDBusMetaObject17dbusNameForMethodEi@Base 4.9.0
 _ZNK5Katie15QDBusMetaObject19inputTypesForMethodEi@Base 4.9.0
 _ZNK5Katie15QDBusMetaObject20outputTypesForMethodEi@Base 4.9.0
 _ZNK5Katie15QDBusMetaObject23inputSignatureForMethodEi@Base 4.9.0
 _ZNK5Katie15QDBusMetaObject24outputSignatureForMethodEi@Base 4.9.0
 _ZNK5Katie16QDBusPendingCall10isFinishedEv@Base 4.9.0
 _ZNK5Katie16QDBusPendingCall5errorEv@Base 4.9.0
 _ZNK5Katie16QDBusPendingCall5replyEv@Base 4.9.0
 _ZNK5Katie16QDBusPendingCall7isErrorEv@Base 4.9.0
 _ZNK5Katie16QDBusPendingCall7isValidEv@Base 4.9.0
 _ZNK5Katie19QDBusServiceWatcher10connectionEv@Base 4.9.0
 _ZNK5Katie19QDBusServiceWatcher10metaObjectEv@Base 4.9.0
 _ZNK5Katie19QDBusServiceWatcher15watchedServicesEv@Base 4.9.0
 _ZNK5Katie19QDBusServiceWatcher9watchModeEv@Base 4.9.0
 _ZNK5Katie20QDBusAbstractAdaptor10metaObjectEv@Base 4.9.0
 _ZNK5Katie20QDBusAbstractAdaptor16autoRelaySignalsEv@Base 4.9.0
 _ZNK5Katie21QDBusPendingReplyData10argumentAtEi@Base 4.9.0
 _ZNK5Katie22QDBusAbstractInterface10connectionEv@Base 4.9.0
 _ZNK5Katie22QDBusAbstractInterface10metaObjectEv@Base 4.9.0
 _ZNK5Katie22QDBusAbstractInterface20callWithArgumentListENS_5QDBus8CallModeERKNS_7QStringERKNS_5QListINS_8QVariantEEE@Base 4.9.0
 _ZNK5Katie22QDBusAbstractInterface25asyncCallWithArgumentListERKNS_7QStringERKNS_5QListINS_8QVariantEEE@Base 4.9.0
 _ZNK5Katie22QDBusAbstractInterface4callENS_5QDBus8CallModeERKNS_7QStringERKNS_8QVariantES8_S8_S8_S8_S8_S8_S8_@Base 4.9.0
 _ZNK5Katie22QDBusAbstractInterface4callERKNS_7QStringERKNS_8QVariantES6_S6_S6_S6_S6_S6_S6_@Base 4.9.0
 _ZNK5Katie22QDBusAbstractInterface4pathEv@Base 4.9.0
 _ZNK5Katie22QDBusAbstractInterface7isValidEv@Base 4.9.0
 _ZNK5Katie22QDBusAbstractInterface7serviceEv@Base 4.9.0
 _ZNK5Katie22QDBusAbstractInterface7timeoutEv@Base 4.9.0
 _ZNK5Katie22QDBusAbstractInterface9asyncCallERKNS_7QStringERKNS_8QVariantES6_S6_S6_S6_S6_S6_S6_@Base 4.9.0
 _ZNK5Katie22QDBusAbstractInterface9interfaceEv@Base 4.9.0
 _ZNK5Katie22QDBusAbstractInterface9lastErrorEv@Base 4.9.0
 _ZNK5Katie23QDBusPendingCallWatcher10metaObjectEv@Base 4.9.0
 _ZNK5Katie23QDBusUnixFileDescriptor14fileDescriptorEv@Base 4.9.0
 _ZNK5Katie23QDBusUnixFileDescriptor7isValidEv@Base 4.9.0
 _ZNK5Katie24QDBusConnectionInterface10metaObjectEv@Base 4.9.0
 _ZNK5Katie24QDBusConnectionInterface10servicePidERKNS_7QStringE@Base 4.9.0
 _ZNK5Katie24QDBusConnectionInterface10serviceUidERKNS_7QStringE@Base 4.9.0
 _ZNK5Katie24QDBusConnectionInterface12serviceOwnerERKNS_7QStringE@Base 4.9.0
 _ZNK5Katie24QDBusConnectionInterface19isServiceRegisteredERKNS_7QStringE@Base 4.9.0
 _ZNK5Katie24QDBusConnectionInterface22registeredServiceNamesEv@Base 4.9.0
 _ZTIN5Katie11QDBusServerE@Base 4.9.0
 _ZTIN5Katie14QDBusInterfaceE@Base 4.9.0
 _ZTIN5Katie16QDBusPendingCallE@Base 4.9.0
 _ZTIN5Katie19QDBusServiceWatcherE@Base 4.9.0
 _ZTIN5Katie20QDBusAbstractAdaptorE@Base 4.9.0
 _ZTIN5Katie22QDBusAbstractInterfaceE@Base 4.9.0
 _ZTIN5Katie23QDBusPendingCallWatcherE@Base 4.9.0
 _ZTIN5Katie24QDBusConnectionInterfaceE@Base 4.9.0
 _ZTIN5Katie26QDBusAbstractInterfaceBaseE@Base 4.9.0
 _ZTSN5Katie11QDBusServerE@Base 4.9.0
 _ZTSN5Katie14QDBusInterfaceE@Base 4.9.0
 _ZTSN5Katie16QDBusPendingCallE@Base 4.9.0
 _ZTSN5Katie19QDBusServiceWatcherE@Base 4.9.0
 _ZTSN5Katie20QDBusAbstractAdaptorE@Base 4.9.0
 _ZTSN5Katie22QDBusAbstractInterfaceE@Base 4.9.0
 _ZTSN5Katie23QDBusPendingCallWatcherE@Base 4.9.0
 _ZTSN5Katie24QDBusConnectionInterfaceE@Base 4.9.0
 _ZTSN5Katie26QDBusAbstractInterfaceBaseE@Base 4.9.0
 _ZTVN5Katie11QDBusServerE@Base 4.9.0
 _ZTVN5Katie14QDBusInterfaceE@Base 4.9.0
 _ZTVN5Katie19QDBusServiceWatcherE@Base 4.9.0
 _ZTVN5Katie20QDBusAbstractAdaptorE@Base 4.9.0
 _ZTVN5Katie22QDBusAbstractInterfaceE@Base 4.9.0
 _ZTVN5Katie23QDBusPendingCallWatcherE@Base 4.9.0
 _ZTVN5Katie24QDBusConnectionInterfaceE@Base 4.9.0
 _ZTVN5Katie26QDBusAbstractInterfaceBaseE@Base 4.9.0
libKtDeclarative.so.4.9.0 katie-git #MINVER#
 _ZN5Katie10qmlContextEPKNS_7QObjectE@Base 4.9.0
 _ZN5Katie15QDeclarativePen10penChangedEv@Base 4.9.0
 _ZN5Katie15QDeclarativePen11qt_metacallENS_11QMetaObject4CallEiPPv@Base 4.9.0
 _ZN5Katie15QDeclarativePen11qt_metacastEPKc@Base 4.9.0
 _ZN5Katie15QDeclarativePen16staticMetaObjectE@Base 4.9.0
 _ZN5Katie15QDeclarativePen19getStaticMetaObjectEv@Base 4.9.0
 _ZN5Katie15QDeclarativePen8setColorERKNS_6QColorE@Base 4.9.0
 _ZN5Katie15QDeclarativePen8setWidthEi@Base 4.9.0
 _ZN5Katie16QDeclarativeInfoC1EPNS_23QDeclarativeInfoPrivateE@Base 4.9.0
 _ZN5Katie16QDeclarativeInfoC1ERKS0_@Base 4.9.0
 _ZN5Katie16QDeclarativeInfoC2EPNS_23QDeclarativeInfoPrivateE@Base 4.9.0
 _ZN5Katie16QDeclarativeInfoC2ERKS0_@Base 4.9.0
 _ZN5Katie16QDeclarativeInfoD1Ev@Base 4.9.0
 _ZN5Katie16QDeclarativeInfoD2Ev@Base 4.9.0
 _ZN5Katie16QDeclarativeItem10classBeginEv@Base 4.9.0
 _ZN5Katie16QDeclarativeItem10itemChangeENS_13QGraphicsItem18GraphicsItemChangeERKNS_8QVariantE@Base 4.9.0
 _ZN5Katie16QDeclarativeItem10resetWidthEv@Base 4.9.0
 _ZN5Katie16QDeclarativeItem10sceneEventEPNS_6QEventE@Base 4.9.0
 _ZN5Katie16QDeclarativeItem11clipChangedEb@Base 4.9.0
 _ZN5Katie16QDeclarativeItem11qt_metacallENS_11QMetaObject4CallEiPPv@Base 4.9.0
 _ZN5Katie16QDeclarativeItem11qt_metacastEPKc@Base 4.9.0
 _ZN5Katie16QDeclarativeItem11resetHeightEv@Base 4.9.0
 _ZN5Katie16QDeclarativeItem12childrenRectEv@Base 4.9.0
 _ZN5Katie16QDeclarativeItem12focusChangedEb@Base 4.9.0
 _ZN5Katie16QDeclarativeItem12stateChangedERKNS_7QStringE@Base 4.9.0
 _ZN5Katie16QDeclarativeItem13keyPressEventEPNS_9QKeyEventE@Base 4.9.0
 _ZN5Katie16QDeclarativeItem13parentChangedEPS0_@Base 4.9.0
 _ZN5Katie16QDeclarativeItem13setParentItemEPS0_@Base 4.9.0
 _ZN5Katie16QDeclarativeItem13smoothChangedEb@Base 4.9.0
 _ZN5Katie16QDeclarativeItem15geometryChangedERKNS_6QRectFES3_@Base 4.9.0
 _ZN5Katie16QDeclarativeItem15keyReleaseEventEPNS_9QKeyEventE@Base 4.9.0
 _ZN5Katie16QDeclarativeItem16forceActiveFocusEv@Base 4.9.0
 _ZN5Katie16QDeclarativeItem16setImplicitWidthEd@Base 4.9.0
 _ZN5Katie16QDeclarativeItem16setKeepMouseGrabEb@Base 4.9.0
 _ZN5Katie16QDeclarativeItem16staticMetaObjectE@Base 4.9.0
 _ZN5Katie16QDeclarativeItem17componentCompleteEv@Base 4.9.0
 _ZN5Katie16QDeclarativeItem17setBaselineOffsetEd@Base 4.9.0
 _ZN5Katie16QDeclarativeItem17setImplicitHeightEd@Base 4.9.0
 _ZN5Katie16QDeclarativeItem18activeFocusChangedEb@Base 4.9.0
 _ZN5Katie16QDeclarativeItem18keyPressPreHandlerEPNS_9QKeyEventE@Base 4.9.0
 _ZN5Katie16QDeclarativeItem18setTransformOriginENS0_15TransformOriginE@Base 4.9.0
 _ZN5Katie16QDeclarativeItem19childrenRectChangedERKNS_6QRectFE@Base 4.9.0
 _ZN5Katie16QDeclarativeItem19getStaticMetaObjectEv@Base 4.9.0
 _ZN5Katie16QDeclarativeItem20implicitWidthChangedEv@Base 4.9.0
 _ZN5Katie16QDeclarativeItem20keyReleasePreHandlerEPNS_9QKeyEventE@Base 4.9.0
 _ZN5Katie16QDeclarativeItem21baselineOffsetChangedEd@Base 4.9.0
 _ZN5Katie16QDeclarativeItem21implicitHeightChangedEv@Base 4.9.0
 _ZN5Katie16QDeclarativeItem22transformOriginChangedENS0_15TransformOriginE@Base 4.9.0
 _ZN5Katie16QDeclarativeItem5eventEPNS_6QEventE@Base 4.9.0
 _ZN5Katie16QDeclarativeItem5paintEPNS_8QPainterEPKNS_24QStyleOptionGraphicsItemEPNS_7QWidgetE@Base 4.9.0
 _ZN5Katie16QDeclarativeItem7setClipEb@Base 4.9.0
 _ZN5Katie16QDeclarativeItem7setSizeERKNS_6QSizeFE@Base 4.9.0
 _ZN5Katie16QDeclarativeItem8setFocusEb@Base 4.9.0
 _ZN5Katie16QDeclarativeItem8setWidthEd@Base 4.9.0
 _ZN5Katie16QDeclarativeItem9setHeightEd@Base 4.9.0
 _ZN5Katie16QDeclarativeItem9setSmoothEb@Base 4.9.0
 _ZN5Katie16QDeclarativeItem9transformEv@Base 4.9.0
 _ZN5Katie16QDeclarativeItemC1EPS0_@Base 4.9.0
 _ZN5Katie16QDeclarativeItemC1ERNS_23QDeclarativeItemPrivateEPS0_@Base 4.9.0
 _ZN5Katie16QDeclarativeItemC2EPS0_@Base 4.9.0
 _ZN5Katie16QDeclarativeItemC2ERNS_23QDeclarativeItemPrivateEPS0_@Base 4.9.0
 _ZN5Katie16QDeclarativeItemD0Ev@Base 4.9.0
 _ZN5Katie16QDeclarativeItemD1Ev@Base 4.9.0
 _ZN5Katie16QDeclarativeItemD2Ev@Base 4.9.0
 _ZN5Katie16QDeclarativeText11fontChangedERKNS_5QFontE@Base 4.9.0
 _ZN5Katie16QDeclarativeText11qt_metacallENS_11QMetaObject4CallEiPPv@Base 4.9.0
 _ZN5Katie16QDeclarativeText11qt_metacastEPKc@Base 4.9.0
 _ZN5Katie16QDeclarativeText11resetHAlignEv@Base 4.9.0
 _ZN5Katie16QDeclarativeText11setWrapModeENS0_8WrapModeE@Base 4.9.0
 _ZN5Katie16QDeclarativeText11textChangedERKNS_7QStringE@Base 4.9.0
 _ZN5Katie16QDeclarativeText12colorChangedERKNS_6QColorE@Base 4.9.0
 _ZN5Katie16QDeclarativeText12setElideModeENS0_13TextElideModeE@Base 4.9.0
 _ZN5Katie16QDeclarativeText12styleChangedENS0_9TextStyleE@Base 4.9.0
 _ZN5Katie16QDeclarativeText13linkActivatedERKNS_7QStringE@Base 4.9.0
 _ZN5Katie16QDeclarativeText13setLineHeightEd@Base 4.9.0
 _ZN5Katie16QDeclarativeText13setStyleColorERKNS_6QColorE@Base 4.9.0
 _ZN5Katie16QDeclarativeText13setTextFormatENS0_10TextFormatE@Base 4.9.0
 _ZN5Katie16QDeclarativeText15geometryChangedERKNS_6QRectFES3_@Base 4.9.0
 _ZN5Katie16QDeclarativeText15mousePressEventEPNS_24QGraphicsSceneMouseEventE@Base 4.9.0
 _ZN5Katie16QDeclarativeText15wrapModeChangedEv@Base 4.9.0
 _ZN5Katie16QDeclarativeText16elideModeChangedENS0_13TextElideModeE@Base 4.9.0
 _ZN5Katie16QDeclarativeText16lineCountChangedEv@Base 4.9.0
 _ZN5Katie16QDeclarativeText16staticMetaObjectE@Base 4.9.0
 _ZN5Katie16QDeclarativeText16truncatedChangedEv@Base 4.9.0
 _ZN5Katie16QDeclarativeText17componentCompleteEv@Base 4.9.0
 _ZN5Katie16QDeclarativeText17lineHeightChangedEd@Base 4.9.0
 _ZN5Katie16QDeclarativeText17mouseReleaseEventEPNS_24QGraphicsSceneMouseEventE@Base 4.9.0
 _ZN5Katie16QDeclarativeText17setLineHeightModeENS0_14LineHeightModeE@Base 4.9.0
 _ZN5Katie16QDeclarativeText17styleColorChangedERKNS_6QColorE@Base 4.9.0
 _ZN5Katie16QDeclarativeText17textFormatChangedENS0_10TextFormatE@Base 4.9.0
 _ZN5Katie16QDeclarativeText18paintedSizeChangedEv@Base 4.9.0
 _ZN5Katie16QDeclarativeText19getStaticMetaObjectEv@Base 4.9.0
 _ZN5Katie16QDeclarativeText19setMaximumLineCountEi@Base 4.9.0
 _ZN5Katie16QDeclarativeText21lineHeightModeChangedENS0_14LineHeightModeE@Base 4.9.0
 _ZN5Katie16QDeclarativeText21resetMaximumLineCountEv@Base 4.9.0
 _ZN5Katie16QDeclarativeText23maximumLineCountChangedEv@Base 4.9.0
 _ZN5Katie16QDeclarativeText24verticalAlignmentChangedENS0_10VAlignmentE@Base 4.9.0
 _ZN5Katie16QDeclarativeText26horizontalAlignmentChangedENS0_10HAlignmentE@Base 4.9.0
 _ZN5Katie16QDeclarativeText5paintEPNS_8QPainterEPKNS_24QStyleOptionGraphicsItemEPNS_7QWidgetE@Base 4.9.0
 _ZN5Katie16QDeclarativeText7setFontERKNS_5QFontE@Base 4.9.0
 _ZN5Katie16QDeclarativeText7setTextERKNS_7QStringE@Base 4.9.0
 _ZN5Katie16QDeclarativeText8setColorERKNS_6QColorE@Base 4.9.0
 _ZN5Katie16QDeclarativeText8setStyleENS0_9TextStyleE@Base 4.9.0
 _ZN5Katie16QDeclarativeText9setHAlignENS0_10HAlignmentE@Base 4.9.0
 _ZN5Katie16QDeclarativeText9setVAlignENS0_10VAlignmentE@Base 4.9.0
 _ZN5Katie16QDeclarativeTextC1EPNS_16QDeclarativeItemE@Base 4.9.0
 _ZN5Katie16QDeclarativeTextC2EPNS_16QDeclarativeItemE@Base 4.9.0
 _ZN5Katie16QDeclarativeTextD0Ev@Base 4.9.0
 _ZN5Katie16QDeclarativeTextD1Ev@Base 4.9.0
 _ZN5Katie16QDeclarativeTextD2Ev@Base 4.9.0
 _ZN5Katie16QDeclarativeTypeC1EiRKNS_19QDeclarativePrivate12RegisterTypeE@Base 4.9.0
 _ZN5Katie16QDeclarativeTypeC1EiRKNS_19QDeclarativePrivate17RegisterInterfaceE@Base 4.9.0
 _ZN5Katie16QDeclarativeTypeC2EiRKNS_19QDeclarativePrivate12RegisterTypeE@Base 4.9.0
 _ZN5Katie16QDeclarativeTypeC2EiRKNS_19QDeclarativePrivate17RegisterInterfaceE@Base 4.9.0
 _ZN5Katie16QDeclarativeTypeD1Ev@Base 4.9.0
 _ZN5Katie16QDeclarativeTypeD2Ev@Base 4.9.0
 _ZN5Katie16QDeclarativeView10paintEventEPNS_11QPaintEventE@Base 4.9.0
 _ZN5Katie16QDeclarativeView10timerEventEPNS_11QTimerEventE@Base 4.9.0
 _ZN5Katie16QDeclarativeView11eventFilterEPNS_7QObjectEPNS_6QEventE@Base 4.9.0
 _ZN5Katie16QDeclarativeView11qt_metacallENS_11QMetaObject4CallEiPPv@Base 4.9.0
 _ZN5Katie16QDeclarativeView11qt_metacastEPKc@Base 4.9.0
 _ZN5Katie16QDeclarativeView11resizeEventEPNS_12QResizeEventE@Base 4.9.0
 _ZN5Katie16QDeclarativeView12sceneResizedENS_5QSizeE@Base 4.9.0
 _ZN5Katie16QDeclarativeView13setResizeModeENS0_10ResizeModeE@Base 4.9.0
 _ZN5Katie16QDeclarativeView13setRootObjectEPNS_7QObjectE@Base 4.9.0
 _ZN5Katie16QDeclarativeView13statusChangedENS0_6StatusE@Base 4.9.0
 _ZN5Katie16QDeclarativeView15continueExecuteEv@Base 4.9.0
 _ZN5Katie16QDeclarativeView16staticMetaObjectE@Base 4.9.0
 _ZN5Katie16QDeclarativeView19getStaticMetaObjectEv@Base 4.9.0
 _ZN5Katie16QDeclarativeView9setSourceERKNS_4QUrlE@Base 4.9.0
 _ZN5Katie16QDeclarativeViewC1EPNS_7QWidgetE@Base 4.9.0
 _ZN5Katie16QDeclarativeViewC1ERKNS_4QUrlEPNS_7QWidgetE@Base 4.9.0
 _ZN5Katie16QDeclarativeViewC2EPNS_7QWidgetE@Base 4.9.0
 _ZN5Katie16QDeclarativeViewC2ERKNS_4QUrlEPNS_7QWidgetE@Base 4.9.0
 _ZN5Katie16QDeclarativeViewD0Ev@Base 4.9.0
 _ZN5Katie16QDeclarativeViewD1Ev@Base 4.9.0
 _ZN5Katie16QDeclarativeViewD2Ev@Base 4.9.0
 _ZN5Katie16QMetaEnumBuilder6addKeyERKNS_10QByteArrayEi@Base 4.9.0
 _ZN5Katie16QMetaEnumBuilder9removeKeyEi@Base 4.9.0
 _ZN5Katie16QMetaEnumBuilder9setIsFlagEb@Base 4.9.0
 _ZN5Katie17QDeclarativeError14setDescriptionERKNS_7QStringE@Base 4.9.0
 _ZN5Katie17QDeclarativeError6setUrlERKNS_4QUrlE@Base 4.9.0
 _ZN5Katie17QDeclarativeError7setLineEi@Base 4.9.0
 _ZN5Katie17QDeclarativeError9setColumnEi@Base 4.9.0
 _ZN5Katie17QDeclarativeErrorC1ERKS0_@Base 4.9.0
 _ZN5Katie17QDeclarativeErrorC1Ev@Base 4.9.0
 _ZN5Katie17QDeclarativeErrorC2ERKS0_@Base 4.9.0
 _ZN5Katie17QDeclarativeErrorC2Ev@Base 4.9.0
 _ZN5Katie17QDeclarativeErrorD1Ev@Base 4.9.0
 _ZN5Katie17QDeclarativeErrorD2Ev@Base 4.9.0
 _ZN5Katie17QDeclarativeErroraSERKS0_@Base 4.9.0
 _ZN5Katie17QDeclarativeState10setExtendsERKNS_7QStringE@Base 4.9.0
 _ZN5Katie17QDeclarativeState11qt_metacallENS_11QMetaObject4CallEiPPv@Base 4.9.0
 _ZN5Katie17QDeclarativeState11qt_metacastEPKc@Base 4.9.0
 _ZN5Katie17QDeclarativeState13setStateGroupEPNS_22QDeclarativeStateGroupE@Base 4.9.0
 _ZN5Katie17QDeclarativeState16staticMetaObjectE@Base 4.9.0
 _ZN5Katie17QDeclarativeState19getStaticMetaObjectEv@Base 4.9.0
 _ZN5Katie17QDeclarativeState20addEntryToRevertListERKNS_18QDeclarativeActionE@Base 4.9.0
 _ZN5Katie17QDeclarativeState22addEntriesToRevertListERKNS_5QListINS_18QDeclarativeActionEEE@Base 4.9.0
 _ZN5Katie17QDeclarativeState23changeValueInRevertListEPNS_7QObjectERKNS_7QStringERKNS_8QVariantE@Base 4.9.0
 _ZN5Katie17QDeclarativeState25changeBindingInRevertListEPNS_7QObjectERKNS_7QStringEPNS_27QDeclarativeAbstractBindingE@Base 4.9.0
 _ZN5Katie17QDeclarativeState25removeEntryFromRevertListEPNS_7QObjectERKNS_7QStringE@Base 4.9.0
 _ZN5Katie17QDeclarativeState30removeAllEntriesFromRevertListEPNS_7QObjectE@Base 4.9.0
 _ZN5Katie17QDeclarativeState5applyEPNS_22QDeclarativeStateGroupEPNS_22QDeclarativeTransitionEPS0_@Base 4.9.0
 _ZN5Katie17QDeclarativeState6cancelEv@Base 4.9.0
 _ZN5Katie17QDeclarativeState7changesEv@Base 4.9.0
 _ZN5Katie17QDeclarativeState7setNameERKNS_7QStringE@Base 4.9.0
 _ZN5Katie17QDeclarativeState7setWhenEPNS_19QDeclarativeBindingE@Base 4.9.0
 _ZN5Katie17QDeclarativeState9completedEv@Base 4.9.0
 _ZN5Katie17QDeclarativeStateC1EPNS_7QObjectE@Base 4.9.0
 _ZN5Katie17QDeclarativeStateC2EPNS_7QObjectE@Base 4.9.0
 _ZN5Katie17QDeclarativeStateD0Ev@Base 4.9.0
 _ZN5Katie17QDeclarativeStateD1Ev@Base 4.9.0
 _ZN5Katie17QDeclarativeStateD2Ev@Base 4.9.0
 _ZN5Katie17QDeclarativeStatelsEPNS_26QDeclarativeStateOperationE@Base 4.9.0
 _ZN5Katie17QDeclarativeTimer10classBeginEv@Base 4.9.0
 _ZN5Katie17QDeclarativeTimer10setRunningEb@Base 4.9.0
 _ZN5Katie17QDeclarativeTimer11qt_metacallENS_11QMetaObject4CallEiPPv@Base 4.9.0
 _ZN5Katie17QDeclarativeTimer11qt_metacastEPKc@Base 4.9.0
 _ZN5Katie17QDeclarativeTimer11setIntervalEi@Base 4.9.0
 _ZN5Katie17QDeclarativeTimer12setRepeatingEb@Base 4.9.0
 _ZN5Katie17QDeclarativeTimer13repeatChangedEv@Base 4.9.0
 _ZN5Katie17QDeclarativeTimer14runningChangedEv@Base 4.9.0
 _ZN5Katie17QDeclarativeTimer15intervalChangedEv@Base 4.9.0
 _ZN5Katie17QDeclarativeTimer16staticMetaObjectE@Base 4.9.0
 _ZN5Katie17QDeclarativeTimer17componentCompleteEv@Base 4.9.0
 _ZN5Katie17QDeclarativeTimer19getStaticMetaObjectEv@Base 4.9.0
 _ZN5Katie17QDeclarativeTimer19setTriggeredOnStartEb@Base 4.9.0
 _ZN5Katie17QDeclarativeTimer23triggeredOnStartChangedEv@Base 4.9.0
 _ZN5Katie17QDeclarativeTimer4stopEv@Base 4.9.0
 _ZN5Katie17QDeclarativeTimer5startEv@Base 4.9.0
 _ZN5Katie17QDeclarativeTimer6tickedEv@Base 4.9.0
 _ZN5Katie17QDeclarativeTimer6updateEv@Base 4.9.0
 _ZN5Katie17QDeclarativeTimer7restartEv@Base 4.9.0
 _ZN5Katie17QDeclarativeTimer8finishedEv@Base 4.9.0
 _ZN5Katie17QDeclarativeTimer9triggeredEv@Base 4.9.0
 _ZN5Katie17QDeclarativeTimerC1EPNS_7QObjectE@Base 4.9.0
 _ZN5Katie17QDeclarativeTimerC2EPNS_7QObjectE@Base 4.9.0
 _ZN5Katie18QDeclarativeAction17deleteFromBindingEv@Base 4.9.0
 _ZN5Katie18QDeclarativeActionC1EPNS_7QObjectERKNS_7QStringEPNS_19QDeclarativeContextERKNS_8QVariantE@Base 4.9.0
 _ZN5Katie18QDeclarativeActionC1EPNS_7QObjectERKNS_7QStringERKNS_8QVariantE@Base 4.9.0
 _ZN5Katie18QDeclarativeActionC1Ev@Base 4.9.0
 _ZN5Katie18QDeclarativeActionC2EPNS_7QObjectERKNS_7QStringEPNS_19QDeclarativeContextERKNS_8QVariantE@Base 4.9.0
 _ZN5Katie18QDeclarativeActionC2EPNS_7QObjectERKNS_7QStringERKNS_8QVariantE@Base 4.9.0
 _ZN5Katie18QDeclarativeActionC2Ev@Base 4.9.0
 _ZN5Katie18QDeclarativeEngine10setBaseUrlERKNS_4QUrlE@Base 4.9.0
 _ZN5Katie18QDeclarativeEngine11qt_metacallENS_11QMetaObject4CallEiPPv@Base 4.9.0
 _ZN5Katie18QDeclarativeEngine11qt_metacastEPKc@Base 4.9.0
 _ZN5Katie18QDeclarativeEngine12importPluginERKNS_7QStringES3_PS1_@Base 4.9.0
 _ZN5Katie18QDeclarativeEngine13addImportPathERKNS_7QStringE@Base 4.9.0
 _ZN5Katie18QDeclarativeEngine13addPluginPathERKNS_7QStringE@Base 4.9.0
 _ZN5Katie18QDeclarativeEngine15objectOwnershipEPNS_7QObjectE@Base 4.9.0
 _ZN5Katie18QDeclarativeEngine16addImageProviderERKNS_7QStringEPNS_25QDeclarativeImageProviderE@Base 4.9.0
 _ZN5Katie18QDeclarativeEngine16contextForObjectEPKNS_7QObjectE@Base 4.9.0
 _ZN5Katie18QDeclarativeEngine16staticMetaObjectE@Base 4.9.0
 _ZN5Katie18QDeclarativeEngine17setImportPathListERKNS_11QStringListE@Base 4.9.0
 _ZN5Katie18QDeclarativeEngine17setPluginPathListERKNS_11QStringListE@Base 4.9.0
 _ZN5Katie18QDeclarativeEngine18setObjectOwnershipEPNS_7QObjectENS0_15ObjectOwnershipE@Base 4.9.0
 _ZN5Katie18QDeclarativeEngine19clearComponentCacheEv@Base 4.9.0
 _ZN5Katie18QDeclarativeEngine19getStaticMetaObjectEv@Base 4.9.0
 _ZN5Katie18QDeclarativeEngine19removeImageProviderERKNS_7QStringE@Base 4.9.0
 _ZN5Katie18QDeclarativeEngine19setContextForObjectEPNS_7QObjectEPNS_19QDeclarativeContextE@Base 4.9.0
 _ZN5Katie18QDeclarativeEngine30setNetworkAccessManagerFactoryEPNS_39QDeclarativeNetworkAccessManagerFactoryE@Base 4.9.0
 _ZN5Katie18QDeclarativeEngine32setOutputWarningsToStandardErrorEb@Base 4.9.0
 _ZN5Katie18QDeclarativeEngine4quitEv@Base 4.9.0
 _ZN5Katie18QDeclarativeEngine8warningsERKNS_5QListINS_17QDeclarativeErrorEEE@Base 4.9.0
 _ZN5Katie18QDeclarativeEngineC1EPNS_7QObjectE@Base 4.9.0
 _ZN5Katie18QDeclarativeEngineC2EPNS_7QObjectE@Base 4.9.0
 _ZN5Katie18QDeclarativeEngineD0Ev@Base 4.9.0
 _ZN5Katie18QDeclarativeEngineD1Ev@Base 4.9.0
 _ZN5Katie18QDeclarativeEngineD2Ev@Base 4.9.0
 _ZN5Katie18QDeclarativeParser7VariantC1ERKNS_7QStringE@Base 4.9.0
 _ZN5Katie18QDeclarativeParser7VariantC1ERKNS_7QStringEPNS_14QDeclarativeJS3AST4NodeE@Base 4.9.0
 _ZN5Katie18QDeclarativeParser7VariantC1ERKS1_@Base 4.9.0
 _ZN5Katie18QDeclarativeParser7VariantC1Eb@Base 4.9.0
 _ZN5Katie18QDeclarativeParser7VariantC1EdRKNS_7QStringE@Base 4.9.0
 _ZN5Katie18QDeclarativeParser7VariantC1Ev@Base 4.9.0
 _ZN5Katie18QDeclarativeParser7VariantC2ERKNS_7QStringE@Base 4.9.0
 _ZN5Katie18QDeclarativeParser7VariantC2ERKNS_7QStringEPNS_14QDeclarativeJS3AST4NodeE@Base 4.9.0
 _ZN5Katie18QDeclarativeParser7VariantC2ERKS1_@Base 4.9.0
 _ZN5Katie18QDeclarativeParser7VariantC2Eb@Base 4.9.0
 _ZN5Katie18QDeclarativeParser7VariantC2EdRKNS_7QStringE@Base 4.9.0
 _ZN5Katie18QDeclarativeParser7VariantC2Ev@Base 4.9.0
 _ZN5Katie18QDeclarativeParser7VariantaSERKS1_@Base 4.9.0
 _ZN5Katie18QDeclarativePixmap10flushCacheEv@Base 4.9.0
 _ZN5Katie18QDeclarativePixmap15connectFinishedEPNS_7QObjectEPKc@Base 4.9.0
 _ZN5Katie18QDeclarativePixmap15connectFinishedEPNS_7QObjectEi@Base 4.9.0
 _ZN5Katie18QDeclarativePixmap23connectDownloadProgressEPNS_7QObjectEPKc@Base 4.9.0
 _ZN5Katie18QDeclarativePixmap23connectDownloadProgressEPNS_7QObjectEi@Base 4.9.0
 _ZN5Katie18QDeclarativePixmap4loadEPNS_18QDeclarativeEngineERKNS_4QUrlE@Base 4.9.0
 _ZN5Katie18QDeclarativePixmap4loadEPNS_18QDeclarativeEngineERKNS_4QUrlENS_6QFlagsINS0_6OptionEEE@Base 4.9.0
 _ZN5Katie18QDeclarativePixmap4loadEPNS_18QDeclarativeEngineERKNS_4QUrlERKNS_5QSizeE@Base 4.9.0
 _ZN5Katie18QDeclarativePixmap4loadEPNS_18QDeclarativeEngineERKNS_4QUrlERKNS_5QSizeENS_6QFlagsINS0_6OptionEEE@Base 4.9.0
 _ZN5Katie18QDeclarativePixmap5clearEPNS_7QObjectE@Base 4.9.0
 _ZN5Katie18QDeclarativePixmap5clearEv@Base 4.9.0
 _ZN5Katie18QDeclarativePixmap9setPixmapERKNS_7QPixmapE@Base 4.9.0
 _ZN5Katie18QDeclarativePixmapC1EPNS_18QDeclarativeEngineERKNS_4QUrlE@Base 4.9.0
 _ZN5Katie18QDeclarativePixmapC1EPNS_18QDeclarativeEngineERKNS_4QUrlERKNS_5QSizeE@Base 4.9.0
 _ZN5Katie18QDeclarativePixmapC1Ev@Base 4.9.0
 _ZN5Katie18QDeclarativePixmapC2EPNS_18QDeclarativeEngineERKNS_4QUrlE@Base 4.9.0
 _ZN5Katie18QDeclarativePixmapC2EPNS_18QDeclarativeEngineERKNS_4QUrlERKNS_5QSizeE@Base 4.9.0
 _ZN5Katie18QDeclarativePixmapC2Ev@Base 4.9.0
 _ZN5Katie18QDeclarativePixmapD1Ev@Base 4.9.0
 _ZN5Katie18QDeclarativePixmapD2Ev@Base 4.9.0
 _ZN5Katie18QMetaMethodBuilder13setAttributesEi@Base 4.9.0
 _ZN5Katie18QMetaMethodBuilder13setReturnTypeERKNS_10QByteArrayE@Base 4.9.0
 _ZN5Katie18QMetaMethodBuilder17setParameterNamesERKNS_5QListINS_10QByteArrayEEE@Base 4.9.0
 _ZN5Katie18QMetaMethodBuilder6setTagERKNS_10QByteArrayE@Base 4.9.0
 _ZN5Katie18QMetaMethodBuilder9setAccessENS_11QMetaMethod6AccessE@Base 4.9.0
 _ZN5Katie18QMetaObjectBuilder11addPropertyERKNS_10QByteArrayES3_i@Base 4.9.0
 _ZN5Katie18QMetaObjectBuilder11addPropertyERKNS_13QMetaPropertyE@Base 4.9.0
 _ZN5Katie18QMetaObjectBuilder11deserializeERNS_11QDataStreamERKNS_4QMapINS_10QByteArrayEPKNS_11QMetaObjectEEE@Base 4.9.0
 _ZN5Katie18QMetaObjectBuilder11indexOfSlotERKNS_10QByteArrayE@Base 4.9.0
 _ZN5Katie18QMetaObjectBuilder12addClassInfoERKNS_10QByteArrayES3_@Base 4.9.0
 _ZN5Katie18QMetaObjectBuilder12removeMethodEi@Base 4.9.0
 _ZN5Katie18QMetaObjectBuilder12setClassNameERKNS_10QByteArrayE@Base 4.9.0
 _ZN5Katie18QMetaObjectBuilder13addEnumeratorERKNS_10QByteArrayE@Base 4.9.0
 _ZN5Katie18QMetaObjectBuilder13addEnumeratorERKNS_9QMetaEnumE@Base 4.9.0
 _ZN5Katie18QMetaObjectBuilder13addMetaObjectEPKNS_11QMetaObjectENS_6QFlagsINS0_9AddMemberEEE@Base 4.9.0
 _ZN5Katie18QMetaObjectBuilder13indexOfMethodERKNS_10QByteArrayE@Base 4.9.0
 _ZN5Katie18QMetaObjectBuilder13indexOfSignalERKNS_10QByteArrayE@Base 4.9.0
 _ZN5Katie18QMetaObjectBuilder13setSuperClassEPKNS_11QMetaObjectE@Base 4.9.0
 _ZN5Katie18QMetaObjectBuilder14addConstructorERKNS_10QByteArrayE@Base 4.9.0
 _ZN5Katie18QMetaObjectBuilder14addConstructorERKNS_11QMetaMethodE@Base 4.9.0
 _ZN5Katie18QMetaObjectBuilder14removePropertyEi@Base 4.9.0
 _ZN5Katie18QMetaObjectBuilder15indexOfPropertyERKNS_10QByteArrayE@Base 4.9.0
 _ZN5Katie18QMetaObjectBuilder15removeClassInfoEi@Base 4.9.0
 _ZN5Katie18QMetaObjectBuilder16indexOfClassInfoERKNS_10QByteArrayE@Base 4.9.0
 _ZN5Katie18QMetaObjectBuilder16removeEnumeratorEi@Base 4.9.0
 _ZN5Katie18QMetaObjectBuilder17indexOfEnumeratorERKNS_10QByteArrayE@Base 4.9.0
 _ZN5Katie18QMetaObjectBuilder17removeConstructorEi@Base 4.9.0
 _ZN5Katie18QMetaObjectBuilder18indexOfConstructorERKNS_10QByteArrayE@Base 4.9.0
 _ZN5Katie18QMetaObjectBuilder19fromRelocatableDataEPNS_11QMetaObjectEPKS1_RKNS_10QByteArrayE@Base 4.9.0
 _ZN5Katie18QMetaObjectBuilder20addRelatedMetaObjectERKPFRKNS_11QMetaObjectEvE@Base 4.9.0
 _ZN5Katie18QMetaObjectBuilder23removeRelatedMetaObjectEi@Base 4.9.0
 _ZN5Katie18QMetaObjectBuilder25setStaticMetacallFunctionEPFvPNS_7QObjectENS_11QMetaObject4CallEiPPvE@Base 4.9.0
 _ZN5Katie18QMetaObjectBuilder7addSlotERKNS_10QByteArrayE@Base 4.9.0
 _ZN5Katie18QMetaObjectBuilder8setFlagsENS_6QFlagsINS0_14MetaObjectFlagEEE@Base 4.9.0
 _ZN5Katie18QMetaObjectBuilder9addMethodERKNS_10QByteArrayE@Base 4.9.0
 _ZN5Katie18QMetaObjectBuilder9addMethodERKNS_10QByteArrayES3_@Base 4.9.0
 _ZN5Katie18QMetaObjectBuilder9addMethodERKNS_11QMetaMethodE@Base 4.9.0
 _ZN5Katie18QMetaObjectBuilder9addSignalERKNS_10QByteArrayE@Base 4.9.0
 _ZN5Katie18QMetaObjectBuilderC1EPKNS_11QMetaObjectENS_6QFlagsINS0_9AddMemberEEE@Base 4.9.0
 _ZN5Katie18QMetaObjectBuilderC1Ev@Base 4.9.0
 _ZN5Katie18QMetaObjectBuilderC2EPKNS_11QMetaObjectENS_6QFlagsINS0_9AddMemberEEE@Base 4.9.0
 _ZN5Katie18QMetaObjectBuilderC2Ev@Base 4.9.0
 _ZN5Katie18QMetaObjectBuilderD0Ev@Base 4.9.0
 _ZN5Katie18QMetaObjectBuilderD1Ev@Base 4.9.0
 _ZN5Katie18QMetaObjectBuilderD2Ev@Base 4.9.0
 _ZN5Katie18qmlExecuteDeferredEPNS_7QObjectE@Base 4.9.0
 _ZN5Katie19QDeclarativeAnchors10classBeginEv@Base 4.9.0
 _ZN5Katie19QDeclarativeAnchors10resetRightEv@Base 4.9.0
 _ZN5Katie19QDeclarativeAnchors10setMarginsEd@Base 4.9.0
 _ZN5Katie19QDeclarativeAnchors10topChangedEv@Base 4.9.0
 _ZN5Katie19QDeclarativeAnchors11fillChangedEv@Base 4.9.0
 _ZN5Katie19QDeclarativeAnchors11leftChangedEv@Base 4.9.0
 _ZN5Katie19QDeclarativeAnchors11qt_metacallENS_11QMetaObject4CallEiPPv@Base 4.9.0
 _ZN5Katie19QDeclarativeAnchors11qt_metacastEPKc@Base 4.9.0
 _ZN5Katie19QDeclarativeAnchors11resetBottomEv@Base 4.9.0
 _ZN5Katie19QDeclarativeAnchors11setBaselineERKNS_22QDeclarativeAnchorLineE@Base 4.9.0
 _ZN5Katie19QDeclarativeAnchors11setCenterInEPNS_15QGraphicsObjectE@Base 4.9.0
 _ZN5Katie19QDeclarativeAnchors12rightChangedEv@Base 4.9.0
 _ZN5Katie19QDeclarativeAnchors12setTopMarginEd@Base 4.9.0
 _ZN5Katie19QDeclarativeAnchors13bottomChangedEv@Base 4.9.0
 _ZN5Katie19QDeclarativeAnchors13resetBaselineEv@Base 4.9.0
 _ZN5Katie19QDeclarativeAnchors13resetCenterInEv@Base 4.9.0
 _ZN5Katie19QDeclarativeAnchors13setLeftMarginEd@Base 4.9.0
 _ZN5Katie19QDeclarativeAnchors14marginsChangedEv@Base 4.9.0
 _ZN5Katie19QDeclarativeAnchors14setRightMarginEd@Base 4.9.0
 _ZN5Katie19QDeclarativeAnchors15baselineChangedEv@Base 4.9.0
 _ZN5Katie19QDeclarativeAnchors15centerInChangedEv@Base 4.9.0
 _ZN5Katie19QDeclarativeAnchors15setBottomMarginEd@Base 4.9.0
 _ZN5Katie19QDeclarativeAnchors16staticMetaObjectE@Base 4.9.0
 _ZN5Katie19QDeclarativeAnchors16topMarginChangedEv@Base 4.9.0
 _ZN5Katie19QDeclarativeAnchors17componentCompleteEv@Base 4.9.0
 _ZN5Katie19QDeclarativeAnchors17leftMarginChangedEv@Base 4.9.0
 _ZN5Katie19QDeclarativeAnchors17setBaselineOffsetEd@Base 4.9.0
 _ZN5Katie19QDeclarativeAnchors17setVerticalCenterERKNS_22QDeclarativeAnchorLineE@Base 4.9.0
 _ZN5Katie19QDeclarativeAnchors18rightMarginChangedEv@Base 4.9.0
 _ZN5Katie19QDeclarativeAnchors19bottomMarginChangedEv@Base 4.9.0
 _ZN5Katie19QDeclarativeAnchors19getStaticMetaObjectEv@Base 4.9.0
 _ZN5Katie19QDeclarativeAnchors19resetVerticalCenterEv@Base 4.9.0
 _ZN5Katie19QDeclarativeAnchors19setHorizontalCenterERKNS_22QDeclarativeAnchorLineE@Base 4.9.0
 _ZN5Katie19QDeclarativeAnchors21baselineOffsetChangedEv@Base 4.9.0
 _ZN5Katie19QDeclarativeAnchors21resetHorizontalCenterEv@Base 4.9.0
 _ZN5Katie19QDeclarativeAnchors21verticalCenterChangedEv@Base 4.9.0
 _ZN5Katie19QDeclarativeAnchors23horizontalCenterChangedEv@Base 4.9.0
 _ZN5Katie19QDeclarativeAnchors23setVerticalCenterOffsetEd@Base 4.9.0
 _ZN5Katie19QDeclarativeAnchors25setHorizontalCenterOffsetEd@Base 4.9.0
 _ZN5Katie19QDeclarativeAnchors27verticalCenterOffsetChangedEv@Base 4.9.0
 _ZN5Katie19QDeclarativeAnchors29horizontalCenterOffsetChangedEv@Base 4.9.0
 _ZN5Katie19QDeclarativeAnchors6setTopERKNS_22QDeclarativeAnchorLineE@Base 4.9.0
 _ZN5Katie19QDeclarativeAnchors7setFillEPNS_15QGraphicsObjectE@Base 4.9.0
 _ZN5Katie19QDeclarativeAnchors7setLeftERKNS_22QDeclarativeAnchorLineE@Base 4.9.0
 _ZN5Katie19QDeclarativeAnchors8mirroredEv@Base 4.9.0
 _ZN5Katie19QDeclarativeAnchors8resetTopEv@Base 4.9.0
 _ZN5Katie19QDeclarativeAnchors8setRightERKNS_22QDeclarativeAnchorLineE@Base 4.9.0
 _ZN5Katie19QDeclarativeAnchors9resetFillEv@Base 4.9.0
 _ZN5Katie19QDeclarativeAnchors9resetLeftEv@Base 4.9.0
 _ZN5Katie19QDeclarativeAnchors9setBottomERKNS_22QDeclarativeAnchorLineE@Base 4.9.0
 _ZN5Katie19QDeclarativeAnchorsC1EPNS_15QGraphicsObjectEPNS_7QObjectE@Base 4.9.0
 _ZN5Katie19QDeclarativeAnchorsC1EPNS_7QObjectE@Base 4.9.0
 _ZN5Katie19QDeclarativeAnchorsC2EPNS_15QGraphicsObjectEPNS_7QObjectE@Base 4.9.0
 _ZN5Katie19QDeclarativeAnchorsC2EPNS_7QObjectE@Base 4.9.0
 _ZN5Katie19QDeclarativeAnchorsD0Ev@Base 4.9.0
 _ZN5Katie19QDeclarativeAnchorsD1Ev@Base 4.9.0
 _ZN5Katie19QDeclarativeAnchorsD2Ev@Base 4.9.0
 _ZN5Katie19QDeclarativeBinding10disconnectENS_27QDeclarativeAbstractBinding14DisconnectModeE@Base 4.9.0
 _ZN5Katie19QDeclarativeBinding10setEnabledEbNS_6QFlagsINS_27QDeclarativePropertyPrivate9WriteFlagEEE@Base 4.9.0
 _ZN5Katie19QDeclarativeBinding11qt_metacallENS_11QMetaObject4CallEiPPv@Base 4.9.0
 _ZN5Katie19QDeclarativeBinding11qt_metacastEPKc@Base 4.9.0
 _ZN5Katie19QDeclarativeBinding13createBindingEiPNS_7QObjectEPNS_19QDeclarativeContextERKNS_7QStringEiS2_@Base 4.9.0
 _ZN5Katie19QDeclarativeBinding16setEvaluateFlagsENS_6QFlagsINS0_12EvaluateFlagEEE@Base 4.9.0
 _ZN5Katie19QDeclarativeBinding16staticMetaObjectE@Base 4.9.0
 _ZN5Katie19QDeclarativeBinding19getStaticMetaObjectEv@Base 4.9.0
 _ZN5Katie19QDeclarativeBinding6updateENS_6QFlagsINS_27QDeclarativePropertyPrivate9WriteFlagEEE@Base 4.9.0
 _ZN5Katie19QDeclarativeBinding7InvalidE@Base 4.9.0
 _ZN5Katie19QDeclarativeBinding9setTargetERKNS_20QDeclarativePropertyE@Base 4.9.0
 _ZN5Katie19QDeclarativeBindingC1EPvPNS_20QDeclarativeRefCountEPNS_7QObjectEPNS_23QDeclarativeContextDataERKNS_7QStringEiS5_@Base 4.9.0
 _ZN5Katie19QDeclarativeBindingC1ERKNS_12QScriptValueEPNS_7QObjectEPNS_23QDeclarativeContextDataES5_@Base 4.9.0
 _ZN5Katie19QDeclarativeBindingC1ERKNS_7QStringEPNS_7QObjectEPNS_19QDeclarativeContextES5_@Base 4.9.0
 _ZN5Katie19QDeclarativeBindingC1ERKNS_7QStringEPNS_7QObjectEPNS_23QDeclarativeContextDataES5_@Base 4.9.0
 _ZN5Katie19QDeclarativeBindingC2EPvPNS_20QDeclarativeRefCountEPNS_7QObjectEPNS_23QDeclarativeContextDataERKNS_7QStringEiS5_@Base 4.9.0
 _ZN5Katie19QDeclarativeBindingC2ERKNS_12QScriptValueEPNS_7QObjectEPNS_23QDeclarativeContextDataES5_@Base 4.9.0
 _ZN5Katie19QDeclarativeBindingC2ERKNS_7QStringEPNS_7QObjectEPNS_19QDeclarativeContextES5_@Base 4.9.0
 _ZN5Katie19QDeclarativeBindingC2ERKNS_7QStringEPNS_7QObjectEPNS_23QDeclarativeContextDataES5_@Base 4.9.0
 _ZN5Katie19QDeclarativeBindingD0Ev@Base 4.9.0
 _ZN5Katie19QDeclarativeBindingD1Ev@Base 4.9.0
 _ZN5Katie19QDeclarativeBindingD2Ev@Base 4.9.0
 _ZN5Katie19QDeclarativeContext10setBaseUrlERKNS_4QUrlE@Base 4.9.0
 _ZN5Katie19QDeclarativeContext11qt_metacallENS_11QMetaObject4CallEiPPv@Base 4.9.0
 _ZN5Katie19QDeclarativeContext11qt_metacastEPKc@Base 4.9.0
 _ZN5Katie19QDeclarativeContext11resolvedUrlERKNS_4QUrlE@Base 4.9.0
 _ZN5Katie19QDeclarativeContext16setContextObjectEPNS_7QObjectE@Base 4.9.0
 _ZN5Katie19QDeclarativeContext16staticMetaObjectE@Base 4.9.0
 _ZN5Katie19QDeclarativeContext18setContextPropertyERKNS_7QStringEPNS_7QObjectE@Base 4.9.0
 _ZN5Katie19QDeclarativeContext18setContextPropertyERKNS_7QStringERKNS_8QVariantE@Base 4.9.0
 _ZN5Katie19QDeclarativeContext19getStaticMetaObjectEv@Base 4.9.0
 _ZN5Katie19QDeclarativeContextC1EPNS_18QDeclarativeEngineEPNS_7QObjectE@Base 4.9.0
 _ZN5Katie19QDeclarativeContextC1EPNS_18QDeclarativeEngineEb@Base 4.9.0
 _ZN5Katie19QDeclarativeContextC1EPNS_23QDeclarativeContextDataE@Base 4.9.0
 _ZN5Katie19QDeclarativeContextC1EPS0_PNS_7QObjectE@Base 4.9.0
 _ZN5Katie19QDeclarativeContextC2EPNS_18QDeclarativeEngineEPNS_7QObjectE@Base 4.9.0
 _ZN5Katie19QDeclarativeContextC2EPNS_18QDeclarativeEngineEb@Base 4.9.0
 _ZN5Katie19QDeclarativeContextC2EPNS_23QDeclarativeContextDataE@Base 4.9.0
 _ZN5Katie19QDeclarativeContextC2EPS0_PNS_7QObjectE@Base 4.9.0
 _ZN5Katie19QDeclarativeContextD0Ev@Base 4.9.0
 _ZN5Katie19QDeclarativeContextD1Ev@Base 4.9.0
 _ZN5Katie19QDeclarativeContextD2Ev@Base 4.9.0
 _ZN5Katie19QDeclarativePrivate11qmlregisterENS0_16RegistrationTypeEPv@Base 4.9.0
 _ZN5Katie19QDeclarativePrivate30qdeclarativeelement_destructorEPNS_7QObjectE@Base 4.9.0
 _ZN5Katie19QListModelInterface10itemsMovedEiii@Base 4.9.0
 _ZN5Katie19QListModelInterface11qt_metacallENS_11QMetaObject4CallEiPPv@Base 4.9.0
 _ZN5Katie19QListModelInterface11qt_metacastEPKc@Base 4.9.0
 _ZN5Katie19QListModelInterface12itemsChangedEiiRKNS_5QListIiEE@Base 4.9.0
 _ZN5Katie19QListModelInterface12itemsRemovedEii@Base 4.9.0
 _ZN5Katie19QListModelInterface13itemsInsertedEii@Base 4.9.0
 _ZN5Katie19QListModelInterface16staticMetaObjectE@Base 4.9.0
 _ZN5Katie19QListModelInterface19getStaticMetaObjectEv@Base 4.9.0
 _ZN5Katie20QDeclarativeBehavior10setEnabledEb@Base 4.9.0
 _ZN5Katie20QDeclarativeBehavior11qt_metacallENS_11QMetaObject4CallEiPPv@Base 4.9.0
 _ZN5Katie20QDeclarativeBehavior11qt_metacastEPKc@Base 4.9.0
 _ZN5Katie20QDeclarativeBehavior12setAnimationEPNS_29QDeclarativeAbstractAnimationE@Base 4.9.0
 _ZN5Katie20QDeclarativeBehavior14enabledChangedEv@Base 4.9.0
 _ZN5Katie20QDeclarativeBehavior16staticMetaObjectE@Base 4.9.0
 _ZN5Katie20QDeclarativeBehavior18componentFinalizedEv@Base 4.9.0
 _ZN5Katie20QDeclarativeBehavior19getStaticMetaObjectEv@Base 4.9.0
 _ZN5Katie20QDeclarativeBehavior23qtAnimationStateChangedENS_18QAbstractAnimation5StateES2_@Base 4.9.0
 _ZN5Katie20QDeclarativeBehavior5writeERKNS_8QVariantE@Base 4.9.0
 _ZN5Katie20QDeclarativeBehavior9animationEv@Base 4.9.0
 _ZN5Katie20QDeclarativeBehavior9setTargetERKNS_20QDeclarativePropertyE@Base 4.9.0
 _ZN5Katie20QDeclarativeBehaviorC1EPNS_7QObjectE@Base 4.9.0
 _ZN5Katie20QDeclarativeBehaviorC2EPNS_7QObjectE@Base 4.9.0
 _ZN5Katie20QDeclarativeBehaviorD0Ev@Base 4.9.0
 _ZN5Katie20QDeclarativeBehaviorD1Ev@Base 4.9.0
 _ZN5Katie20QDeclarativeBehaviorD2Ev@Base 4.9.0
 _ZN5Katie20QDeclarativeMetaType11isInterfaceEi@Base 4.9.0
 _ZN5Katie20QDeclarativeMetaType12interfaceIIdEi@Base 4.9.0
 _ZN5Katie20QDeclarativeMetaType12qmlTypeNamesEv@Base 4.9.0
 _ZN5Katie20QDeclarativeMetaType12typeCategoryEi@Base 4.9.0
 _ZN5Katie20QDeclarativeMetaType13defaultMethodEPKNS_11QMetaObjectE@Base 4.9.0
 _ZN5Katie20QDeclarativeMetaType13defaultMethodEPNS_7QObjectE@Base 4.9.0
 _ZN5Katie20QDeclarativeMetaType13qmlComponentsERKNS_10QByteArrayEii@Base 4.9.0
 _ZN5Katie20QDeclarativeMetaType15defaultPropertyEPKNS_11QMetaObjectE@Base 4.9.0
 _ZN5Katie20QDeclarativeMetaType15defaultPropertyEPNS_7QObjectE@Base 4.9.0
 _ZN5Katie20QDeclarativeMetaType15parentFunctionsEv@Base 4.9.0
 _ZN5Katie20QDeclarativeMetaType21customStringConverterEi@Base 4.9.0
 _ZN5Katie20QDeclarativeMetaType24attachedPropertiesFuncIdEPKNS_11QMetaObjectE@Base 4.9.0
 _ZN5Katie20QDeclarativeMetaType26attachedPropertiesFuncByIdEi@Base 4.9.0
 _ZN5Katie20QDeclarativeMetaType29registerCustomStringConverterEiPFNS_8QVariantERKNS_7QStringEE@Base 4.9.0
 _ZN5Katie20QDeclarativeMetaType4copyEiPvPKv@Base 4.9.0
 _ZN5Katie20QDeclarativeMetaType6isListEi@Base 4.9.0
 _ZN5Katie20QDeclarativeMetaType7canCopyEi@Base 4.9.0
 _ZN5Katie20QDeclarativeMetaType7qmlTypeEPKNS_11QMetaObjectE@Base 4.9.0
 _ZN5Katie20QDeclarativeMetaType7qmlTypeEPKNS_11QMetaObjectERKNS_10QByteArrayEii@Base 4.9.0
 _ZN5Katie20QDeclarativeMetaType7qmlTypeERKNS_10QByteArrayEii@Base 4.9.0
 _ZN5Katie20QDeclarativeMetaType7qmlTypeEi@Base 4.9.0
 _ZN5Katie20QDeclarativeMetaType8isModuleERKNS_10QByteArrayEii@Base 4.9.0
 _ZN5Katie20QDeclarativeMetaType8listTypeEi@Base 4.9.0
 _ZN5Katie20QDeclarativeMetaType8qmlTypesEv@Base 4.9.0
 _ZN5Katie20QDeclarativeMetaType9isQObjectEi@Base 4.9.0
 _ZN5Katie20QDeclarativeMetaType9toQObjectERKNS_8QVariantEPb@Base 4.9.0
 _ZN5Katie20QDeclarativeProperty4readEPNS_7QObjectERKNS_7QStringE@Base 4.9.0
 _ZN5Katie20QDeclarativeProperty4readEPNS_7QObjectERKNS_7QStringEPNS_18QDeclarativeEngineE@Base 4.9.0
 _ZN5Katie20QDeclarativeProperty4readEPNS_7QObjectERKNS_7QStringEPNS_19QDeclarativeContextE@Base 4.9.0
 _ZN5Katie20QDeclarativeProperty5writeEPNS_7QObjectERKNS_7QStringERKNS_8QVariantE@Base 4.9.0
 _ZN5Katie20QDeclarativeProperty5writeEPNS_7QObjectERKNS_7QStringERKNS_8QVariantEPNS_18QDeclarativeEngineE@Base 4.9.0
 _ZN5Katie20QDeclarativeProperty5writeEPNS_7QObjectERKNS_7QStringERKNS_8QVariantEPNS_19QDeclarativeContextE@Base 4.9.0
 _ZN5Katie20QDeclarativePropertyC1EPNS_7QObjectE@Base 4.9.0
 _ZN5Katie20QDeclarativePropertyC1EPNS_7QObjectEPNS_18QDeclarativeEngineE@Base 4.9.0
 _ZN5Katie20QDeclarativePropertyC1EPNS_7QObjectEPNS_19QDeclarativeContextE@Base 4.9.0
 _ZN5Katie20QDeclarativePropertyC1EPNS_7QObjectERKNS_7QStringE@Base 4.9.0
 _ZN5Katie20QDeclarativePropertyC1EPNS_7QObjectERKNS_7QStringEPNS_18QDeclarativeEngineE@Base 4.9.0
 _ZN5Katie20QDeclarativePropertyC1EPNS_7QObjectERKNS_7QStringEPNS_19QDeclarativeContextE@Base 4.9.0
 _ZN5Katie20QDeclarativePropertyC1ERKS0_@Base 4.9.0
 _ZN5Katie20QDeclarativePropertyC1Ev@Base 4.9.0
 _ZN5Katie20QDeclarativePropertyC2EPNS_7QObjectE@Base 4.9.0
 _ZN5Katie20QDeclarativePropertyC2EPNS_7QObjectEPNS_18QDeclarativeEngineE@Base 4.9.0
 _ZN5Katie20QDeclarativePropertyC2EPNS_7QObjectEPNS_19QDeclarativeContextE@Base 4.9.0
 _ZN5Katie20QDeclarativePropertyC2EPNS_7QObjectERKNS_7QStringE@Base 4.9.0
 _ZN5Katie20QDeclarativePropertyC2EPNS_7QObjectERKNS_7QStringEPNS_18QDeclarativeEngineE@Base 4.9.0
 _ZN5Katie20QDeclarativePropertyC2EPNS_7QObjectERKNS_7QStringEPNS_19QDeclarativeContextE@Base 4.9.0
 _ZN5Katie20QDeclarativePropertyC2ERKS0_@Base 4.9.0
 _ZN5Katie20QDeclarativePropertyC2Ev@Base 4.9.0
 _ZN5Katie20QDeclarativePropertyD1Ev@Base 4.9.0
 _ZN5Katie20QDeclarativePropertyD2Ev@Base 4.9.0
 _ZN5Katie20QDeclarativePropertyaSERKS0_@Base 4.9.0
 _ZN5Katie20QDeclarativeRefCount6addrefEv@Base 4.9.0
 _ZN5Katie20QDeclarativeRefCount7releaseEv@Base 4.9.0
 _ZN5Katie20QDeclarativeRefCountC1Ev@Base 4.9.0
 _ZN5Katie20QDeclarativeRefCountC2Ev@Base 4.9.0
 _ZN5Katie20QDeclarativeRefCountD0Ev@Base 4.9.0
 _ZN5Katie20QDeclarativeRefCountD1Ev@Base 4.9.0
 _ZN5Katie20QDeclarativeRefCountD2Ev@Base 4.9.0
 _ZN5Katie20QMetaPropertyBuilder11setConstantEb@Base 4.9.0
 _ZN5Katie20QMetaPropertyBuilder11setEditableEb@Base 4.9.0
 _ZN5Katie20QMetaPropertyBuilder11setReadableEb@Base 4.9.0
 _ZN5Katie20QMetaPropertyBuilder11setWritableEb@Base 4.9.0
 _ZN5Katie20QMetaPropertyBuilder12setStdCppSetEb@Base 4.9.0
 _ZN5Katie20QMetaPropertyBuilder13setDesignableEb@Base 4.9.0
 _ZN5Katie20QMetaPropertyBuilder13setEnumOrFlagEb@Base 4.9.0
 _ZN5Katie20QMetaPropertyBuilder13setResettableEb@Base 4.9.0
 _ZN5Katie20QMetaPropertyBuilder13setScriptableEb@Base 4.9.0
 _ZN5Katie20QMetaPropertyBuilder15setNotifySignalERKNS_18QMetaMethodBuilderE@Base 4.9.0
 _ZN5Katie20QMetaPropertyBuilder18removeNotifySignalEv@Base 4.9.0
 _ZN5Katie20QMetaPropertyBuilder7setUserEb@Base 4.9.0
 _ZN5Katie20QMetaPropertyBuilder8setFinalEb@Base 4.9.0
 _ZN5Katie20QMetaPropertyBuilder9setStoredEb@Base 4.9.0
 _ZN5Katie21QDeclarativeComponent11beginCreateEPNS_19QDeclarativeContextE@Base 4.9.0
 _ZN5Katie21QDeclarativeComponent11qt_metacallENS_11QMetaObject4CallEiPPv@Base 4.9.0
 _ZN5Katie21QDeclarativeComponent11qt_metacastEPKc@Base 4.9.0
 _ZN5Katie21QDeclarativeComponent12createObjectEPNS_7QObjectE@Base 4.9.0
 _ZN5Katie21QDeclarativeComponent12createObjectEPNS_7QObjectERKNS_12QScriptValueE@Base 4.9.0
 _ZN5Katie21QDeclarativeComponent13statusChangedENS0_6StatusE@Base 4.9.0
 _ZN5Katie21QDeclarativeComponent14completeCreateEv@Base 4.9.0
 _ZN5Katie21QDeclarativeComponent15progressChangedEd@Base 4.9.0
 _ZN5Katie21QDeclarativeComponent16staticMetaObjectE@Base 4.9.0
 _ZN5Katie21QDeclarativeComponent19getStaticMetaObjectEv@Base 4.9.0
 _ZN5Katie21QDeclarativeComponent21qmlAttachedPropertiesEPNS_7QObjectE@Base 4.9.0
 _ZN5Katie21QDeclarativeComponent6createEPNS_19QDeclarativeContextE@Base 4.9.0
 _ZN5Katie21QDeclarativeComponent7loadUrlERKNS_4QUrlE@Base 4.9.0
 _ZN5Katie21QDeclarativeComponent7setDataERKNS_10QByteArrayERKNS_4QUrlE@Base 4.9.0
 _ZN5Katie21QDeclarativeComponentC1EPNS_18QDeclarativeEngineEPNS_24QDeclarativeCompiledDataEiiPNS_7QObjectE@Base 4.9.0
 _ZN5Katie21QDeclarativeComponentC1EPNS_18QDeclarativeEngineEPNS_7QObjectE@Base 4.9.0
 _ZN5Katie21QDeclarativeComponentC1EPNS_18QDeclarativeEngineERKNS_4QUrlEPNS_7QObjectE@Base 4.9.0
 _ZN5Katie21QDeclarativeComponentC1EPNS_18QDeclarativeEngineERKNS_7QStringEPNS_7QObjectE@Base 4.9.0
 _ZN5Katie21QDeclarativeComponentC1EPNS_7QObjectE@Base 4.9.0
 _ZN5Katie21QDeclarativeComponentC1ERNS_28QDeclarativeComponentPrivateEPNS_7QObjectE@Base 4.9.0
 _ZN5Katie21QDeclarativeComponentC2EPNS_18QDeclarativeEngineEPNS_24QDeclarativeCompiledDataEiiPNS_7QObjectE@Base 4.9.0
 _ZN5Katie21QDeclarativeComponentC2EPNS_18QDeclarativeEngineEPNS_7QObjectE@Base 4.9.0
 _ZN5Katie21QDeclarativeComponentC2EPNS_18QDeclarativeEngineERKNS_4QUrlEPNS_7QObjectE@Base 4.9.0
 _ZN5Katie21QDeclarativeComponentC2EPNS_18QDeclarativeEngineERKNS_7QStringEPNS_7QObjectE@Base 4.9.0
 _ZN5Katie21QDeclarativeComponentC2EPNS_7QObjectE@Base 4.9.0
 _ZN5Katie21QDeclarativeComponentC2ERNS_28QDeclarativeComponentPrivateEPNS_7QObjectE@Base 4.9.0
 _ZN5Katie21QDeclarativeComponentD0Ev@Base 4.9.0
 _ZN5Katie21QDeclarativeComponentD1Ev@Base 4.9.0
 _ZN5Katie21QDeclarativeComponentD2Ev@Base 4.9.0
 _ZN5Katie21QDeclarativeListModel11qt_metacallENS_11QMetaObject4CallEiPPv@Base 4.9.0
 _ZN5Katie21QDeclarativeListModel11qt_metacastEPKc@Base 4.9.0
 _ZN5Katie21QDeclarativeListModel11setPropertyEiRKNS_7QStringERKNS_8QVariantE@Base 4.9.0
 _ZN5Katie21QDeclarativeListModel11setPropertyEiRKNS_7QStringERKNS_8QVariantEPNS_5QListIiEE@Base 4.9.0
 _ZN5Katie21QDeclarativeListModel12countChangedEv@Base 4.9.0
 _ZN5Katie21QDeclarativeListModel16staticMetaObjectE@Base 4.9.0
 _ZN5Katie21QDeclarativeListModel19getStaticMetaObjectEv@Base 4.9.0
 _ZN5Katie21QDeclarativeListModel3setEiRKNS_12QScriptValueE@Base 4.9.0
 _ZN5Katie21QDeclarativeListModel3setEiRKNS_12QScriptValueEPNS_5QListIiEE@Base 4.9.0
 _ZN5Katie21QDeclarativeListModel4moveEiii@Base 4.9.0
 _ZN5Katie21QDeclarativeListModel4syncEv@Base 4.9.0
 _ZN5Katie21QDeclarativeListModel5agentEv@Base 4.9.0
 _ZN5Katie21QDeclarativeListModel5clearEv@Base 4.9.0
 _ZN5Katie21QDeclarativeListModel6appendERKNS_12QScriptValueE@Base 4.9.0
 _ZN5Katie21QDeclarativeListModel6insertEiRKNS_12QScriptValueE@Base 4.9.0
 _ZN5Katie21QDeclarativeListModel6removeEi@Base 4.9.0
 _ZN5Katie21QDeclarativeListModel7flattenEv@Base 4.9.0
 _ZN5Katie21QDeclarativeListModelC1EPKS0_PNS_32QDeclarativeListModelWorkerAgentE@Base 4.9.0
 _ZN5Katie21QDeclarativeListModelC1EPNS_7QObjectE@Base 4.9.0
 _ZN5Katie21QDeclarativeListModelC2EPKS0_PNS_32QDeclarativeListModelWorkerAgentE@Base 4.9.0
 _ZN5Katie21QDeclarativeListModelC2EPNS_7QObjectE@Base 4.9.0
 _ZN5Katie21QDeclarativeListModelD0Ev@Base 4.9.0
 _ZN5Katie21QDeclarativeListModelD1Ev@Base 4.9.0
 _ZN5Katie21QDeclarativeListModelD2Ev@Base 4.9.0
 _ZN5Katie21QDeclarativeRectangle11qt_metacallENS_11QMetaObject4CallEiPPv@Base 4.9.0
 _ZN5Katie21QDeclarativeRectangle11qt_metacastEPKc@Base 4.9.0
 _ZN5Katie21QDeclarativeRectangle11setGradientEPNS_20QDeclarativeGradientE@Base 4.9.0
 _ZN5Katie21QDeclarativeRectangle12colorChangedEv@Base 4.9.0
 _ZN5Katie21QDeclarativeRectangle13radiusChangedEv@Base 4.9.0
 _ZN5Katie21QDeclarativeRectangle16staticMetaObjectE@Base 4.9.0
 _ZN5Katie21QDeclarativeRectangle19generateRoundedRectEv@Base 4.9.0
 _ZN5Katie21QDeclarativeRectangle19getStaticMetaObjectEv@Base 4.9.0
 _ZN5Katie21QDeclarativeRectangle20generateBorderedRectEv@Base 4.9.0
 _ZN5Katie21QDeclarativeRectangle5paintEPNS_8QPainterEPKNS_24QStyleOptionGraphicsItemEPNS_7QWidgetE@Base 4.9.0
 _ZN5Katie21QDeclarativeRectangle6borderEv@Base 4.9.0
 _ZN5Katie21QDeclarativeRectangle8doUpdateEv@Base 4.9.0
 _ZN5Katie21QDeclarativeRectangle8drawRectERNS_8QPainterE@Base 4.9.0
 _ZN5Katie21QDeclarativeRectangle8setColorERKNS_6QColorE@Base 4.9.0
 _ZN5Katie21QDeclarativeRectangle9setRadiusEd@Base 4.9.0
 _ZN5Katie21QDeclarativeRectangleC1EPNS_16QDeclarativeItemE@Base 4.9.0
 _ZN5Katie21QDeclarativeRectangleC2EPNS_16QDeclarativeItemE@Base 4.9.0
 _ZN5Katie21QDeclarativeScaleGrid11qt_metacallENS_11QMetaObject4CallEiPPv@Base 4.9.0
 _ZN5Katie21QDeclarativeScaleGrid11qt_metacastEPKc@Base 4.9.0
 _ZN5Katie21QDeclarativeScaleGrid13borderChangedEv@Base 4.9.0
 _ZN5Katie21QDeclarativeScaleGrid16staticMetaObjectE@Base 4.9.0
 _ZN5Katie21QDeclarativeScaleGrid19getStaticMetaObjectEv@Base 4.9.0
 _ZN5Katie21QDeclarativeScaleGrid6setTopEi@Base 4.9.0
 _ZN5Katie21QDeclarativeScaleGrid7setLeftEi@Base 4.9.0
 _ZN5Katie21QDeclarativeScaleGrid8setRightEi@Base 4.9.0
 _ZN5Katie21QDeclarativeScaleGrid9setBottomEi@Base 4.9.0
 _ZN5Katie21QDeclarativeScaleGridC1EPNS_7QObjectE@Base 4.9.0
 _ZN5Katie21QDeclarativeScaleGridC2EPNS_7QObjectE@Base 4.9.0
 _ZN5Katie21QDeclarativeScaleGridD0Ev@Base 4.9.0
 _ZN5Katie21QDeclarativeScaleGridD1Ev@Base 4.9.0
 _ZN5Katie21QDeclarativeScaleGridD2Ev@Base 4.9.0
 _ZN5Katie21QDeclarativeValueType11qt_metacallENS_11QMetaObject4CallEiPPv@Base 4.9.0
 _ZN5Katie21QDeclarativeValueType11qt_metacastEPKc@Base 4.9.0
 _ZN5Katie21QDeclarativeValueType16staticMetaObjectE@Base 4.9.0
 _ZN5Katie21QDeclarativeValueType19getStaticMetaObjectEv@Base 4.9.0
 _ZN5Katie21QDeclarativeValueTypeC1EPNS_7QObjectE@Base 4.9.0
 _ZN5Katie21QDeclarativeValueTypeC2EPNS_7QObjectE@Base 4.9.0
 _ZN5Katie22QDeclarativeExpression10clearErrorEv@Base 4.9.0
 _ZN5Katie22QDeclarativeExpression11qt_metacallENS_11QMetaObject4CallEiPPv@Base 4.9.0
 _ZN5Katie22QDeclarativeExpression11qt_metacastEPKc@Base 4.9.0
 _ZN5Katie22QDeclarativeExpression12valueChangedEv@Base 4.9.0
 _ZN5Katie22QDeclarativeExpression13setExpressionERKNS_7QStringE@Base 4.9.0
 _ZN5Katie22QDeclarativeExpression16staticMetaObjectE@Base 4.9.0
 _ZN5Katie22QDeclarativeExpression17setSourceLocationERKNS_7QStringEi@Base 4.9.0
 _ZN5Katie22QDeclarativeExpression19getStaticMetaObjectEv@Base 4.9.0
 _ZN5Katie22QDeclarativeExpression23setNotifyOnValueChangedEb@Base 4.9.0
 _ZN5Katie22QDeclarativeExpression8evaluateEPb@Base 4.9.0
 _ZN5Katie22QDeclarativeExpressionC1EPNS_19QDeclarativeContextEPNS_7QObjectERKNS_7QStringES4_@Base 4.9.0
 _ZN5Katie22QDeclarativeExpressionC1EPNS_23QDeclarativeContextDataEPNS_7QObjectERKNS_12QScriptValueERNS_29QDeclarativeExpressionPrivateE@Base 4.9.0
 _ZN5Katie22QDeclarativeExpressionC1EPNS_23QDeclarativeContextDataEPNS_7QObjectERKNS_7QStringE@Base 4.9.0
 _ZN5Katie22QDeclarativeExpressionC1EPNS_23QDeclarativeContextDataEPNS_7QObjectERKNS_7QStringERNS_29QDeclarativeExpressionPrivateE@Base 4.9.0
 _ZN5Katie22QDeclarativeExpressionC1EPNS_23QDeclarativeContextDataEPvPNS_20QDeclarativeRefCountEPNS_7QObjectERKNS_7QStringEiRNS_29QDeclarativeExpressionPrivateE@Base 4.9.0
 _ZN5Katie22QDeclarativeExpressionC1Ev@Base 4.9.0
 _ZN5Katie22QDeclarativeExpressionC2EPNS_19QDeclarativeContextEPNS_7QObjectERKNS_7QStringES4_@Base 4.9.0
 _ZN5Katie22QDeclarativeExpressionC2EPNS_23QDeclarativeContextDataEPNS_7QObjectERKNS_12QScriptValueERNS_29QDeclarativeExpressionPrivateE@Base 4.9.0
 _ZN5Katie22QDeclarativeExpressionC2EPNS_23QDeclarativeContextDataEPNS_7QObjectERKNS_7QStringE@Base 4.9.0
 _ZN5Katie22QDeclarativeExpressionC2EPNS_23QDeclarativeContextDataEPNS_7QObjectERKNS_7QStringERNS_29QDeclarativeExpressionPrivateE@Base 4.9.0
 _ZN5Katie22QDeclarativeExpressionC2EPNS_23QDeclarativeContextDataEPvPNS_20QDeclarativeRefCountEPNS_7QObjectERKNS_7QStringEiRNS_29QDeclarativeExpressionPrivateE@Base 4.9.0
 _ZN5Katie22QDeclarativeExpressionC2Ev@Base 4.9.0
 _ZN5Katie22QDeclarativeExpressionD0Ev@Base 4.9.0
 _ZN5Katie22QDeclarativeExpressionD1Ev@Base 4.9.0
 _ZN5Katie22QDeclarativeExpressionD2Ev@Base 4.9.0
 _ZN5Katie22QDeclarativeStateGroup10classBeginEv@Base 4.9.0
 _ZN5Katie22QDeclarativeStateGroup11qt_metacallENS_11QMetaObject4CallEiPPv@Base 4.9.0
 _ZN5Katie22QDeclarativeStateGroup11qt_metacastEPKc@Base 4.9.0
 _ZN5Katie22QDeclarativeStateGroup11removeStateEPNS_17QDeclarativeStateE@Base 4.9.0
 _ZN5Katie22QDeclarativeStateGroup12stateChangedERKNS_7QStringE@Base 4.9.0
 _ZN5Katie22QDeclarativeStateGroup14statesPropertyEv@Base 4.9.0
 _ZN5Katie22QDeclarativeStateGroup15updateAutoStateEv@Base 4.9.0
 _ZN5Katie22QDeclarativeStateGroup16staticMetaObjectE@Base 4.9.0
 _ZN5Katie22QDeclarativeStateGroup17componentCompleteEv@Base 4.9.0
 _ZN5Katie22QDeclarativeStateGroup19getStaticMetaObjectEv@Base 4.9.0
 _ZN5Katie22QDeclarativeStateGroup19transitionsPropertyEv@Base 4.9.0
 _ZN5Katie22QDeclarativeStateGroup8setStateERKNS_7QStringE@Base 4.9.0
 _ZN5Katie22QDeclarativeStateGroupC1EPNS_7QObjectE@Base 4.9.0
 _ZN5Katie22QDeclarativeStateGroupC2EPNS_7QObjectE@Base 4.9.0
 _ZN5Katie22QDeclarativeStateGroupD0Ev@Base 4.9.0
 _ZN5Katie22QDeclarativeStateGroupD1Ev@Base 4.9.0
 _ZN5Katie22QDeclarativeStateGroupD2Ev@Base 4.9.0
 _ZN5Katie22QDeclarativeTransition10animationsEv@Base 4.9.0
 _ZN5Katie22QDeclarativeTransition10setToStateERKNS_7QStringE@Base 4.9.0
 _ZN5Katie22QDeclarativeTransition11fromChangedEv@Base 4.9.0
 _ZN5Katie22QDeclarativeTransition11qt_metacallENS_11QMetaObject4CallEiPPv@Base 4.9.0
 _ZN5Katie22QDeclarativeTransition11qt_metacastEPKc@Base 4.9.0
 _ZN5Katie22QDeclarativeTransition11setReversedEb@Base 4.9.0
 _ZN5Katie22QDeclarativeTransition12setFromStateERKNS_7QStringE@Base 4.9.0
 _ZN5Katie22QDeclarativeTransition13setReversibleEb@Base 4.9.0
 _ZN5Katie22QDeclarativeTransition16staticMetaObjectE@Base 4.9.0
 _ZN5Katie22QDeclarativeTransition17reversibleChangedEv@Base 4.9.0
 _ZN5Katie22QDeclarativeTransition19getStaticMetaObjectEv@Base 4.9.0
 _ZN5Katie22QDeclarativeTransition4stopEv@Base 4.9.0
 _ZN5Katie22QDeclarativeTransition7prepareERNS_5QListINS_18QDeclarativeActionEEERNS1_INS_20QDeclarativePropertyEEEPNS_29QDeclarativeTransitionManagerE@Base 4.9.0
 _ZN5Katie22QDeclarativeTransition9toChangedEv@Base 4.9.0
 _ZN5Katie22QDeclarativeTransitionC1EPNS_7QObjectE@Base 4.9.0
 _ZN5Katie22QDeclarativeTransitionC2EPNS_7QObjectE@Base 4.9.0
 _ZN5Katie22QDeclarativeTransitionD0Ev@Base 4.9.0
 _ZN5Katie22QDeclarativeTransitionD1Ev@Base 4.9.0
 _ZN5Katie22QDeclarativeTransitionD2Ev@Base 4.9.0
 _ZN5Katie23QDeclarativeApplication11eventFilterEPNS_7QObjectEPNS_6QEventE@Base 4.9.0
 _ZN5Katie23QDeclarativeApplication11qt_metacallENS_11QMetaObject4CallEiPPv@Base 4.9.0
 _ZN5Katie23QDeclarativeApplication11qt_metacastEPKc@Base 4.9.0
 _ZN5Katie23QDeclarativeApplication13activeChangedEv@Base 4.9.0
 _ZN5Katie23QDeclarativeApplication16staticMetaObjectE@Base 4.9.0
 _ZN5Katie23QDeclarativeApplication19getStaticMetaObjectEv@Base 4.9.0
 _ZN5Katie23QDeclarativeApplication22layoutDirectionChangedEv@Base 4.9.0
 _ZN5Katie23QDeclarativeApplicationC1EPNS_7QObjectE@Base 4.9.0
 _ZN5Katie23QDeclarativeApplicationC2EPNS_7QObjectE@Base 4.9.0
 _ZN5Katie23QDeclarativeApplicationD0Ev@Base 4.9.0
 _ZN5Katie23QDeclarativeApplicationD1Ev@Base 4.9.0
 _ZN5Katie23QDeclarativeApplicationD2Ev@Base 4.9.0
 _ZN5Katie23QDeclarativeItemPrivate10data_clearEPNS_24QDeclarativeListPropertyINS_7QObjectEEE@Base 4.9.0
 _ZN5Katie23QDeclarativeItemPrivate10data_countEPNS_24QDeclarativeListPropertyINS_7QObjectEEE@Base 4.9.0
 _ZN5Katie23QDeclarativeItemPrivate10resetWidthEv@Base 4.9.0
 _ZN5Katie23QDeclarativeItemPrivate11AnchorLinesC1EPNS_15QGraphicsObjectE@Base 4.9.0
 _ZN5Katie23QDeclarativeItemPrivate11AnchorLinesC2EPNS_15QGraphicsObjectE@Base 4.9.0
 _ZN5Katie23QDeclarativeItemPrivate11data_appendEPNS_24QDeclarativeListPropertyINS_7QObjectEEEPS2_@Base 4.9.0
 _ZN5Katie23QDeclarativeItemPrivate11resetHeightEv@Base 4.9.0
 _ZN5Katie23QDeclarativeItemPrivate11transitionsEv@Base 4.9.0
 _ZN5Katie23QDeclarativeItemPrivate12focusChangedEb@Base 4.9.0
 _ZN5Katie23QDeclarativeItemPrivate12resources_atEPNS_24QDeclarativeListPropertyINS_7QObjectEEEi@Base 4.9.0
 _ZN5Katie23QDeclarativeItemPrivate12transform_atEPNS_24QDeclarativeListPropertyINS_18QGraphicsTransformEEEi@Base 4.9.0
 _ZN5Katie23QDeclarativeItemPrivate14consistentTimeE@Base 4.9.0
 _ZN5Katie23QDeclarativeItemPrivate14parentPropertyEPNS_7QObjectEPvPNS_28QDeclarativeNotifierEndpointE@Base 4.9.0
 _ZN5Katie23QDeclarativeItemPrivate15resources_clearEPNS_24QDeclarativeListPropertyINS_7QObjectEEE@Base 4.9.0
 _ZN5Katie23QDeclarativeItemPrivate15resources_countEPNS_24QDeclarativeListPropertyINS_7QObjectEEE@Base 4.9.0
 _ZN5Katie23QDeclarativeItemPrivate15setLayoutMirrorEb@Base 4.9.0
 _ZN5Katie23QDeclarativeItemPrivate15transform_clearEPNS_24QDeclarativeListPropertyINS_18QGraphicsTransformEEE@Base 4.9.0
 _ZN5Katie23QDeclarativeItemPrivate15transform_countEPNS_24QDeclarativeListPropertyINS_18QGraphicsTransformEEE@Base 4.9.0
 _ZN5Katie23QDeclarativeItemPrivate16resources_appendEPNS_24QDeclarativeListPropertyINS_7QObjectEEEPS2_@Base 4.9.0
 _ZN5Katie23QDeclarativeItemPrivate16transformChangedEv@Base 4.9.0
 _ZN5Katie23QDeclarativeItemPrivate16transform_appendEPNS_24QDeclarativeListPropertyINS_18QGraphicsTransformEEEPS2_@Base 4.9.0
 _ZN5Katie23QDeclarativeItemPrivate17setConsistentTimeEx@Base 4.9.0
 _ZN5Katie23QDeclarativeItemPrivate19resolveLayoutMirrorEv@Base 4.9.0
 _ZN5Katie23QDeclarativeItemPrivate20implicitWidthChangedEv@Base 4.9.0
 _ZN5Katie23QDeclarativeItemPrivate21implicitHeightChangedEv@Base 4.9.0
 _ZN5Katie23QDeclarativeItemPrivate23setImplicitLayoutMirrorEbb@Base 4.9.0
 _ZN5Katie23QDeclarativeItemPrivate24removeItemChangeListenerEPNS_30QDeclarativeItemChangeListenerENS_6QFlagsINS0_10ChangeTypeEEE@Base 4.9.0
 _ZN5Katie23QDeclarativeItemPrivate4dataEv@Base 4.9.0
 _ZN5Katie23QDeclarativeItemPrivate5startERNS_13QElapsedTimerE@Base 4.9.0
 _ZN5Katie23QDeclarativeItemPrivate6statesEv@Base 4.9.0
 _ZN5Katie23QDeclarativeItemPrivate7_statesEv@Base 4.9.0
 _ZN5Katie23QDeclarativeItemPrivate7data_atEPNS_24QDeclarativeListPropertyINS_7QObjectEEEi@Base 4.9.0
 _ZN5Katie23QDeclarativeItemPrivate7elapsedERNS_13QElapsedTimerE@Base 4.9.0
 _ZN5Katie23QDeclarativeItemPrivate7restartERNS_13QElapsedTimerE@Base 4.9.0
 _ZN5Katie23QDeclarativeItemPrivate8setStateERKNS_7QStringE@Base 4.9.0
 _ZN5Katie23QDeclarativeItemPrivate8setWidthEd@Base 4.9.0
 _ZN5Katie23QDeclarativeItemPrivate9resourcesEv@Base 4.9.0
 _ZN5Katie23QDeclarativeItemPrivate9setHeightEd@Base 4.9.0
 _ZN5Katie23QDeclarativePropertyMap11qt_metacallENS_11QMetaObject4CallEiPPv@Base 4.9.0
 _ZN5Katie23QDeclarativePropertyMap11qt_metacastEPKc@Base 4.9.0
 _ZN5Katie23QDeclarativePropertyMap12valueChangedERKNS_7QStringERKNS_8QVariantE@Base 4.9.0
 _ZN5Katie23QDeclarativePropertyMap16staticMetaObjectE@Base 4.9.0
 _ZN5Katie23QDeclarativePropertyMap19getStaticMetaObjectEv@Base 4.9.0
 _ZN5Katie23QDeclarativePropertyMap5clearERKNS_7QStringE@Base 4.9.0
 _ZN5Katie23QDeclarativePropertyMap6insertERKNS_7QStringERKNS_8QVariantE@Base 4.9.0
 _ZN5Katie23QDeclarativePropertyMapC1EPNS_7QObjectE@Base 4.9.0
 _ZN5Katie23QDeclarativePropertyMapC2EPNS_7QObjectE@Base 4.9.0
 _ZN5Katie23QDeclarativePropertyMapD0Ev@Base 4.9.0
 _ZN5Katie23QDeclarativePropertyMapD1Ev@Base 4.9.0
 _ZN5Katie23QDeclarativePropertyMapD2Ev@Base 4.9.0
 _ZN5Katie23QDeclarativePropertyMapixERKNS_7QStringE@Base 4.9.0
 _ZN5Katie24QDeclarativeCustomParser11clearErrorsEv@Base 4.9.0
 _ZN5Katie24QDeclarativeCustomParser14rewriteBindingERKNS_7QStringERKNS_10QByteArrayE@Base 4.9.0
 _ZN5Katie24QDeclarativeCustomParser5errorERKNS_28QDeclarativeCustomParserNodeERKNS_7QStringE@Base 4.9.0
 _ZN5Katie24QDeclarativeCustomParser5errorERKNS_32QDeclarativeCustomParserPropertyERKNS_7QStringE@Base 4.9.0
 _ZN5Katie24QDeclarativeCustomParser5errorERKNS_7QStringE@Base 4.9.0
 _ZN5Katie24QDeclarativeParentChange11qt_metacallENS_11QMetaObject4CallEiPPv@Base 4.9.0
 _ZN5Katie24QDeclarativeParentChange11qt_metacastEPKc@Base 4.9.0
 _ZN5Katie24QDeclarativeParentChange11setRotationERKNS_24QDeclarativeScriptStringE@Base 4.9.0
 _ZN5Katie24QDeclarativeParentChange12isReversableEv@Base 4.9.0
 _ZN5Katie24QDeclarativeParentChange13saveOriginalsEv@Base 4.9.0
 _ZN5Katie24QDeclarativeParentChange16staticMetaObjectE@Base 4.9.0
 _ZN5Katie24QDeclarativeParentChange17saveCurrentValuesEv@Base 4.9.0
 _ZN5Katie24QDeclarativeParentChange19getStaticMetaObjectEv@Base 4.9.0
 _ZN5Katie24QDeclarativeParentChange4setXERKNS_24QDeclarativeScriptStringE@Base 4.9.0
 _ZN5Katie24QDeclarativeParentChange4setYERKNS_24QDeclarativeScriptStringE@Base 4.9.0
 _ZN5Katie24QDeclarativeParentChange6rewindEv@Base 4.9.0
 _ZN5Katie24QDeclarativeParentChange7actionsEv@Base 4.9.0
 _ZN5Katie24QDeclarativeParentChange7executeENS_23QDeclarativeActionEvent6ReasonE@Base 4.9.0
 _ZN5Katie24QDeclarativeParentChange7reverseENS_23QDeclarativeActionEvent6ReasonE@Base 4.9.0
 _ZN5Katie24QDeclarativeParentChange8overrideEPNS_23QDeclarativeActionEventE@Base 4.9.0
 _ZN5Katie24QDeclarativeParentChange8setScaleERKNS_24QDeclarativeScriptStringE@Base 4.9.0
 _ZN5Katie24QDeclarativeParentChange8setWidthERKNS_24QDeclarativeScriptStringE@Base 4.9.0
 _ZN5Katie24QDeclarativeParentChange9setHeightERKNS_24QDeclarativeScriptStringE@Base 4.9.0
 _ZN5Katie24QDeclarativeParentChange9setObjectEPNS_16QDeclarativeItemE@Base 4.9.0
 _ZN5Katie24QDeclarativeParentChange9setParentEPNS_16QDeclarativeItemE@Base 4.9.0
 _ZN5Katie24QDeclarativeParentChangeC1EPNS_7QObjectE@Base 4.9.0
 _ZN5Katie24QDeclarativeParentChangeC2EPNS_7QObjectE@Base 4.9.0
 _ZN5Katie24QDeclarativeParentChangeD0Ev@Base 4.9.0
 _ZN5Katie24QDeclarativeParentChangeD1Ev@Base 4.9.0
 _ZN5Katie24QDeclarativeParentChangeD2Ev@Base 4.9.0
 _ZN5Katie24QDeclarativeParserStatusC1Ev@Base 4.9.0
 _ZN5Katie24QDeclarativeParserStatusC2Ev@Base 4.9.0
 _ZN5Katie24QDeclarativeParserStatusD0Ev@Base 4.9.0
 _ZN5Katie24QDeclarativeParserStatusD1Ev@Base 4.9.0
 _ZN5Katie24QDeclarativeParserStatusD2Ev@Base 4.9.0
 _ZN5Katie24QDeclarativeScriptAction10transitionERNS_5QListINS_18QDeclarativeActionEEERNS1_INS_20QDeclarativePropertyEEENS_29QDeclarativeAbstractAnimation19TransitionDirectionE@Base 4.9.0
 _ZN5Katie24QDeclarativeScriptAction11qtAnimationEv@Base 4.9.0
 _ZN5Katie24QDeclarativeScriptAction11qt_metacallENS_11QMetaObject4CallEiPPv@Base 4.9.0
 _ZN5Katie24QDeclarativeScriptAction11qt_metacastEPKc@Base 4.9.0
 _ZN5Katie24QDeclarativeScriptAction16staticMetaObjectE@Base 4.9.0
 _ZN5Katie24QDeclarativeScriptAction19getStaticMetaObjectEv@Base 4.9.0
 _ZN5Katie24QDeclarativeScriptAction24setStateChangeScriptNameERKNS_7QStringE@Base 4.9.0
 _ZN5Katie24QDeclarativeScriptAction9setScriptERKNS_24QDeclarativeScriptStringE@Base 4.9.0
 _ZN5Katie24QDeclarativeScriptActionC1EPNS_7QObjectE@Base 4.9.0
 _ZN5Katie24QDeclarativeScriptActionC2EPNS_7QObjectE@Base 4.9.0
 _ZN5Katie24QDeclarativeScriptActionD0Ev@Base 4.9.0
 _ZN5Katie24QDeclarativeScriptActionD1Ev@Base 4.9.0
 _ZN5Katie24QDeclarativeScriptActionD2Ev@Base 4.9.0
 _ZN5Katie24QDeclarativeScriptString10setContextEPNS_19QDeclarativeContextE@Base 4.9.0
 _ZN5Katie24QDeclarativeScriptString14setScopeObjectEPNS_7QObjectE@Base 4.9.0
 _ZN5Katie24QDeclarativeScriptString9setScriptERKNS_7QStringE@Base 4.9.0
 _ZN5Katie24QDeclarativeScriptStringC1ERKS0_@Base 4.9.0
 _ZN5Katie24QDeclarativeScriptStringC1Ev@Base 4.9.0
 _ZN5Katie24QDeclarativeScriptStringC2ERKS0_@Base 4.9.0
 _ZN5Katie24QDeclarativeScriptStringC2Ev@Base 4.9.0
 _ZN5Katie24QDeclarativeScriptStringD1Ev@Base 4.9.0
 _ZN5Katie24QDeclarativeScriptStringD2Ev@Base 4.9.0
 _ZN5Katie24QDeclarativeScriptStringaSERKS0_@Base 4.9.0
 _ZN5Katie25QDeclarativeAnchorChanges11qt_metacallENS_11QMetaObject4CallEiPPv@Base 4.9.0
 _ZN5Katie25QDeclarativeAnchorChanges11qt_metacastEPKc@Base 4.9.0
 _ZN5Katie25QDeclarativeAnchorChanges12isReversableEv@Base 4.9.0
 _ZN5Katie25QDeclarativeAnchorChanges13clearBindingsEv@Base 4.9.0
 _ZN5Katie25QDeclarativeAnchorChanges13copyOriginalsEPNS_23QDeclarativeActionEventE@Base 4.9.0
 _ZN5Katie25QDeclarativeAnchorChanges13saveOriginalsEv@Base 4.9.0
 _ZN5Katie25QDeclarativeAnchorChanges15changesBindingsEv@Base 4.9.0
 _ZN5Katie25QDeclarativeAnchorChanges16saveTargetValuesEv@Base 4.9.0
 _ZN5Katie25QDeclarativeAnchorChanges16staticMetaObjectE@Base 4.9.0
 _ZN5Katie25QDeclarativeAnchorChanges17additionalActionsEv@Base 4.9.0
 _ZN5Katie25QDeclarativeAnchorChanges17saveCurrentValuesEv@Base 4.9.0
 _ZN5Katie25QDeclarativeAnchorChanges19getStaticMetaObjectEv@Base 4.9.0
 _ZN5Katie25QDeclarativeAnchorChanges6rewindEv@Base 4.9.0
 _ZN5Katie25QDeclarativeAnchorChanges7actionsEv@Base 4.9.0
 _ZN5Katie25QDeclarativeAnchorChanges7anchorsEv@Base 4.9.0
 _ZN5Katie25QDeclarativeAnchorChanges7executeENS_23QDeclarativeActionEvent6ReasonE@Base 4.9.0
 _ZN5Katie25QDeclarativeAnchorChanges7reverseENS_23QDeclarativeActionEvent6ReasonE@Base 4.9.0
 _ZN5Katie25QDeclarativeAnchorChanges8overrideEPNS_23QDeclarativeActionEventE@Base 4.9.0
 _ZN5Katie25QDeclarativeAnchorChanges9setObjectEPNS_16QDeclarativeItemE@Base 4.9.0
 _ZN5Katie25QDeclarativeAnchorChangesC1EPNS_7QObjectE@Base 4.9.0
 _ZN5Katie25QDeclarativeAnchorChangesC2EPNS_7QObjectE@Base 4.9.0
 _ZN5Katie25QDeclarativeAnchorChangesD0Ev@Base 4.9.0
 _ZN5Katie25QDeclarativeAnchorChangesD1Ev@Base 4.9.0
 _ZN5Katie25QDeclarativeAnchorChangesD2Ev@Base 4.9.0
 _ZN5Katie25QDeclarativeImageProvider12requestImageERKNS_7QStringEPNS_5QSizeERKS4_@Base 4.9.0
 _ZN5Katie25QDeclarativeImageProvider13requestPixmapERKNS_7QStringEPNS_5QSizeERKS4_@Base 4.9.0
 _ZN5Katie25QDeclarativeImageProviderC1ENS0_9ImageTypeE@Base 4.9.0
 _ZN5Katie25QDeclarativeImageProviderC2ENS0_9ImageTypeE@Base 4.9.0
 _ZN5Katie25QDeclarativeImageProviderD0Ev@Base 4.9.0
 _ZN5Katie25QDeclarativeImageProviderD1Ev@Base 4.9.0
 _ZN5Katie25QDeclarativeImageProviderD2Ev@Base 4.9.0
 _ZN5Katie25QDeclarativeListReferenceC1EPNS_7QObjectEPKcPNS_18QDeclarativeEngineE@Base 4.9.0
 _ZN5Katie25QDeclarativeListReferenceC1ERKS0_@Base 4.9.0
 _ZN5Katie25QDeclarativeListReferenceC1Ev@Base 4.9.0
 _ZN5Katie25QDeclarativeListReferenceC2EPNS_7QObjectEPKcPNS_18QDeclarativeEngineE@Base 4.9.0
 _ZN5Katie25QDeclarativeListReferenceC2ERKS0_@Base 4.9.0
 _ZN5Katie25QDeclarativeListReferenceC2Ev@Base 4.9.0
 _ZN5Katie25QDeclarativeListReferenceD1Ev@Base 4.9.0
 _ZN5Katie25QDeclarativeListReferenceD2Ev@Base 4.9.0
 _ZN5Katie25QDeclarativeListReferenceaSERKS0_@Base 4.9.0
 _ZN5Katie26QDeclarativeBasePositioner10addChangedEv@Base 4.9.0
 _ZN5Katie26QDeclarativeBasePositioner10itemChangeENS_13QGraphicsItem18GraphicsItemChangeERKNS_8QVariantE@Base 4.9.0
 _ZN5Katie26QDeclarativeBasePositioner10setSpacingEi@Base 4.9.0
 _ZN5Katie26QDeclarativeBasePositioner11moveChangedEv@Base 4.9.0
 _ZN5Katie26QDeclarativeBasePositioner11qt_metacallENS_11QMetaObject4CallEiPPv@Base 4.9.0
 _ZN5Katie26QDeclarativeBasePositioner11qt_metacastEPKc@Base 4.9.0
 _ZN5Katie26QDeclarativeBasePositioner14prePositioningEv@Base 4.9.0
 _ZN5Katie26QDeclarativeBasePositioner14spacingChangedEv@Base 4.9.0
 _ZN5Katie26QDeclarativeBasePositioner16staticMetaObjectE@Base 4.9.0
 _ZN5Katie26QDeclarativeBasePositioner17componentCompleteEv@Base 4.9.0
 _ZN5Katie26QDeclarativeBasePositioner19getStaticMetaObjectEv@Base 4.9.0
 _ZN5Katie26QDeclarativeBasePositioner22finishApplyTransitionsEv@Base 4.9.0
 _ZN5Katie26QDeclarativeBasePositioner29graphicsWidgetGeometryChangedEv@Base 4.9.0
 _ZN5Katie26QDeclarativeBasePositioner6setAddEPNS_22QDeclarativeTransitionE@Base 4.9.0
 _ZN5Katie26QDeclarativeBasePositioner7setMoveEPNS_22QDeclarativeTransitionE@Base 4.9.0
 _ZN5Katie26QDeclarativeBasePositioner9positionXEiRKNS0_14PositionedItemE@Base 4.9.0
 _ZN5Katie26QDeclarativeBasePositioner9positionYEiRKNS0_14PositionedItemE@Base 4.9.0
 _ZN5Katie26QDeclarativeBasePositionerC1ENS0_14PositionerTypeEPNS_16QDeclarativeItemE@Base 4.9.0
 _ZN5Katie26QDeclarativeBasePositionerC1ERNS_33QDeclarativeBasePositionerPrivateENS0_14PositionerTypeEPNS_16QDeclarativeItemE@Base 4.9.0
 _ZN5Katie26QDeclarativeBasePositionerC2ENS0_14PositionerTypeEPNS_16QDeclarativeItemE@Base 4.9.0
 _ZN5Katie26QDeclarativeBasePositionerC2ERNS_33QDeclarativeBasePositionerPrivateENS0_14PositionerTypeEPNS_16QDeclarativeItemE@Base 4.9.0
 _ZN5Katie26QDeclarativeBasePositionerD0Ev@Base 4.9.0
 _ZN5Katie26QDeclarativeBasePositionerD1Ev@Base 4.9.0
 _ZN5Katie26QDeclarativeBasePositionerD2Ev@Base 4.9.0
 _ZN5Katie26QDeclarativeOpenMetaObject12initialValueEi@Base 4.9.0
 _ZN5Katie26QDeclarativeOpenMetaObject12propertyReadEi@Base 4.9.0
 _ZN5Katie26QDeclarativeOpenMetaObject13propertyWriteEi@Base 4.9.0
 _ZN5Katie26QDeclarativeOpenMetaObject14createPropertyEPKcS2_@Base 4.9.0
 _ZN5Katie26QDeclarativeOpenMetaObject15propertyCreatedEiRNS_20QMetaPropertyBuilderE@Base 4.9.0
 _ZN5Katie26QDeclarativeOpenMetaObject15propertyWrittenEi@Base 4.9.0
 _ZN5Katie26QDeclarativeOpenMetaObject8metaCallENS_11QMetaObject4CallEiPPv@Base 4.9.0
 _ZN5Katie26QDeclarativeOpenMetaObject8setValueERKNS_10QByteArrayERKNS_8QVariantE@Base 4.9.0
 _ZN5Katie26QDeclarativeOpenMetaObject8setValueEiRKNS_8QVariantE@Base 4.9.0
 _ZN5Katie26QDeclarativeOpenMetaObject9setCachedEb@Base 4.9.0
 _ZN5Katie26QDeclarativeOpenMetaObjectC1EPNS_7QObjectEPNS_30QDeclarativeOpenMetaObjectTypeEb@Base 4.9.0
 _ZN5Katie26QDeclarativeOpenMetaObjectC1EPNS_7QObjectEb@Base 4.9.0
 _ZN5Katie26QDeclarativeOpenMetaObjectC2EPNS_7QObjectEPNS_30QDeclarativeOpenMetaObjectTypeEb@Base 4.9.0
 _ZN5Katie26QDeclarativeOpenMetaObjectC2EPNS_7QObjectEb@Base 4.9.0
 _ZN5Katie26QDeclarativeOpenMetaObjectD0Ev@Base 4.9.0
 _ZN5Katie26QDeclarativeOpenMetaObjectD1Ev@Base 4.9.0
 _ZN5Katie26QDeclarativeOpenMetaObjectD2Ev@Base 4.9.0
 _ZN5Katie26QDeclarativeOpenMetaObjectixERKNS_10QByteArrayE@Base 4.9.0
 _ZN5Katie26QDeclarativeOpenMetaObjectixEi@Base 4.9.0
 _ZN5Katie26QDeclarativeStateOperation11qt_metacallENS_11QMetaObject4CallEiPPv@Base 4.9.0
 _ZN5Katie26QDeclarativeStateOperation11qt_metacastEPKc@Base 4.9.0
 _ZN5Katie26QDeclarativeStateOperation16staticMetaObjectE@Base 4.9.0
 _ZN5Katie26QDeclarativeStateOperation19getStaticMetaObjectEv@Base 4.9.0
 _ZN5Katie26QDeclarativeStateOperation7actionsEv@Base 4.9.0
 _ZN5Katie26QDeclarativeStateOperation8setStateEPNS_17QDeclarativeStateE@Base 4.9.0
 _ZN5Katie26QDeclarativeStateOperationC1ERNS_14QObjectPrivateEPNS_7QObjectE@Base 4.9.0
 _ZN5Katie26QDeclarativeStateOperationC2ERNS_14QObjectPrivateEPNS_7QObjectE@Base 4.9.0
 _ZN5Katie27QDeclarativeAbstractBinding10setEnabledEbNS_6QFlagsINS_27QDeclarativePropertyPrivate9WriteFlagEEE@Base 4.9.0
 _ZN5Katie27QDeclarativeAbstractBinding11addToObjectEPNS_7QObjectEi@Base 4.9.0
 _ZN5Katie27QDeclarativeAbstractBinding11weakPointerEv@Base 4.9.0
 _ZN5Katie27QDeclarativeAbstractBinding16removeFromObjectEv@Base 4.9.0
 _ZN5Katie27QDeclarativeAbstractBinding5clearEv@Base 4.9.0
 _ZN5Katie27QDeclarativeAbstractBinding7destroyENS0_11DestroyModeE@Base 4.9.0
 _ZN5Katie27QDeclarativeAbstractBindingC1Ev@Base 4.9.0
 _ZN5Katie27QDeclarativeAbstractBindingC2Ev@Base 4.9.0
 _ZN5Katie27QDeclarativeAbstractBindingD0Ev@Base 4.9.0
 _ZN5Katie27QDeclarativeAbstractBindingD1Ev@Base 4.9.0
 _ZN5Katie27QDeclarativeAbstractBindingD2Ev@Base 4.9.0
 _ZN5Katie27QDeclarativeExtensionPlugin11qt_metacallENS_11QMetaObject4CallEiPPv@Base 4.9.0
 _ZN5Katie27QDeclarativeExtensionPlugin11qt_metacastEPKc@Base 4.9.0
 _ZN5Katie27QDeclarativeExtensionPlugin16initializeEngineEPNS_18QDeclarativeEngineEPKc@Base 4.9.0
 _ZN5Katie27QDeclarativeExtensionPlugin16staticMetaObjectE@Base 4.9.0
 _ZN5Katie27QDeclarativeExtensionPlugin19getStaticMetaObjectEv@Base 4.9.0
 _ZN5Katie27QDeclarativeExtensionPluginC1EPNS_7QObjectE@Base 4.9.0
 _ZN5Katie27QDeclarativeExtensionPluginC2EPNS_7QObjectE@Base 4.9.0
 _ZN5Katie27QDeclarativeExtensionPluginD0Ev@Base 4.9.0
 _ZN5Katie27QDeclarativeExtensionPluginD1Ev@Base 4.9.0
 _ZN5Katie27QDeclarativeExtensionPluginD2Ev@Base 4.9.0
 _ZN5Katie27QDeclarativeGridScaledImage12stringToRuleERKNS_7QStringE@Base 4.9.0
 _ZN5Katie27QDeclarativeGridScaledImageC1EPNS_9QIODeviceE@Base 4.9.0
 _ZN5Katie27QDeclarativeGridScaledImageC1ERKS0_@Base 4.9.0
 _ZN5Katie27QDeclarativeGridScaledImageC1Ev@Base 4.9.0
 _ZN5Katie27QDeclarativeGridScaledImageC2EPNS_9QIODeviceE@Base 4.9.0
 _ZN5Katie27QDeclarativeGridScaledImageC2ERKS0_@Base 4.9.0
 _ZN5Katie27QDeclarativeGridScaledImageC2Ev@Base 4.9.0
 _ZN5Katie27QDeclarativeGridScaledImageaSERKS0_@Base 4.9.0
 _ZN5Katie27QDeclarativePropertyChanges11changeValueERKNS_7QStringERKNS_8QVariantE@Base 4.9.0
 _ZN5Katie27QDeclarativePropertyChanges11qt_metacallENS_11QMetaObject4CallEiPPv@Base 4.9.0
 _ZN5Katie27QDeclarativePropertyChanges11qt_metacastEPKc@Base 4.9.0
 _ZN5Katie27QDeclarativePropertyChanges13attachToStateEv@Base 4.9.0
 _ZN5Katie27QDeclarativePropertyChanges13setIsExplicitEb@Base 4.9.0
 _ZN5Katie27QDeclarativePropertyChanges14removePropertyERKNS_7QStringE@Base 4.9.0
 _ZN5Katie27QDeclarativePropertyChanges15detachFromStateEv@Base 4.9.0
 _ZN5Katie27QDeclarativePropertyChanges16changeExpressionERKNS_7QStringES3_@Base 4.9.0
 _ZN5Katie27QDeclarativePropertyChanges16staticMetaObjectE@Base 4.9.0
 _ZN5Katie27QDeclarativePropertyChanges19getStaticMetaObjectEv@Base 4.9.0
 _ZN5Katie27QDeclarativePropertyChanges21setRestoreEntryValuesEb@Base 4.9.0
 _ZN5Katie27QDeclarativePropertyChanges7actionsEv@Base 4.9.0
 _ZN5Katie27QDeclarativePropertyChanges9setObjectEPNS_7QObjectE@Base 4.9.0
 _ZN5Katie27QDeclarativePropertyChangesC1Ev@Base 4.9.0
 _ZN5Katie27QDeclarativePropertyChangesC2Ev@Base 4.9.0
 _ZN5Katie27QDeclarativePropertyChangesD0Ev@Base 4.9.0
 _ZN5Katie27QDeclarativePropertyChangesD1Ev@Base 4.9.0
 _ZN5Katie27QDeclarativePropertyChangesD2Ev@Base 4.9.0
 _ZN5Katie27QDeclarativePropertyPrivate10canConvertEPKNS_11QMetaObjectES3_@Base 4.9.0
 _ZN5Katie27QDeclarativePropertyPrivate10setBindingEPNS_7QObjectEiiPNS_27QDeclarativeAbstractBindingENS_6QFlagsINS0_9WriteFlagEEE@Base 4.9.0
 _ZN5Katie27QDeclarativePropertyPrivate10setBindingERKNS_20QDeclarativePropertyEPNS_27QDeclarativeAbstractBindingENS_6QFlagsINS0_9WriteFlagEEE@Base 4.9.0
 _ZN5Katie27QDeclarativePropertyPrivate11initDefaultEPNS_7QObjectE@Base 4.9.0
 _ZN5Katie27QDeclarativePropertyPrivate12bindingIndexERKNS_20QDeclarativePropertyE@Base 4.9.0
 _ZN5Katie27QDeclarativePropertyPrivate12initPropertyEPNS_7QObjectERKNS_7QStringE@Base 4.9.0
 _ZN5Katie27QDeclarativePropertyPrivate12savePropertyEPKNS_11QMetaObjectEi@Base 4.9.0
 _ZN5Katie27QDeclarativePropertyPrivate13saveValueTypeEPKNS_11QMetaObjectEiS3_i@Base 4.9.0
 _ZN5Katie27QDeclarativePropertyPrivate15findAliasTargetEPNS_7QObjectEiPS2_Pi@Base 4.9.0
 _ZN5Katie27QDeclarativePropertyPrivate16findSignalByNameEPKNS_11QMetaObjectERKNS_10QByteArrayE@Base 4.9.0
 _ZN5Katie27QDeclarativePropertyPrivate16signalExpressionERKNS_20QDeclarativePropertyE@Base 4.9.0
 _ZN5Katie27QDeclarativePropertyPrivate17readValuePropertyEv@Base 4.9.0
 _ZN5Katie27QDeclarativePropertyPrivate17writeEnumPropertyERKNS_13QMetaPropertyEiPNS_7QObjectERKNS_8QVariantEi@Base 4.9.0
 _ZN5Katie27QDeclarativePropertyPrivate18setBindingNoEnableEPNS_7QObjectEiiPNS_27QDeclarativeAbstractBindingE@Base 4.9.0
 _ZN5Katie27QDeclarativePropertyPrivate18valueTypeCoreIndexERKNS_20QDeclarativePropertyE@Base 4.9.0
 _ZN5Katie27QDeclarativePropertyPrivate18writeValuePropertyERKNS_8QVariantENS_6QFlagsINS0_9WriteFlagEEE@Base 4.9.0
 _ZN5Katie27QDeclarativePropertyPrivate19setSignalExpressionERKNS_20QDeclarativePropertyEPNS_22QDeclarativeExpressionE@Base 4.9.0
 _ZN5Katie27QDeclarativePropertyPrivate20rawMetaObjectForTypeEPNS_25QDeclarativeEnginePrivateEi@Base 4.9.0
 _ZN5Katie27QDeclarativePropertyPrivate21metaObjectForPropertyEPKNS_11QMetaObjectEi@Base 4.9.0
 _ZN5Katie27QDeclarativePropertyPrivate5equalEPKNS_11QMetaObjectES3_@Base 4.9.0
 _ZN5Katie27QDeclarativePropertyPrivate5writeEPNS_7QObjectERKNS_25QDeclarativePropertyCache4DataERKNS_8QVariantEPNS_23QDeclarativeContextDataENS_6QFlagsINS0_9WriteFlagEEE@Base 4.9.0
 _ZN5Katie27QDeclarativePropertyPrivate5writeERKNS_20QDeclarativePropertyERKNS_8QVariantENS_6QFlagsINS0_9WriteFlagEEE@Base 4.9.0
 _ZN5Katie27QDeclarativePropertyPrivate7bindingEPNS_7QObjectEii@Base 4.9.0
 _ZN5Katie27QDeclarativePropertyPrivate7bindingERKNS_20QDeclarativePropertyE@Base 4.9.0
 _ZN5Katie27QDeclarativePropertyPrivate7connectEPNS_7QObjectEiPKS1_iiPi@Base 4.9.0
 _ZN5Katie27QDeclarativePropertyPrivate7restoreERKNS_10QByteArrayEPNS_7QObjectEPNS_23QDeclarativeContextDataE@Base 4.9.0
 _ZN5Katie27QDeclarativePropertyPrivate7restoreERKNS_25QDeclarativePropertyCache4DataERKNS1_13ValueTypeDataEPNS_7QObjectEPNS_23QDeclarativeContextDataE@Base 4.9.0
 _ZN5Katie27qmlAttachedPropertiesObjectEPiPKNS_7QObjectEPKNS_11QMetaObjectEb@Base 4.9.0
 _ZN5Katie28QDeclarativeCustomParserNodeC1ERKS0_@Base 4.9.0
 _ZN5Katie28QDeclarativeCustomParserNodeC1Ev@Base 4.9.0
 _ZN5Katie28QDeclarativeCustomParserNodeC2ERKS0_@Base 4.9.0
 _ZN5Katie28QDeclarativeCustomParserNodeC2Ev@Base 4.9.0
 _ZN5Katie28QDeclarativeCustomParserNodeD1Ev@Base 4.9.0
 _ZN5Katie28QDeclarativeCustomParserNodeD2Ev@Base 4.9.0
 _ZN5Katie28QDeclarativeCustomParserNodeaSERKS0_@Base 4.9.0
 _ZN5Katie28QDeclarativeStringConverters14dateFromStringERKNS_7QStringEPb@Base 4.9.0
 _ZN5Katie28QDeclarativeStringConverters14timeFromStringERKNS_7QStringEPb@Base 4.9.0
 _ZN5Katie28QDeclarativeStringConverters15colorFromStringERKNS_7QStringEPb@Base 4.9.0
 _ZN5Katie28QDeclarativeStringConverters15rectFFromStringERKNS_7QStringEPb@Base 4.9.0
 _ZN5Katie28QDeclarativeStringConverters15sizeFFromStringERKNS_7QStringEPb@Base 4.9.0
 _ZN5Katie28QDeclarativeStringConverters16pointFFromStringERKNS_7QStringEPb@Base 4.9.0
 _ZN5Katie28QDeclarativeStringConverters17variantFromStringERKNS_7QStringE@Base 4.9.0
 _ZN5Katie28QDeclarativeStringConverters17variantFromStringERKNS_7QStringEiPb@Base 4.9.0
 _ZN5Katie28QDeclarativeStringConverters18dateTimeFromStringERKNS_7QStringEPb@Base 4.9.0
 _ZN5Katie28QDeclarativeStringConverters18vector3DFromStringERKNS_7QStringEPb@Base 4.9.0
 _ZN5Katie28QDeclarativeValueTypeFactory11isValueTypeEi@Base 4.9.0
 _ZN5Katie28QDeclarativeValueTypeFactory18registerValueTypesEv@Base 4.9.0
 _ZN5Katie28QDeclarativeValueTypeFactory9valueTypeEi@Base 4.9.0
 _ZN5Katie28QDeclarativeValueTypeFactoryC1Ev@Base 4.9.0
 _ZN5Katie28QDeclarativeValueTypeFactoryC2Ev@Base 4.9.0
 _ZN5Katie28QDeclarativeValueTypeFactoryD1Ev@Base 4.9.0
 _ZN5Katie28QDeclarativeValueTypeFactoryD2Ev@Base 4.9.0
 _ZN5Katie29QDeclarativeAbstractAnimation10classBeginEv@Base 4.9.0
 _ZN5Katie29QDeclarativeAbstractAnimation10setRunningEb@Base 4.9.0
 _ZN5Katie29QDeclarativeAbstractAnimation10transitionERNS_5QListINS_18QDeclarativeActionEEERNS1_INS_20QDeclarativePropertyEEENS0_19TransitionDirectionE@Base 4.9.0
 _ZN5Katie29QDeclarativeAbstractAnimation11currentTimeEv@Base 4.9.0
 _ZN5Katie29QDeclarativeAbstractAnimation11qt_metacallENS_11QMetaObject4CallEiPPv@Base 4.9.0
 _ZN5Katie29QDeclarativeAbstractAnimation11qt_metacastEPKc@Base 4.9.0
 _ZN5Katie29QDeclarativeAbstractAnimation13pausedChangedEb@Base 4.9.0
 _ZN5Katie29QDeclarativeAbstractAnimation14runningChangedEb@Base 4.9.0
 _ZN5Katie29QDeclarativeAbstractAnimation14setCurrentTimeEi@Base 4.9.0
 _ZN5Katie29QDeclarativeAbstractAnimation16loopCountChangedEi@Base 4.9.0
 _ZN5Katie29QDeclarativeAbstractAnimation16setDefaultTargetERKNS_20QDeclarativePropertyE@Base 4.9.0
 _ZN5Katie29QDeclarativeAbstractAnimation16staticMetaObjectE@Base 4.9.0
 _ZN5Katie29QDeclarativeAbstractAnimation16timelineCompleteEv@Base 4.9.0
 _ZN5Katie29QDeclarativeAbstractAnimation17componentCompleteEv@Base 4.9.0
 _ZN5Katie29QDeclarativeAbstractAnimation17setAlwaysRunToEndEb@Base 4.9.0
 _ZN5Katie29QDeclarativeAbstractAnimation18componentFinalizedEv@Base 4.9.0
 _ZN5Katie29QDeclarativeAbstractAnimation19getStaticMetaObjectEv@Base 4.9.0
 _ZN5Katie29QDeclarativeAbstractAnimation20notifyRunningChangedEb@Base 4.9.0
 _ZN5Katie29QDeclarativeAbstractAnimation21alwaysRunToEndChangedEb@Base 4.9.0
 _ZN5Katie29QDeclarativeAbstractAnimation21setDisableUserControlEv@Base 4.9.0
 _ZN5Katie29QDeclarativeAbstractAnimation4stopEv@Base 4.9.0
 _ZN5Katie29QDeclarativeAbstractAnimation5pauseEv@Base 4.9.0
 _ZN5Katie29QDeclarativeAbstractAnimation5startEv@Base 4.9.0
 _ZN5Katie29QDeclarativeAbstractAnimation6resumeEv@Base 4.9.0
 _ZN5Katie29QDeclarativeAbstractAnimation7restartEv@Base 4.9.0
 _ZN5Katie29QDeclarativeAbstractAnimation7startedEv@Base 4.9.0
 _ZN5Katie29QDeclarativeAbstractAnimation8completeEv@Base 4.9.0
 _ZN5Katie29QDeclarativeAbstractAnimation8setGroupEPNS_26QDeclarativeAnimationGroupE@Base 4.9.0
 _ZN5Katie29QDeclarativeAbstractAnimation8setLoopsEi@Base 4.9.0
 _ZN5Katie29QDeclarativeAbstractAnimation9completedEv@Base 4.9.0
 _ZN5Katie29QDeclarativeAbstractAnimation9setPausedEb@Base 4.9.0
 _ZN5Katie29QDeclarativeAbstractAnimation9setTargetERKNS_20QDeclarativePropertyE@Base 4.9.0
 _ZN5Katie29QDeclarativeAbstractAnimationC1EPNS_7QObjectE@Base 4.9.0
 _ZN5Katie29QDeclarativeAbstractAnimationC1ERNS_36QDeclarativeAbstractAnimationPrivateEPNS_7QObjectE@Base 4.9.0
 _ZN5Katie29QDeclarativeAbstractAnimationC2EPNS_7QObjectE@Base 4.9.0
 _ZN5Katie29QDeclarativeAbstractAnimationC2ERNS_36QDeclarativeAbstractAnimationPrivateEPNS_7QObjectE@Base 4.9.0
 _ZN5Katie29QDeclarativeAbstractAnimationD0Ev@Base 4.9.0
 _ZN5Katie29QDeclarativeAbstractAnimationD1Ev@Base 4.9.0
 _ZN5Katie29QDeclarativeAbstractAnimationD2Ev@Base 4.9.0
 _ZN5Katie30QDeclarativeOpenMetaObjectType14createPropertyERKNS_10QByteArrayE@Base 4.9.0
 _ZN5Katie30QDeclarativeOpenMetaObjectType15propertyCreatedEiRNS_20QMetaPropertyBuilderE@Base 4.9.0
 _ZN5Katie30QDeclarativeOpenMetaObjectTypeC1EPKNS_11QMetaObjectEPNS_18QDeclarativeEngineE@Base 4.9.0
 _ZN5Katie30QDeclarativeOpenMetaObjectTypeC2EPKNS_11QMetaObjectEPNS_18QDeclarativeEngineE@Base 4.9.0
 _ZN5Katie30QDeclarativeOpenMetaObjectTypeD0Ev@Base 4.9.0
 _ZN5Katie30QDeclarativeOpenMetaObjectTypeD1Ev@Base 4.9.0
 _ZN5Katie30QDeclarativeOpenMetaObjectTypeD2Ev@Base 4.9.0
 _ZN5Katie31QDeclarativePropertyValueSourceC1Ev@Base 4.9.0
 _ZN5Katie31QDeclarativePropertyValueSourceC2Ev@Base 4.9.0
 _ZN5Katie31QDeclarativePropertyValueSourceD0Ev@Base 4.9.0
 _ZN5Katie31QDeclarativePropertyValueSourceD1Ev@Base 4.9.0
 _ZN5Katie31QDeclarativePropertyValueSourceD2Ev@Base 4.9.0
 _ZN5Katie31qmlAttachedPropertiesObjectByIdEiPKNS_7QObjectEb@Base 4.9.0
 _ZN5Katie32QDeclarativeCustomParserPropertyC1ERKS0_@Base 4.9.0
 _ZN5Katie32QDeclarativeCustomParserPropertyC1Ev@Base 4.9.0
 _ZN5Katie32QDeclarativeCustomParserPropertyC2ERKS0_@Base 4.9.0
 _ZN5Katie32QDeclarativeCustomParserPropertyC2Ev@Base 4.9.0
 _ZN5Katie32QDeclarativeCustomParserPropertyD1Ev@Base 4.9.0
 _ZN5Katie32QDeclarativeCustomParserPropertyD2Ev@Base 4.9.0
 _ZN5Katie32QDeclarativeCustomParserPropertyaSERKS0_@Base 4.9.0
 _ZN5Katie36QDeclarativePropertyValueInterceptorC1Ev@Base 4.9.0
 _ZN5Katie36QDeclarativePropertyValueInterceptorC2Ev@Base 4.9.0
 _ZN5Katie36QDeclarativePropertyValueInterceptorD0Ev@Base 4.9.0
 _ZN5Katie36QDeclarativePropertyValueInterceptorD1Ev@Base 4.9.0
 _ZN5Katie36QDeclarativePropertyValueInterceptorD2Ev@Base 4.9.0
 _ZN5Katie39QDeclarativeNetworkAccessManagerFactoryD0Ev@Base 4.9.0
 _ZN5Katie39QDeclarativeNetworkAccessManagerFactoryD1Ev@Base 4.9.0
 _ZN5Katie39QDeclarativeNetworkAccessManagerFactoryD2Ev@Base 4.9.0
 _ZN5Katie7qmlInfoEPKNS_7QObjectE@Base 4.9.0
 _ZN5Katie7qmlInfoEPKNS_7QObjectERKNS_17QDeclarativeErrorE@Base 4.9.0
 _ZN5Katie7qmlInfoEPKNS_7QObjectERKNS_5QListINS_17QDeclarativeErrorEEE@Base 4.9.0
 _ZN5Katie9qmlEngineEPKNS_7QObjectE@Base 4.9.0
 _ZN5KatielsENS_6QDebugEPNS_16QDeclarativeItemE@Base 4.9.0
 _ZN5KatielsENS_6QDebugERKNS_17QDeclarativeErrorE@Base 4.9.0
 _ZNK5Katie15QDeclarativePen10metaObjectEv@Base 4.9.0
 _ZNK5Katie16QDeclarativeItem10metaObjectEv@Base 4.9.0
 _ZNK5Katie16QDeclarativeItem10parentItemEv@Base 4.9.0
 _ZNK5Katie16QDeclarativeItem10widthValidEv@Base 4.9.0
 _ZNK5Katie16QDeclarativeItem11heightValidEv@Base 4.9.0
 _ZNK5Katie16QDeclarativeItem11mapFromItemERKNS_12QScriptValueEdd@Base 4.9.0
 _ZNK5Katie16QDeclarativeItem12boundingRectEv@Base 4.9.0
 _ZNK5Katie16QDeclarativeItem13implicitWidthEv@Base 4.9.0
 _ZNK5Katie16QDeclarativeItem13keepMouseGrabEv@Base 4.9.0
 _ZNK5Katie16QDeclarativeItem14baselineOffsetEv@Base 4.9.0
 _ZNK5Katie16QDeclarativeItem14hasActiveFocusEv@Base 4.9.0
 _ZNK5Katie16QDeclarativeItem14implicitHeightEv@Base 4.9.0
 _ZNK5Katie16QDeclarativeItem15transformOriginEv@Base 4.9.0
 _ZNK5Katie16QDeclarativeItem19isComponentCompleteEv@Base 4.9.0
 _ZNK5Katie16QDeclarativeItem4clipEv@Base 4.9.0
 _ZNK5Katie16QDeclarativeItem5widthEv@Base 4.9.0
 _ZNK5Katie16QDeclarativeItem6heightEv@Base 4.9.0
 _ZNK5Katie16QDeclarativeItem6smoothEv@Base 4.9.0
 _ZNK5Katie16QDeclarativeItem7childAtEdd@Base 4.9.0
 _ZNK5Katie16QDeclarativeItem8hasFocusEv@Base 4.9.0
 _ZNK5Katie16QDeclarativeItem9mapToItemERKNS_12QScriptValueEdd@Base 4.9.0
 _ZNK5Katie16QDeclarativeText10lineHeightEv@Base 4.9.0
 _ZNK5Katie16QDeclarativeText10metaObjectEv@Base 4.9.0
 _ZNK5Katie16QDeclarativeText10styleColorEv@Base 4.9.0
 _ZNK5Katie16QDeclarativeText10textFormatEv@Base 4.9.0
 _ZNK5Katie16QDeclarativeText12boundingRectEv@Base 4.9.0
 _ZNK5Katie16QDeclarativeText12paintedWidthEv@Base 4.9.0
 _ZNK5Katie16QDeclarativeText13paintedHeightEv@Base 4.9.0
 _ZNK5Katie16QDeclarativeText14lineHeightModeEv@Base 4.9.0
 _ZNK5Katie16QDeclarativeText15effectiveHAlignEv@Base 4.9.0
 _ZNK5Katie16QDeclarativeText16maximumLineCountEv@Base 4.9.0
 _ZNK5Katie16QDeclarativeText16resourcesLoadingEv@Base 4.9.0
 _ZNK5Katie16QDeclarativeText4fontEv@Base 4.9.0
 _ZNK5Katie16QDeclarativeText4textEv@Base 4.9.0
 _ZNK5Katie16QDeclarativeText5colorEv@Base 4.9.0
 _ZNK5Katie16QDeclarativeText5styleEv@Base 4.9.0
 _ZNK5Katie16QDeclarativeText6hAlignEv@Base 4.9.0
 _ZNK5Katie16QDeclarativeText6vAlignEv@Base 4.9.0
 _ZNK5Katie16QDeclarativeText8wrapModeEv@Base 4.9.0
 _ZNK5Katie16QDeclarativeText9elideModeEv@Base 4.9.0
 _ZNK5Katie16QDeclarativeText9lineCountEv@Base 4.9.0
 _ZNK5Katie16QDeclarativeText9truncatedEv@Base 4.9.0
 _ZNK5Katie16QDeclarativeType10createSizeEv@Base 4.9.0
 _ZNK5Katie16QDeclarativeType10metaObjectEv@Base 4.9.0
 _ZNK5Katie16QDeclarativeType11isCreatableEv@Base 4.9.0
 _ZNK5Katie16QDeclarativeType11isInterfaceEv@Base 4.9.0
 _ZNK5Katie16QDeclarativeType11qListTypeIdEv@Base 4.9.0
 _ZNK5Katie16QDeclarativeType11qmlTypeNameEv@Base 4.9.0
 _ZNK5Katie16QDeclarativeType12customParserEv@Base 4.9.0
 _ZNK5Katie16QDeclarativeType12interfaceIIdEv@Base 4.9.0
 _ZNK5Katie16QDeclarativeType12majorVersionEv@Base 4.9.0
 _ZNK5Katie16QDeclarativeType12minorVersionEv@Base 4.9.0
 _ZNK5Katie16QDeclarativeType14baseMetaObjectEv@Base 4.9.0
 _ZNK5Katie16QDeclarativeType14createFunctionEv@Base 4.9.0
 _ZNK5Katie16QDeclarativeType14isExtendedTypeEv@Base 4.9.0
 _ZNK5Katie16QDeclarativeType16noCreationReasonEv@Base 4.9.0
 _ZNK5Katie16QDeclarativeType16parserStatusCastEv@Base 4.9.0
 _ZNK5Katie16QDeclarativeType18availableInVersionERKNS_10QByteArrayEii@Base 4.9.0
 _ZNK5Katie16QDeclarativeType18availableInVersionEii@Base 4.9.0
 _ZNK5Katie16QDeclarativeType18metaObjectRevisionEv@Base 4.9.0
 _ZNK5Katie16QDeclarativeType20attachedPropertiesIdEv@Base 4.9.0
 _ZNK5Katie16QDeclarativeType22attachedPropertiesTypeEv@Base 4.9.0
 _ZNK5Katie16QDeclarativeType23propertyValueSourceCastEv@Base 4.9.0
 _ZNK5Katie16QDeclarativeType26attachedPropertiesFunctionEv@Base 4.9.0
 _ZNK5Katie16QDeclarativeType28containsRevisionedAttributesEv@Base 4.9.0
 _ZNK5Katie16QDeclarativeType28propertyValueInterceptorCastEv@Base 4.9.0
 _ZNK5Katie16QDeclarativeType5indexEv@Base 4.9.0
 _ZNK5Katie16QDeclarativeType6createEPPNS_7QObjectEPPvj@Base 4.9.0
 _ZNK5Katie16QDeclarativeType6createEv@Base 4.9.0
 _ZNK5Katie16QDeclarativeType6moduleEv@Base 4.9.0
 _ZNK5Katie16QDeclarativeType6typeIdEv@Base 4.9.0
 _ZNK5Katie16QDeclarativeType8typeNameEv@Base 4.9.0
 _ZNK5Katie16QDeclarativeType9superTypeEv@Base 4.9.0
 _ZNK5Katie16QDeclarativeView10metaObjectEv@Base 4.9.0
 _ZNK5Katie16QDeclarativeView10resizeModeEv@Base 4.9.0
 _ZNK5Katie16QDeclarativeView10rootObjectEv@Base 4.9.0
 _ZNK5Katie16QDeclarativeView11initialSizeEv@Base 4.9.0
 _ZNK5Katie16QDeclarativeView11rootContextEv@Base 4.9.0
 _ZNK5Katie16QDeclarativeView6engineEv@Base 4.9.0
 _ZNK5Katie16QDeclarativeView6errorsEv@Base 4.9.0
 _ZNK5Katie16QDeclarativeView6sourceEv@Base 4.9.0
 _ZNK5Katie16QDeclarativeView6statusEv@Base 4.9.0
 _ZNK5Katie16QDeclarativeView8sizeHintEv@Base 4.9.0
 _ZNK5Katie16QMetaEnumBuilder3keyEi@Base 4.9.0
 _ZNK5Katie16QMetaEnumBuilder4nameEv@Base 4.9.0
 _ZNK5Katie16QMetaEnumBuilder5valueEi@Base 4.9.0
 _ZNK5Katie16QMetaEnumBuilder6d_funcEv@Base 4.9.0
 _ZNK5Katie16QMetaEnumBuilder6isFlagEv@Base 4.9.0
 _ZNK5Katie16QMetaEnumBuilder8keyCountEv@Base 4.9.0
 _ZNK5Katie17QDeclarativeError11descriptionEv@Base 4.9.0
 _ZNK5Katie17QDeclarativeError3urlEv@Base 4.9.0
 _ZNK5Katie17QDeclarativeError4lineEv@Base 4.9.0
 _ZNK5Katie17QDeclarativeError6columnEv@Base 4.9.0
 _ZNK5Katie17QDeclarativeError7isValidEv@Base 4.9.0
 _ZNK5Katie17QDeclarativeError8toStringEv@Base 4.9.0
 _ZNK5Katie17QDeclarativeState10metaObjectEv@Base 4.9.0
 _ZNK5Katie17QDeclarativeState10stateGroupEv@Base 4.9.0
 _ZNK5Katie17QDeclarativeState11isWhenKnownEv@Base 4.9.0
 _ZNK5Katie17QDeclarativeState11operationAtEi@Base 4.9.0
 _ZNK5Katie17QDeclarativeState13isStateActiveEv@Base 4.9.0
 _ZNK5Katie17QDeclarativeState14operationCountEv@Base 4.9.0
 _ZNK5Katie17QDeclarativeState17valueInRevertListEPNS_7QObjectERKNS_7QStringE@Base 4.9.0
 _ZNK5Katie17QDeclarativeState19bindingInRevertListEPNS_7QObjectERKNS_7QStringE@Base 4.9.0
 _ZNK5Katie17QDeclarativeState28containsPropertyInRevertListEPNS_7QObjectERKNS_7QStringE@Base 4.9.0
 _ZNK5Katie17QDeclarativeState4nameEv@Base 4.9.0
 _ZNK5Katie17QDeclarativeState4whenEv@Base 4.9.0
 _ZNK5Katie17QDeclarativeState7extendsEv@Base 4.9.0
 _ZNK5Katie17QDeclarativeState7isNamedEv@Base 4.9.0
 _ZNK5Katie17QDeclarativeTimer10metaObjectEv@Base 4.9.0
 _ZNK5Katie17QDeclarativeTimer11isRepeatingEv@Base 4.9.0
 _ZNK5Katie17QDeclarativeTimer16triggeredOnStartEv@Base 4.9.0
 _ZNK5Katie17QDeclarativeTimer8intervalEv@Base 4.9.0
 _ZNK5Katie17QDeclarativeTimer9isRunningEv@Base 4.9.0
 _ZNK5Katie18QDeclarativeEngine10metaObjectEv@Base 4.9.0
 _ZNK5Katie18QDeclarativeEngine11rootContextEv@Base 4.9.0
 _ZNK5Katie18QDeclarativeEngine13imageProviderERKNS_7QStringE@Base 4.9.0
 _ZNK5Katie18QDeclarativeEngine14importPathListEv@Base 4.9.0
 _ZNK5Katie18QDeclarativeEngine14pluginPathListEv@Base 4.9.0
 _ZNK5Katie18QDeclarativeEngine20networkAccessManagerEv@Base 4.9.0
 _ZNK5Katie18QDeclarativeEngine27networkAccessManagerFactoryEv@Base 4.9.0
 _ZNK5Katie18QDeclarativeEngine29outputWarningsToStandardErrorEv@Base 4.9.0
 _ZNK5Katie18QDeclarativeEngine7baseUrlEv@Base 4.9.0
 _ZNK5Katie18QDeclarativeParser7Variant12asStringListEv@Base 4.9.0
 _ZNK5Katie18QDeclarativeParser7Variant12isStringListEv@Base 4.9.0
 _ZNK5Katie18QDeclarativeParser7Variant4typeEv@Base 4.9.0
 _ZNK5Katie18QDeclarativeParser7Variant5asASTEv@Base 4.9.0
 _ZNK5Katie18QDeclarativeParser7Variant8asNumberEv@Base 4.9.0
 _ZNK5Katie18QDeclarativeParser7Variant8asScriptEv@Base 4.9.0
 _ZNK5Katie18QDeclarativeParser7Variant8asStringEv@Base 4.9.0
 _ZNK5Katie18QDeclarativeParser7Variant9asBooleanEv@Base 4.9.0
 _ZNK5Katie18QDeclarativePixmap11requestSizeEv@Base 4.9.0
 _ZNK5Katie18QDeclarativePixmap12implicitSizeEv@Base 4.9.0
 _ZNK5Katie18QDeclarativePixmap3urlEv@Base 4.9.0
 _ZNK5Katie18QDeclarativePixmap4rectEv@Base 4.9.0
 _ZNK5Katie18QDeclarativePixmap5errorEv@Base 4.9.0
 _ZNK5Katie18QDeclarativePixmap5widthEv@Base 4.9.0
 _ZNK5Katie18QDeclarativePixmap6heightEv@Base 4.9.0
 _ZNK5Katie18QDeclarativePixmap6isNullEv@Base 4.9.0
 _ZNK5Katie18QDeclarativePixmap6pixmapEv@Base 4.9.0
 _ZNK5Katie18QDeclarativePixmap6statusEv@Base 4.9.0
 _ZNK5Katie18QDeclarativePixmap7isErrorEv@Base 4.9.0
 _ZNK5Katie18QDeclarativePixmap7isReadyEv@Base 4.9.0
 _ZNK5Katie18QDeclarativePixmap9isLoadingEv@Base 4.9.0
 _ZNK5Katie18QMetaMethodBuilder10attributesEv@Base 4.9.0
 _ZNK5Katie18QMetaMethodBuilder10methodTypeEv@Base 4.9.0
 _ZNK5Katie18QMetaMethodBuilder10returnTypeEv@Base 4.9.0
 _ZNK5Katie18QMetaMethodBuilder14parameterNamesEv@Base 4.9.0
 _ZNK5Katie18QMetaMethodBuilder3tagEv@Base 4.9.0
 _ZNK5Katie18QMetaMethodBuilder5indexEv@Base 4.9.0
 _ZNK5Katie18QMetaMethodBuilder6accessEv@Base 4.9.0
 _ZNK5Katie18QMetaMethodBuilder6d_funcEv@Base 4.9.0
 _ZNK5Katie18QMetaMethodBuilder9signatureEv@Base 4.9.0
 _ZNK5Katie18QMetaObjectBuilder10enumeratorEi@Base 4.9.0
 _ZNK5Katie18QMetaObjectBuilder10superClassEv@Base 4.9.0
 _ZNK5Katie18QMetaObjectBuilder11constructorEi@Base 4.9.0
 _ZNK5Katie18QMetaObjectBuilder11methodCountEv@Base 4.9.0
 _ZNK5Katie18QMetaObjectBuilder12toMetaObjectEv@Base 4.9.0
 _ZNK5Katie18QMetaObjectBuilder13classInfoNameEi@Base 4.9.0
 _ZNK5Katie18QMetaObjectBuilder13propertyCountEv@Base 4.9.0
 _ZNK5Katie18QMetaObjectBuilder14classInfoCountEv@Base 4.9.0
 _ZNK5Katie18QMetaObjectBuilder14classInfoValueEi@Base 4.9.0
 _ZNK5Katie18QMetaObjectBuilder15enumeratorCountEv@Base 4.9.0
 _ZNK5Katie18QMetaObjectBuilder16constructorCountEv@Base 4.9.0
 _ZNK5Katie18QMetaObjectBuilder17relatedMetaObjectEi@Base 4.9.0
 _ZNK5Katie18QMetaObjectBuilder17toRelocatableDataEPb@Base 4.9.0
 _ZNK5Katie18QMetaObjectBuilder22relatedMetaObjectCountEv@Base 4.9.0
 _ZNK5Katie18QMetaObjectBuilder22staticMetacallFunctionEv@Base 4.9.0
 _ZNK5Katie18QMetaObjectBuilder5flagsEv@Base 4.9.0
 _ZNK5Katie18QMetaObjectBuilder6methodEi@Base 4.9.0
 _ZNK5Katie18QMetaObjectBuilder8propertyEi@Base 4.9.0
 _ZNK5Katie18QMetaObjectBuilder9classNameEv@Base 4.9.0
 _ZNK5Katie18QMetaObjectBuilder9serializeERNS_11QDataStreamE@Base 4.9.0
 _ZNK5Katie19QDeclarativeAnchors10leftMarginEv@Base 4.9.0
 _ZNK5Katie19QDeclarativeAnchors10metaObjectEv@Base 4.9.0
 _ZNK5Katie19QDeclarativeAnchors11rightMarginEv@Base 4.9.0
 _ZNK5Katie19QDeclarativeAnchors11usedAnchorsEv@Base 4.9.0
 _ZNK5Katie19QDeclarativeAnchors12bottomMarginEv@Base 4.9.0
 _ZNK5Katie19QDeclarativeAnchors14baselineOffsetEv@Base 4.9.0
 _ZNK5Katie19QDeclarativeAnchors14verticalCenterEv@Base 4.9.0
 _ZNK5Katie19QDeclarativeAnchors16horizontalCenterEv@Base 4.9.0
 _ZNK5Katie19QDeclarativeAnchors20verticalCenterOffsetEv@Base 4.9.0
 _ZNK5Katie19QDeclarativeAnchors22horizontalCenterOffsetEv@Base 4.9.0
 _ZNK5Katie19QDeclarativeAnchors3topEv@Base 4.9.0
 _ZNK5Katie19QDeclarativeAnchors4fillEv@Base 4.9.0
 _ZNK5Katie19QDeclarativeAnchors4leftEv@Base 4.9.0
 _ZNK5Katie19QDeclarativeAnchors5rightEv@Base 4.9.0
 _ZNK5Katie19QDeclarativeAnchors6bottomEv@Base 4.9.0
 _ZNK5Katie19QDeclarativeAnchors7marginsEv@Base 4.9.0
 _ZNK5Katie19QDeclarativeAnchors8baselineEv@Base 4.9.0
 _ZNK5Katie19QDeclarativeAnchors8centerInEv@Base 4.9.0
 _ZNK5Katie19QDeclarativeAnchors9topMarginEv@Base 4.9.0
 _ZNK5Katie19QDeclarativeBinding10expressionEv@Base 4.9.0
 _ZNK5Katie19QDeclarativeBinding10metaObjectEv@Base 4.9.0
 _ZNK5Katie19QDeclarativeBinding13evaluateFlagsEv@Base 4.9.0
 _ZNK5Katie19QDeclarativeBinding7enabledEv@Base 4.9.0
 _ZNK5Katie19QDeclarativeBinding8propertyEv@Base 4.9.0
 _ZNK5Katie19QDeclarativeContext10metaObjectEv@Base 4.9.0
 _ZNK5Katie19QDeclarativeContext13contextObjectEv@Base 4.9.0
 _ZNK5Katie19QDeclarativeContext13parentContextEv@Base 4.9.0
 _ZNK5Katie19QDeclarativeContext15contextPropertyERKNS_7QStringE@Base 4.9.0
 _ZNK5Katie19QDeclarativeContext6engineEv@Base 4.9.0
 _ZNK5Katie19QDeclarativeContext7baseUrlEv@Base 4.9.0
 _ZNK5Katie19QDeclarativeContext7isValidEv@Base 4.9.0
 _ZNK5Katie19QListModelInterface10metaObjectEv@Base 4.9.0
 _ZNK5Katie20QDeclarativeBehavior10metaObjectEv@Base 4.9.0
 _ZNK5Katie20QDeclarativeBehavior7enabledEv@Base 4.9.0
 _ZNK5Katie20QDeclarativeProperty10isPropertyEv@Base 4.9.0
 _ZNK5Katie20QDeclarativeProperty10isWritableEv@Base 4.9.0
 _ZNK5Katie20QDeclarativeProperty12isDesignableEv@Base 4.9.0
 _ZNK5Katie20QDeclarativeProperty12isResettableEv@Base 4.9.0
 _ZNK5Katie20QDeclarativeProperty12propertyTypeEv@Base 4.9.0
 _ZNK5Katie20QDeclarativeProperty15hasNotifySignalEv@Base 4.9.0
 _ZNK5Katie20QDeclarativeProperty16isSignalPropertyEv@Base 4.9.0
 _ZNK5Katie20QDeclarativeProperty16propertyTypeNameEv@Base 4.9.0
 _ZNK5Katie20QDeclarativeProperty17needsNotifySignalEv@Base 4.9.0
 _ZNK5Katie20QDeclarativeProperty19connectNotifySignalEPNS_7QObjectEPKc@Base 4.9.0
 _ZNK5Katie20QDeclarativeProperty19connectNotifySignalEPNS_7QObjectEi@Base 4.9.0
 _ZNK5Katie20QDeclarativeProperty20propertyTypeCategoryEv@Base 4.9.0
 _ZNK5Katie20QDeclarativeProperty4nameEv@Base 4.9.0
 _ZNK5Katie20QDeclarativeProperty4readEv@Base 4.9.0
 _ZNK5Katie20QDeclarativeProperty4typeEv@Base 4.9.0
 _ZNK5Katie20QDeclarativeProperty5indexEv@Base 4.9.0
 _ZNK5Katie20QDeclarativeProperty5resetEv@Base 4.9.0
 _ZNK5Katie20QDeclarativeProperty5writeERKNS_8QVariantE@Base 4.9.0
 _ZNK5Katie20QDeclarativeProperty6methodEv@Base 4.9.0
 _ZNK5Katie20QDeclarativeProperty6objectEv@Base 4.9.0
 _ZNK5Katie20QDeclarativeProperty7isValidEv@Base 4.9.0
 _ZNK5Katie20QDeclarativeProperty8propertyEv@Base 4.9.0
 _ZNK5Katie20QDeclarativePropertyeqERKS0_@Base 4.9.0
 _ZNK5Katie20QMetaPropertyBuilder10isConstantEv@Base 4.9.0
 _ZNK5Katie20QMetaPropertyBuilder10isEditableEv@Base 4.9.0
 _ZNK5Katie20QMetaPropertyBuilder10isReadableEv@Base 4.9.0
 _ZNK5Katie20QMetaPropertyBuilder10isWritableEv@Base 4.9.0
 _ZNK5Katie20QMetaPropertyBuilder12hasStdCppSetEv@Base 4.9.0
 _ZNK5Katie20QMetaPropertyBuilder12isDesignableEv@Base 4.9.0
 _ZNK5Katie20QMetaPropertyBuilder12isEnumOrFlagEv@Base 4.9.0
 _ZNK5Katie20QMetaPropertyBuilder12isResettableEv@Base 4.9.0
 _ZNK5Katie20QMetaPropertyBuilder12isScriptableEv@Base 4.9.0
 _ZNK5Katie20QMetaPropertyBuilder12notifySignalEv@Base 4.9.0
 _ZNK5Katie20QMetaPropertyBuilder15hasNotifySignalEv@Base 4.9.0
 _ZNK5Katie20QMetaPropertyBuilder4nameEv@Base 4.9.0
 _ZNK5Katie20QMetaPropertyBuilder4typeEv@Base 4.9.0
 _ZNK5Katie20QMetaPropertyBuilder6d_funcEv@Base 4.9.0
 _ZNK5Katie20QMetaPropertyBuilder6isUserEv@Base 4.9.0
 _ZNK5Katie20QMetaPropertyBuilder7isFinalEv@Base 4.9.0
 _ZNK5Katie20QMetaPropertyBuilder8isStoredEv@Base 4.9.0
 _ZNK5Katie21QDeclarativeComponent10metaObjectEv@Base 4.9.0
 _ZNK5Katie21QDeclarativeComponent11errorStringEv@Base 4.9.0
 _ZNK5Katie21QDeclarativeComponent15creationContextEv@Base 4.9.0
 _ZNK5Katie21QDeclarativeComponent3urlEv@Base 4.9.0
 _ZNK5Katie21QDeclarativeComponent6errorsEv@Base 4.9.0
 _ZNK5Katie21QDeclarativeComponent6statusEv@Base 4.9.0
 _ZNK5Katie21QDeclarativeComponent8progressEv@Base 4.9.0
 _ZNK5Katie21QDeclarativeListModel10metaObjectEv@Base 4.9.0
 _ZNK5Katie21QDeclarativeListModel14inWorkerThreadEv@Base 4.9.0
 _ZNK5Katie21QDeclarativeListModel3getEi@Base 4.9.0
 _ZNK5Katie21QDeclarativeListModel4dataEii@Base 4.9.0
 _ZNK5Katie21QDeclarativeListModel5countEv@Base 4.9.0
 _ZNK5Katie21QDeclarativeListModel5rolesEv@Base 4.9.0
 _ZNK5Katie21QDeclarativeListModel8toStringEi@Base 4.9.0
 _ZNK5Katie21QDeclarativeRectangle10metaObjectEv@Base 4.9.0
 _ZNK5Katie21QDeclarativeRectangle12boundingRectEv@Base 4.9.0
 _ZNK5Katie21QDeclarativeRectangle5colorEv@Base 4.9.0
 _ZNK5Katie21QDeclarativeRectangle6radiusEv@Base 4.9.0
 _ZNK5Katie21QDeclarativeRectangle8gradientEv@Base 4.9.0
 _ZNK5Katie21QDeclarativeScaleGrid10metaObjectEv@Base 4.9.0
 _ZNK5Katie21QDeclarativeScaleGrid6isNullEv@Base 4.9.0
 _ZNK5Katie21QDeclarativeValueType10metaObjectEv@Base 4.9.0
 _ZNK5Katie22QDeclarativeExpression10expressionEv@Base 4.9.0
 _ZNK5Katie22QDeclarativeExpression10lineNumberEv@Base 4.9.0
 _ZNK5Katie22QDeclarativeExpression10metaObjectEv@Base 4.9.0
 _ZNK5Katie22QDeclarativeExpression10sourceFileEv@Base 4.9.0
 _ZNK5Katie22QDeclarativeExpression11scopeObjectEv@Base 4.9.0
 _ZNK5Katie22QDeclarativeExpression20notifyOnValueChangedEv@Base 4.9.0
 _ZNK5Katie22QDeclarativeExpression5errorEv@Base 4.9.0
 _ZNK5Katie22QDeclarativeExpression6engineEv@Base 4.9.0
 _ZNK5Katie22QDeclarativeExpression7contextEv@Base 4.9.0
 _ZNK5Katie22QDeclarativeExpression8hasErrorEv@Base 4.9.0
 _ZNK5Katie22QDeclarativeStateGroup10metaObjectEv@Base 4.9.0
 _ZNK5Katie22QDeclarativeStateGroup5stateEv@Base 4.9.0
 _ZNK5Katie22QDeclarativeStateGroup6statesEv@Base 4.9.0
 _ZNK5Katie22QDeclarativeStateGroup9findStateERKNS_7QStringE@Base 4.9.0
 _ZNK5Katie22QDeclarativeTransition10metaObjectEv@Base 4.9.0
 _ZNK5Katie22QDeclarativeTransition10reversibleEv@Base 4.9.0
 _ZNK5Katie22QDeclarativeTransition7toStateEv@Base 4.9.0
 _ZNK5Katie22QDeclarativeTransition9fromStateEv@Base 4.9.0
 _ZNK5Katie23QDeclarativeApplication10metaObjectEv@Base 4.9.0
 _ZNK5Katie23QDeclarativeApplication15layoutDirectionEv@Base 4.9.0
 _ZNK5Katie23QDeclarativeApplication6activeEv@Base 4.9.0
 _ZNK5Katie23QDeclarativeItemPrivate13implicitWidthEv@Base 4.9.0
 _ZNK5Katie23QDeclarativeItemPrivate14implicitHeightEv@Base 4.9.0
 _ZNK5Katie23QDeclarativeItemPrivate14verticalCenterEv@Base 4.9.0
 _ZNK5Katie23QDeclarativeItemPrivate16horizontalCenterEv@Base 4.9.0
 _ZNK5Katie23QDeclarativeItemPrivate22computeTransformOriginEv@Base 4.9.0
 _ZNK5Katie23QDeclarativeItemPrivate3topEv@Base 4.9.0
 _ZNK5Katie23QDeclarativeItemPrivate4leftEv@Base 4.9.0
 _ZNK5Katie23QDeclarativeItemPrivate5rightEv@Base 4.9.0
 _ZNK5Katie23QDeclarativeItemPrivate5stateEv@Base 4.9.0
 _ZNK5Katie23QDeclarativeItemPrivate5widthEv@Base 4.9.0
 _ZNK5Katie23QDeclarativeItemPrivate6bottomEv@Base 4.9.0
 _ZNK5Katie23QDeclarativeItemPrivate6heightEv@Base 4.9.0
 _ZNK5Katie23QDeclarativeItemPrivate8baselineEv@Base 4.9.0
 _ZNK5Katie23QDeclarativePropertyMap10metaObjectEv@Base 4.9.0
 _ZNK5Katie23QDeclarativePropertyMap4keysEv@Base 4.9.0
 _ZNK5Katie23QDeclarativePropertyMap4sizeEv@Base 4.9.0
 _ZNK5Katie23QDeclarativePropertyMap5countEv@Base 4.9.0
 _ZNK5Katie23QDeclarativePropertyMap5valueERKNS_7QStringE@Base 4.9.0
 _ZNK5Katie23QDeclarativePropertyMap7isEmptyEv@Base 4.9.0
 _ZNK5Katie23QDeclarativePropertyMap8containsERKNS_7QStringE@Base 4.9.0
 _ZNK5Katie23QDeclarativePropertyMapixERKNS_7QStringE@Base 4.9.0
 _ZNK5Katie24QDeclarativeCustomParser11resolveTypeERKNS_10QByteArrayE@Base 4.9.0
 _ZNK5Katie24QDeclarativeCustomParser12evaluateEnumERKNS_10QByteArrayE@Base 4.9.0
 _ZNK5Katie24QDeclarativeParentChange10metaObjectEv@Base 4.9.0
 _ZNK5Katie24QDeclarativeParentChange10scaleIsSetEv@Base 4.9.0
 _ZNK5Katie24QDeclarativeParentChange10widthIsSetEv@Base 4.9.0
 _ZNK5Katie24QDeclarativeParentChange11heightIsSetEv@Base 4.9.0
 _ZNK5Katie24QDeclarativeParentChange13rotationIsSetEv@Base 4.9.0
 _ZNK5Katie24QDeclarativeParentChange14originalParentEv@Base 4.9.0
 _ZNK5Katie24QDeclarativeParentChange1xEv@Base 4.9.0
 _ZNK5Katie24QDeclarativeParentChange1yEv@Base 4.9.0
 _ZNK5Katie24QDeclarativeParentChange5scaleEv@Base 4.9.0
 _ZNK5Katie24QDeclarativeParentChange5widthEv@Base 4.9.0
 _ZNK5Katie24QDeclarativeParentChange6heightEv@Base 4.9.0
 _ZNK5Katie24QDeclarativeParentChange6objectEv@Base 4.9.0
 _ZNK5Katie24QDeclarativeParentChange6parentEv@Base 4.9.0
 _ZNK5Katie24QDeclarativeParentChange6xIsSetEv@Base 4.9.0
 _ZNK5Katie24QDeclarativeParentChange6yIsSetEv@Base 4.9.0
 _ZNK5Katie24QDeclarativeParentChange8rotationEv@Base 4.9.0
 _ZNK5Katie24QDeclarativeParentChange8typeNameEv@Base 4.9.0
 _ZNK5Katie24QDeclarativeScriptAction10metaObjectEv@Base 4.9.0
 _ZNK5Katie24QDeclarativeScriptAction21stateChangeScriptNameEv@Base 4.9.0
 _ZNK5Katie24QDeclarativeScriptAction6scriptEv@Base 4.9.0
 _ZNK5Katie24QDeclarativeScriptString11scopeObjectEv@Base 4.9.0
 _ZNK5Katie24QDeclarativeScriptString6scriptEv@Base 4.9.0
 _ZNK5Katie24QDeclarativeScriptString7contextEv@Base 4.9.0
 _ZNK5Katie25QDeclarativeAnchorChanges10metaObjectEv@Base 4.9.0
 _ZNK5Katie25QDeclarativeAnchorChanges6objectEv@Base 4.9.0
 _ZNK5Katie25QDeclarativeAnchorChanges8typeNameEv@Base 4.9.0
 _ZNK5Katie25QDeclarativeImageProvider9imageTypeEv@Base 4.9.0
 _ZNK5Katie25QDeclarativeListReference15listElementTypeEv@Base 4.9.0
 _ZNK5Katie25QDeclarativeListReference2atEi@Base 4.9.0
 _ZNK5Katie25QDeclarativeListReference5canAtEv@Base 4.9.0
 _ZNK5Katie25QDeclarativeListReference5clearEv@Base 4.9.0
 _ZNK5Katie25QDeclarativeListReference5countEv@Base 4.9.0
 _ZNK5Katie25QDeclarativeListReference6appendEPNS_7QObjectE@Base 4.9.0
 _ZNK5Katie25QDeclarativeListReference6objectEv@Base 4.9.0
 _ZNK5Katie25QDeclarativeListReference7isValidEv@Base 4.9.0
 _ZNK5Katie25QDeclarativeListReference8canClearEv@Base 4.9.0
 _ZNK5Katie25QDeclarativeListReference8canCountEv@Base 4.9.0
 _ZNK5Katie25QDeclarativeListReference9canAppendEv@Base 4.9.0
 _ZNK5Katie26QDeclarativeBasePositioner10metaObjectEv@Base 4.9.0
 _ZNK5Katie26QDeclarativeBasePositioner3addEv@Base 4.9.0
 _ZNK5Katie26QDeclarativeBasePositioner4moveEv@Base 4.9.0
 _ZNK5Katie26QDeclarativeBasePositioner7spacingEv@Base 4.9.0
 _ZNK5Katie26QDeclarativeOpenMetaObject4nameEi@Base 4.9.0
 _ZNK5Katie26QDeclarativeOpenMetaObject4typeEv@Base 4.9.0
 _ZNK5Katie26QDeclarativeOpenMetaObject5countEv@Base 4.9.0
 _ZNK5Katie26QDeclarativeOpenMetaObject5valueERKNS_10QByteArrayE@Base 4.9.0
 _ZNK5Katie26QDeclarativeOpenMetaObject5valueEi@Base 4.9.0
 _ZNK5Katie26QDeclarativeOpenMetaObject6objectEv@Base 4.9.0
 _ZNK5Katie26QDeclarativeOpenMetaObject6parentEv@Base 4.9.0
 _ZNK5Katie26QDeclarativeOpenMetaObject8hasValueEi@Base 4.9.0
 _ZNK5Katie26QDeclarativeStateOperation10metaObjectEv@Base 4.9.0
 _ZNK5Katie26QDeclarativeStateOperation5stateEv@Base 4.9.0
 _ZNK5Katie27QDeclarativeAbstractBinding10expressionEv@Base 4.9.0
 _ZNK5Katie27QDeclarativeAbstractBinding13propertyIndexEv@Base 4.9.0
 _ZNK5Katie27QDeclarativeAbstractBinding6objectEv@Base 4.9.0
 _ZNK5Katie27QDeclarativeExtensionPlugin10metaObjectEv@Base 4.9.0
 _ZNK5Katie27QDeclarativeGridScaledImage10gridBottomEv@Base 4.9.0
 _ZNK5Katie27QDeclarativeGridScaledImage7gridTopEv@Base 4.9.0
 _ZNK5Katie27QDeclarativeGridScaledImage7isValidEv@Base 4.9.0
 _ZNK5Katie27QDeclarativeGridScaledImage8gridLeftEv@Base 4.9.0
 _ZNK5Katie27QDeclarativeGridScaledImage9gridRightEv@Base 4.9.0
 _ZNK5Katie27QDeclarativeGridScaledImage9pixmapUrlEv@Base 4.9.0
 _ZNK5Katie27QDeclarativePropertyChanges10expressionERKNS_7QStringE@Base 4.9.0
 _ZNK5Katie27QDeclarativePropertyChanges10isExplicitEv@Base 4.9.0
 _ZNK5Katie27QDeclarativePropertyChanges10metaObjectEv@Base 4.9.0
 _ZNK5Katie27QDeclarativePropertyChanges13containsValueERKNS_7QStringE@Base 4.9.0
 _ZNK5Katie27QDeclarativePropertyChanges16containsPropertyERKNS_7QStringE@Base 4.9.0
 _ZNK5Katie27QDeclarativePropertyChanges18containsExpressionERKNS_7QStringE@Base 4.9.0
 _ZNK5Katie27QDeclarativePropertyChanges18restoreEntryValuesEv@Base 4.9.0
 _ZNK5Katie27QDeclarativePropertyChanges5valueERKNS_7QStringE@Base 4.9.0
 _ZNK5Katie27QDeclarativePropertyChanges6objectEv@Base 4.9.0
 _ZNK5Katie27QDeclarativePropertyChanges8propertyERKNS_7QStringE@Base 4.9.0
 _ZNK5Katie27QDeclarativePropertyPrivate11isValueTypeEv@Base 4.9.0
 _ZNK5Katie27QDeclarativePropertyPrivate12propertyTypeEv@Base 4.9.0
 _ZNK5Katie27QDeclarativePropertyPrivate20propertyTypeCategoryEv@Base 4.9.0
 _ZNK5Katie27QDeclarativePropertyPrivate4typeEv@Base 4.9.0
 _ZNK5Katie28QDeclarativeCustomParserNode10propertiesEv@Base 4.9.0
 _ZNK5Katie28QDeclarativeCustomParserNode4nameEv@Base 4.9.0
 _ZNK5Katie28QDeclarativeCustomParserNode8locationEv@Base 4.9.0
 _ZNK5Katie29QDeclarativeAbstractAnimation10metaObjectEv@Base 4.9.0
 _ZNK5Katie29QDeclarativeAbstractAnimation14alwaysRunToEndEv@Base 4.9.0
 _ZNK5Katie29QDeclarativeAbstractAnimation5groupEv@Base 4.9.0
 _ZNK5Katie29QDeclarativeAbstractAnimation5loopsEv@Base 4.9.0
 _ZNK5Katie29QDeclarativeAbstractAnimation8isPausedEv@Base 4.9.0
 _ZNK5Katie29QDeclarativeAbstractAnimation9isRunningEv@Base 4.9.0
 _ZNK5Katie30QDeclarativeOpenMetaObjectType12signalOffsetEv@Base 4.9.0
 _ZNK5Katie30QDeclarativeOpenMetaObjectType14propertyOffsetEv@Base 4.9.0
 _ZNK5Katie32QDeclarativeCustomParserProperty14assignedValuesEv@Base 4.9.0
 _ZNK5Katie32QDeclarativeCustomParserProperty4nameEv@Base 4.9.0
 _ZNK5Katie32QDeclarativeCustomParserProperty6isListEv@Base 4.9.0
 _ZNK5Katie32QDeclarativeCustomParserProperty8locationEv@Base 4.9.0
 _ZSt4swapIN5Katie8QVariant7PrivateEENSt9enable_ifIXsrSt6__and_IJSt6__not_ISt15__is_tuple_likeIT_EESt21is_move_constructibleIS7_ESt18is_move_assignableIS7_EEE5valueEvE4typeERS7_SH_@Base 4.9.0
 _ZTIN5Katie11QMetaObjectE@Base 4.9.0
 _ZTIN5Katie15QDeclarativePenE@Base 4.9.0
 _ZTIN5Katie16QDeclarativeItemE@Base 4.9.0
 _ZTIN5Katie16QDeclarativeTextE@Base 4.9.0
 _ZTIN5Katie16QDeclarativeViewE@Base 4.9.0
 _ZTIN5Katie17QDeclarativeStateE@Base 4.9.0
 _ZTIN5Katie17QDeclarativeTimerE@Base 4.9.0
 _ZTIN5Katie18QDeclarativeEngineE@Base 4.9.0
 _ZTIN5Katie18QMetaObjectBuilderE@Base 4.9.0
 _ZTIN5Katie19QDeclarativeAnchorsE@Base 4.9.0
 _ZTIN5Katie19QDeclarativeBindingE@Base 4.9.0
 _ZTIN5Katie19QDeclarativeContextE@Base 4.9.0
 _ZTIN5Katie19QListModelInterfaceE@Base 4.9.0
 _ZTIN5Katie20QDeclarativeBehaviorE@Base 4.9.0
 _ZTIN5Katie20QDeclarativeRefCountE@Base 4.9.0
 _ZTIN5Katie20QGraphicsViewPrivateE@Base 4.9.0
 _ZTIN5Katie21QDeclarativeComponentE@Base 4.9.0
 _ZTIN5Katie21QDeclarativeListModelE@Base 4.9.0
 _ZTIN5Katie21QDeclarativeRectangleE@Base 4.9.0
 _ZTIN5Katie21QDeclarativeScaleGridE@Base 4.9.0
 _ZTIN5Katie21QDeclarativeValueTypeE@Base 4.9.0
 _ZTIN5Katie22QDeclarativeExpressionE@Base 4.9.0
 _ZTIN5Katie22QDeclarativeStateGroupE@Base 4.9.0
 _ZTIN5Katie22QDeclarativeTransitionE@Base 4.9.0
 _ZTIN5Katie23QDeclarativeApplicationE@Base 4.9.0
 _ZTIN5Katie23QDeclarativeItemPrivateE@Base 4.9.0
 _ZTIN5Katie23QDeclarativePropertyMapE@Base 4.9.0
 _ZTIN5Katie23QScriptDeclarativeClass6ObjectE@Base 4.9.0
 _ZTIN5Katie24QDeclarativeCustomParserE@Base 4.9.0
 _ZTIN5Katie24QDeclarativeParentChangeE@Base 4.9.0
 _ZTIN5Katie24QDeclarativeParserStatusE@Base 4.9.0
 _ZTIN5Katie24QDeclarativeScriptActionE@Base 4.9.0
 _ZTIN5Katie25QDeclarativeAnchorChangesE@Base 4.9.0
 _ZTIN5Katie25QDeclarativeImageProviderE@Base 4.9.0
 _ZTIN5Katie26QAbstractDynamicMetaObjectE@Base 4.9.0
 _ZTIN5Katie26QDeclarativeBasePositionerE@Base 4.9.0
 _ZTIN5Katie26QDeclarativeOpenMetaObjectE@Base 4.9.0
 _ZTIN5Katie26QDeclarativeStateOperationE@Base 4.9.0
 _ZTIN5Katie27QDeclarativeAbstractBindingE@Base 4.9.0
 _ZTIN5Katie27QDeclarativeExtensionPluginE@Base 4.9.0
 _ZTIN5Katie27QDeclarativePropertyChangesE@Base 4.9.0
 _ZTIN5Katie27QDeclarativePropertyPrivateE@Base 4.9.0
 _ZTIN5Katie29QDeclarativeAbstractAnimationE@Base 4.9.0
 _ZTIN5Katie30QDeclarativeExtensionInterfaceE@Base 4.9.0
 _ZTIN5Katie30QDeclarativeOpenMetaObjectTypeE@Base 4.9.0
 _ZTIN5Katie31QDeclarativePropertyValueSourceE@Base 4.9.0
 _ZTIN5Katie36QDeclarativePropertyValueInterceptorE@Base 4.9.0
 _ZTIN5Katie39QDeclarativeNetworkAccessManagerFactoryE@Base 4.9.0
 _ZTSN5Katie11QMetaObjectE@Base 4.9.0
 _ZTSN5Katie15QDeclarativePenE@Base 4.9.0
 _ZTSN5Katie16QDeclarativeItemE@Base 4.9.0
 _ZTSN5Katie16QDeclarativeTextE@Base 4.9.0
 _ZTSN5Katie16QDeclarativeViewE@Base 4.9.0
 _ZTSN5Katie17QDeclarativeStateE@Base 4.9.0
 _ZTSN5Katie17QDeclarativeTimerE@Base 4.9.0
 _ZTSN5Katie18QDeclarativeEngineE@Base 4.9.0
 _ZTSN5Katie18QMetaObjectBuilderE@Base 4.9.0
 _ZTSN5Katie19QDeclarativeAnchorsE@Base 4.9.0
 _ZTSN5Katie19QDeclarativeBindingE@Base 4.9.0
 _ZTSN5Katie19QDeclarativeContextE@Base 4.9.0
 _ZTSN5Katie19QListModelInterfaceE@Base 4.9.0
 _ZTSN5Katie20QDeclarativeBehaviorE@Base 4.9.0
 _ZTSN5Katie20QDeclarativeRefCountE@Base 4.9.0
 _ZTSN5Katie20QGraphicsViewPrivateE@Base 4.9.0
 _ZTSN5Katie21QDeclarativeComponentE@Base 4.9.0
 _ZTSN5Katie21QDeclarativeListModelE@Base 4.9.0
 _ZTSN5Katie21QDeclarativeRectangleE@Base 4.9.0
 _ZTSN5Katie21QDeclarativeScaleGridE@Base 4.9.0
 _ZTSN5Katie21QDeclarativeValueTypeE@Base 4.9.0
 _ZTSN5Katie22QDeclarativeExpressionE@Base 4.9.0
 _ZTSN5Katie22QDeclarativeStateGroupE@Base 4.9.0
 _ZTSN5Katie22QDeclarativeTransitionE@Base 4.9.0
 _ZTSN5Katie23QDeclarativeApplicationE@Base 4.9.0
 _ZTSN5Katie23QDeclarativeItemPrivateE@Base 4.9.0
 _ZTSN5Katie23QDeclarativePropertyMapE@Base 4.9.0
 _ZTSN5Katie23QScriptDeclarativeClass6ObjectE@Base 4.9.0
 _ZTSN5Katie24QDeclarativeCustomParserE@Base 4.9.0
 _ZTSN5Katie24QDeclarativeParentChangeE@Base 4.9.0
 _ZTSN5Katie24QDeclarativeParserStatusE@Base 4.9.0
 _ZTSN5Katie24QDeclarativeScriptActionE@Base 4.9.0
 _ZTSN5Katie25QDeclarativeAnchorChangesE@Base 4.9.0
 _ZTSN5Katie25QDeclarativeImageProviderE@Base 4.9.0
 _ZTSN5Katie26QAbstractDynamicMetaObjectE@Base 4.9.0
 _ZTSN5Katie26QDeclarativeBasePositionerE@Base 4.9.0
 _ZTSN5Katie26QDeclarativeOpenMetaObjectE@Base 4.9.0
 _ZTSN5Katie26QDeclarativeStateOperationE@Base 4.9.0
 _ZTSN5Katie27QDeclarativeAbstractBindingE@Base 4.9.0
 _ZTSN5Katie27QDeclarativeExtensionPluginE@Base 4.9.0
 _ZTSN5Katie27QDeclarativePropertyChangesE@Base 4.9.0
 _ZTSN5Katie27QDeclarativePropertyPrivateE@Base 4.9.0
 _ZTSN5Katie29QDeclarativeAbstractAnimationE@Base 4.9.0
 _ZTSN5Katie30QDeclarativeExtensionInterfaceE@Base 4.9.0
 _ZTSN5Katie30QDeclarativeOpenMetaObjectTypeE@Base 4.9.0
 _ZTSN5Katie31QDeclarativePropertyValueSourceE@Base 4.9.0
 _ZTSN5Katie36QDeclarativePropertyValueInterceptorE@Base 4.9.0
 _ZTSN5Katie39QDeclarativeNetworkAccessManagerFactoryE@Base 4.9.0
 _ZTVN5Katie15QDeclarativePenE@Base 4.9.0
 _ZTVN5Katie16QDeclarativeItemE@Base 4.9.0
 _ZTVN5Katie16QDeclarativeTextE@Base 4.9.0
 _ZTVN5Katie16QDeclarativeViewE@Base 4.9.0
 _ZTVN5Katie17QDeclarativeStateE@Base 4.9.0
 _ZTVN5Katie17QDeclarativeTimerE@Base 4.9.0
 _ZTVN5Katie18QDeclarativeEngineE@Base 4.9.0
 _ZTVN5Katie18QMetaObjectBuilderE@Base 4.9.0
 _ZTVN5Katie19QDeclarativeAnchorsE@Base 4.9.0
 _ZTVN5Katie19QDeclarativeBindingE@Base 4.9.0
 _ZTVN5Katie19QDeclarativeContextE@Base 4.9.0
 _ZTVN5Katie19QListModelInterfaceE@Base 4.9.0
 _ZTVN5Katie20QDeclarativeBehaviorE@Base 4.9.0
 _ZTVN5Katie20QDeclarativeRefCountE@Base 4.9.0
 _ZTVN5Katie20QGraphicsViewPrivateE@Base 4.9.0
 _ZTVN5Katie21QDeclarativeComponentE@Base 4.9.0
 _ZTVN5Katie21QDeclarativeListModelE@Base 4.9.0
 _ZTVN5Katie21QDeclarativeRectangleE@Base 4.9.0
 _ZTVN5Katie21QDeclarativeScaleGridE@Base 4.9.0
 _ZTVN5Katie21QDeclarativeValueTypeE@Base 4.9.0
 _ZTVN5Katie22QDeclarativeExpressionE@Base 4.9.0
 _ZTVN5Katie22QDeclarativeStateGroupE@Base 4.9.0
 _ZTVN5Katie22QDeclarativeTransitionE@Base 4.9.0
 _ZTVN5Katie23QDeclarativeApplicationE@Base 4.9.0
 _ZTVN5Katie23QDeclarativeItemPrivateE@Base 4.9.0
 _ZTVN5Katie23QDeclarativePropertyMapE@Base 4.9.0
 _ZTVN5Katie24QDeclarativeCustomParserE@Base 4.9.0
 _ZTVN5Katie24QDeclarativeParentChangeE@Base 4.9.0
 _ZTVN5Katie24QDeclarativeParserStatusE@Base 4.9.0
 _ZTVN5Katie24QDeclarativeScriptActionE@Base 4.9.0
 _ZTVN5Katie25QDeclarativeAnchorChangesE@Base 4.9.0
 _ZTVN5Katie25QDeclarativeImageProviderE@Base 4.9.0
 _ZTVN5Katie26QAbstractDynamicMetaObjectE@Base 4.9.0
 _ZTVN5Katie26QDeclarativeBasePositionerE@Base 4.9.0
 _ZTVN5Katie26QDeclarativeOpenMetaObjectE@Base 4.9.0
 _ZTVN5Katie26QDeclarativeStateOperationE@Base 4.9.0
 _ZTVN5Katie27QDeclarativeAbstractBindingE@Base 4.9.0
 _ZTVN5Katie27QDeclarativeExtensionPluginE@Base 4.9.0
 _ZTVN5Katie27QDeclarativePropertyChangesE@Base 4.9.0
 _ZTVN5Katie27QDeclarativePropertyPrivateE@Base 4.9.0
 _ZTVN5Katie29QDeclarativeAbstractAnimationE@Base 4.9.0
 _ZTVN5Katie30QDeclarativeOpenMetaObjectTypeE@Base 4.9.0
 _ZTVN5Katie31QDeclarativePropertyValueSourceE@Base 4.9.0
 _ZTVN5Katie36QDeclarativePropertyValueInterceptorE@Base 4.9.0
 _ZTVN5Katie39QDeclarativeNetworkAccessManagerFactoryE@Base 4.9.0
 _ZThn12_N5Katie24QDeclarativeScriptActionD0Ev@Base 4.9.0
 _ZThn12_N5Katie24QDeclarativeScriptActionD1Ev@Base 4.9.0
 _ZThn12_N5Katie29QDeclarativeAbstractAnimation10classBeginEv@Base 4.9.0
 _ZThn12_N5Katie29QDeclarativeAbstractAnimation17componentCompleteEv@Base 4.9.0
 _ZThn12_N5Katie29QDeclarativeAbstractAnimationD0Ev@Base 4.9.0
 _ZThn12_N5Katie29QDeclarativeAbstractAnimationD1Ev@Base 4.9.0
 _ZThn16_N5Katie16QDeclarativeItem10classBeginEv@Base 4.9.0
 _ZThn16_N5Katie16QDeclarativeItem17componentCompleteEv@Base 4.9.0
 _ZThn16_N5Katie16QDeclarativeItemD0Ev@Base 4.9.0
 _ZThn16_N5Katie16QDeclarativeItemD1Ev@Base 4.9.0
 _ZThn16_N5Katie16QDeclarativeText17componentCompleteEv@Base 4.9.0
 _ZThn16_N5Katie16QDeclarativeTextD0Ev@Base 4.9.0
 _ZThn16_N5Katie16QDeclarativeTextD1Ev@Base 4.9.0
 _ZThn16_N5Katie26QDeclarativeBasePositioner17componentCompleteEv@Base 4.9.0
 _ZThn16_N5Katie26QDeclarativeBasePositionerD0Ev@Base 4.9.0
 _ZThn16_N5Katie26QDeclarativeBasePositionerD1Ev@Base 4.9.0
 _ZThn8_N5Katie16QDeclarativeItem10itemChangeENS_13QGraphicsItem18GraphicsItemChangeERKNS_8QVariantE@Base 4.9.0
 _ZThn8_N5Katie16QDeclarativeItem10sceneEventEPNS_6QEventE@Base 4.9.0
 _ZThn8_N5Katie16QDeclarativeItem13keyPressEventEPNS_9QKeyEventE@Base 4.9.0
 _ZThn8_N5Katie16QDeclarativeItem15keyReleaseEventEPNS_9QKeyEventE@Base 4.9.0
 _ZThn8_N5Katie16QDeclarativeItem5paintEPNS_8QPainterEPKNS_24QStyleOptionGraphicsItemEPNS_7QWidgetE@Base 4.9.0
 _ZThn8_N5Katie16QDeclarativeItemD0Ev@Base 4.9.0
 _ZThn8_N5Katie16QDeclarativeItemD1Ev@Base 4.9.0
 _ZThn8_N5Katie16QDeclarativeText15mousePressEventEPNS_24QGraphicsSceneMouseEventE@Base 4.9.0
 _ZThn8_N5Katie16QDeclarativeText17mouseReleaseEventEPNS_24QGraphicsSceneMouseEventE@Base 4.9.0
 _ZThn8_N5Katie16QDeclarativeText5paintEPNS_8QPainterEPKNS_24QStyleOptionGraphicsItemEPNS_7QWidgetE@Base 4.9.0
 _ZThn8_N5Katie16QDeclarativeTextD0Ev@Base 4.9.0
 _ZThn8_N5Katie16QDeclarativeTextD1Ev@Base 4.9.0
 _ZThn8_N5Katie16QDeclarativeViewD0Ev@Base 4.9.0
 _ZThn8_N5Katie16QDeclarativeViewD1Ev@Base 4.9.0
 _ZThn8_N5Katie17QDeclarativeTimer10classBeginEv@Base 4.9.0
 _ZThn8_N5Katie17QDeclarativeTimer17componentCompleteEv@Base 4.9.0
 _ZThn8_N5Katie19QDeclarativeBinding10disconnectENS_27QDeclarativeAbstractBinding14DisconnectModeE@Base 4.9.0
 _ZThn8_N5Katie19QDeclarativeBinding10setEnabledEbNS_6QFlagsINS_27QDeclarativePropertyPrivate9WriteFlagEEE@Base 4.9.0
 _ZThn8_N5Katie19QDeclarativeBinding6updateENS_6QFlagsINS_27QDeclarativePropertyPrivate9WriteFlagEEE@Base 4.9.0
 _ZThn8_N5Katie19QDeclarativeBindingD0Ev@Base 4.9.0
 _ZThn8_N5Katie19QDeclarativeBindingD1Ev@Base 4.9.0
 _ZThn8_N5Katie20QDeclarativeBehavior5writeERKNS_8QVariantE@Base 4.9.0
 _ZThn8_N5Katie20QDeclarativeBehavior9setTargetERKNS_20QDeclarativePropertyE@Base 4.9.0
 _ZThn8_N5Katie20QDeclarativeBehaviorD0Ev@Base 4.9.0
 _ZThn8_N5Katie20QDeclarativeBehaviorD1Ev@Base 4.9.0
 _ZThn8_N5Katie21QDeclarativeRectangle5paintEPNS_8QPainterEPKNS_24QStyleOptionGraphicsItemEPNS_7QWidgetE@Base 4.9.0
 _ZThn8_N5Katie22QDeclarativeStateGroup10classBeginEv@Base 4.9.0
 _ZThn8_N5Katie22QDeclarativeStateGroup17componentCompleteEv@Base 4.9.0
 _ZThn8_N5Katie22QDeclarativeStateGroupD0Ev@Base 4.9.0
 _ZThn8_N5Katie22QDeclarativeStateGroupD1Ev@Base 4.9.0
 _ZThn8_N5Katie24QDeclarativeParentChange12isReversableEv@Base 4.9.0
 _ZThn8_N5Katie24QDeclarativeParentChange13saveOriginalsEv@Base 4.9.0
 _ZThn8_N5Katie24QDeclarativeParentChange17saveCurrentValuesEv@Base 4.9.0
 _ZThn8_N5Katie24QDeclarativeParentChange6rewindEv@Base 4.9.0
 _ZThn8_N5Katie24QDeclarativeParentChange7executeENS_23QDeclarativeActionEvent6ReasonE@Base 4.9.0
 _ZThn8_N5Katie24QDeclarativeParentChange7reverseENS_23QDeclarativeActionEvent6ReasonE@Base 4.9.0
 _ZThn8_N5Katie24QDeclarativeParentChange8overrideEPNS_23QDeclarativeActionEventE@Base 4.9.0
 _ZThn8_N5Katie24QDeclarativeParentChangeD0Ev@Base 4.9.0
 _ZThn8_N5Katie24QDeclarativeParentChangeD1Ev@Base 4.9.0
 _ZThn8_N5Katie24QDeclarativeScriptActionD0Ev@Base 4.9.0
 _ZThn8_N5Katie24QDeclarativeScriptActionD1Ev@Base 4.9.0
 _ZThn8_N5Katie25QDeclarativeAnchorChanges12isReversableEv@Base 4.9.0
 _ZThn8_N5Katie25QDeclarativeAnchorChanges13clearBindingsEv@Base 4.9.0
 _ZThn8_N5Katie25QDeclarativeAnchorChanges13copyOriginalsEPNS_23QDeclarativeActionEventE@Base 4.9.0
 _ZThn8_N5Katie25QDeclarativeAnchorChanges13saveOriginalsEv@Base 4.9.0
 _ZThn8_N5Katie25QDeclarativeAnchorChanges15changesBindingsEv@Base 4.9.0
 _ZThn8_N5Katie25QDeclarativeAnchorChanges16saveTargetValuesEv@Base 4.9.0
 _ZThn8_N5Katie25QDeclarativeAnchorChanges17saveCurrentValuesEv@Base 4.9.0
 _ZThn8_N5Katie25QDeclarativeAnchorChanges6rewindEv@Base 4.9.0
 _ZThn8_N5Katie25QDeclarativeAnchorChanges7executeENS_23QDeclarativeActionEvent6ReasonE@Base 4.9.0
 _ZThn8_N5Katie25QDeclarativeAnchorChanges7reverseENS_23QDeclarativeActionEvent6ReasonE@Base 4.9.0
 _ZThn8_N5Katie25QDeclarativeAnchorChanges8overrideEPNS_23QDeclarativeActionEventE@Base 4.9.0
 _ZThn8_N5Katie25QDeclarativeAnchorChangesD0Ev@Base 4.9.0
 _ZThn8_N5Katie25QDeclarativeAnchorChangesD1Ev@Base 4.9.0
 _ZThn8_N5Katie26QDeclarativeBasePositioner10itemChangeENS_13QGraphicsItem18GraphicsItemChangeERKNS_8QVariantE@Base 4.9.0
 _ZThn8_N5Katie26QDeclarativeBasePositionerD0Ev@Base 4.9.0
 _ZThn8_N5Katie26QDeclarativeBasePositionerD1Ev@Base 4.9.0
 _ZThn8_N5Katie27QDeclarativeExtensionPlugin16initializeEngineEPNS_18QDeclarativeEngineEPKc@Base 4.9.0
 _ZThn8_N5Katie27QDeclarativeExtensionPluginD0Ev@Base 4.9.0
 _ZThn8_N5Katie27QDeclarativeExtensionPluginD1Ev@Base 4.9.0
 _ZThn8_N5Katie29QDeclarativeAbstractAnimation9setTargetERKNS_20QDeclarativePropertyE@Base 4.9.0
 _ZThn8_N5Katie29QDeclarativeAbstractAnimationD0Ev@Base 4.9.0
 _ZThn8_N5Katie29QDeclarativeAbstractAnimationD1Ev@Base 4.9.0
 _ZThn8_NK5Katie16QDeclarativeItem12boundingRectEv@Base 4.9.0
 _ZThn8_NK5Katie16QDeclarativeText12boundingRectEv@Base 4.9.0
 _ZThn8_NK5Katie19QDeclarativeBinding10expressionEv@Base 4.9.0
 _ZThn8_NK5Katie21QDeclarativeRectangle12boundingRectEv@Base 4.9.0
 _ZThn8_NK5Katie24QDeclarativeParentChange8typeNameEv@Base 4.9.0
 _ZThn8_NK5Katie25QDeclarativeAnchorChanges8typeNameEv@Base 4.9.0
libKtDesigner.so.4.9.0 katie-git #MINVER#
 _ZN5Katie13QDesignerMenu10paintEventEPNS_11QPaintEventE@Base 4.9.0
 _ZN5Katie13QDesignerMenu10setVisibleEb@Base 4.9.0
 _ZN5Katie13QDesignerMenu11actionEventEPNS_12QActionEventE@Base 4.9.0
 _ZN5Katie13QDesignerMenu11eventFilterEPNS_7QObjectEPNS_6QEventE@Base 4.9.0
 _ZN5Katie13QDesignerMenu11handleEventEPNS_7QWidgetEPNS_6QEventE@Base 4.9.0
 _ZN5Katie13QDesignerMenu11hideSubMenuEv@Base 4.9.0
 _ZN5Katie13QDesignerMenu11interactiveEb@Base 4.9.0
 _ZN5Katie13QDesignerMenu11qt_metacallENS_11QMetaObject4CallEiPPv@Base 4.9.0
 _ZN5Katie13QDesignerMenu11qt_metacastEPKc@Base 4.9.0
 _ZN5Katie13QDesignerMenu11showSubMenuEPNS_7QActionE@Base 4.9.0
 _ZN5Katie13QDesignerMenu12createActionERKNS_7QStringEb@Base 4.9.0
 _ZN5Katie13QDesignerMenu12deleteActionEPNS_7QActionE@Base 4.9.0
 _ZN5Katie13QDesignerMenu12deleteActionEv@Base 4.9.0
 _ZN5Katie13QDesignerMenu12showLineEditEv@Base 4.9.0
 _ZN5Katie13QDesignerMenu13dragMoveEventEPNS_14QDragMoveEventE@Base 4.9.0
 _ZN5Katie13QDesignerMenu13drawSelectionEPNS_8QPainterERKNS_5QRectE@Base 4.9.0
 _ZN5Katie13QDesignerMenu13enterEditModeEv@Base 4.9.0
 _ZN5Katie13QDesignerMenu13keyPressEventEPNS_9QKeyEventE@Base 4.9.0
 _ZN5Katie13QDesignerMenu13leaveEditModeENS0_13LeaveEditModeE@Base 4.9.0
 _ZN5Katie13QDesignerMenu14actionProviderEv@Base 4.9.0
 _ZN5Katie13QDesignerMenu14closeMenuChainEv@Base 4.9.0
 _ZN5Katie13QDesignerMenu14deactivateMenuEv@Base 4.9.0
 _ZN5Katie13QDesignerMenu14dragEnterEventEPNS_15QDragEnterEventE@Base 4.9.0
 _ZN5Katie13QDesignerMenu14dragLeaveEventEPNS_15QDragLeaveEventE@Base 4.9.0
 _ZN5Katie13QDesignerMenu14removeRealMenuEPNS_7QActionE@Base 4.9.0
 _ZN5Katie13QDesignerMenu15adjustIndicatorERKNS_6QPointE@Base 4.9.0
 _ZN5Katie13QDesignerMenu15keyReleaseEventEPNS_9QKeyEventE@Base 4.9.0
 _ZN5Katie13QDesignerMenu16slotAddSeparatorEv@Base 4.9.0
 _ZN5Katie13QDesignerMenu16staticMetaObjectE@Base 4.9.0
 _ZN5Katie13QDesignerMenu17slotAdjustSizeNowEv@Base 4.9.0
 _ZN5Katie13QDesignerMenu17slotDeactivateNowEv@Base 4.9.0
 _ZN5Katie13QDesignerMenu18slotShowSubMenuNowEv@Base 4.9.0
 _ZN5Katie13QDesignerMenu19findOrCreateSubMenuEPNS_7QActionE@Base 4.9.0
 _ZN5Katie13QDesignerMenu19getStaticMetaObjectEv@Base 4.9.0
 _ZN5Katie13QDesignerMenu19handleKeyPressEventEPNS_7QWidgetEPNS_9QKeyEventE@Base 4.9.0
 _ZN5Katie13QDesignerMenu19selectCurrentActionEv@Base 4.9.0
 _ZN5Katie13QDesignerMenu20adjustSpecialActionsEv@Base 4.9.0
 _ZN5Katie13QDesignerMenu20createRealMenuActionEPNS_7QActionE@Base 4.9.0
 _ZN5Katie13QDesignerMenu20handleMouseMoveEventEPNS_7QWidgetEPNS_11QMouseEventE@Base 4.9.0
 _ZN5Katie13QDesignerMenu21handleMousePressEventEPNS_7QWidgetEPNS_11QMouseEventE@Base 4.9.0
 _ZN5Katie13QDesignerMenu22handleContextMenuEventEPNS_7QWidgetEPNS_17QContextMenuEventE@Base 4.9.0
 _ZN5Katie13QDesignerMenu22hideSubMenuOnCursorKeyEv@Base 4.9.0
 _ZN5Katie13QDesignerMenu22showSubMenuOnCursorKeyEv@Base 4.9.0
 _ZN5Katie13QDesignerMenu23handleMouseReleaseEventEPNS_7QWidgetEPNS_11QMouseEventE@Base 4.9.0
 _ZN5Katie13QDesignerMenu24slotRemoveSelectedActionEv@Base 4.9.0
 _ZN5Katie13QDesignerMenu27handleMouseDoubleClickEventEPNS_7QWidgetEPNS_11QMouseEventE@Base 4.9.0
 _ZN5Katie13QDesignerMenu4swapEii@Base 4.9.0
 _ZN5Katie13QDesignerMenu6moveUpEb@Base 4.9.0
 _ZN5Katie13QDesignerMenu8moveDownEb@Base 4.9.0
 _ZN5Katie13QDesignerMenu8moveLeftEv@Base 4.9.0
 _ZN5Katie13QDesignerMenu9dropEventEPNS_10QDropEventE@Base 4.9.0
 _ZN5Katie13QDesignerMenu9moveRightEv@Base 4.9.0
 _ZN5Katie13QDesignerMenu9showEventEPNS_10QShowEventE@Base 4.9.0
 _ZN5Katie13QDesignerMenu9startDragERKNS_6QPointENS_6QFlagsINS_2Qt16KeyboardModifierEEE@Base 4.9.0
 _ZN5Katie13QDesignerMenuC1EPNS_7QWidgetE@Base 4.9.0
 _ZN5Katie13QDesignerMenuC2EPNS_7QWidgetE@Base 4.9.0
 _ZN5Katie13QDesignerMenuD0Ev@Base 4.9.0
 _ZN5Katie13QDesignerMenuD1Ev@Base 4.9.0
 _ZN5Katie13QDesignerMenuD2Ev@Base 4.9.0
 _ZN5Katie13QLayoutWidget10paintEventEPNS_11QPaintEventE@Base 4.9.0
 _ZN5Katie13QLayoutWidget11qt_metacallENS_11QMetaObject4CallEiPPv@Base 4.9.0
 _ZN5Katie13QLayoutWidget11qt_metacastEPKc@Base 4.9.0
 _ZN5Katie13QLayoutWidget16staticMetaObjectE@Base 4.9.0
 _ZN5Katie13QLayoutWidget18setLayoutTopMarginEi@Base 4.9.0
 _ZN5Katie13QLayoutWidget19getStaticMetaObjectEv@Base 4.9.0
 _ZN5Katie13QLayoutWidget19setLayoutLeftMarginEi@Base 4.9.0
 _ZN5Katie13QLayoutWidget20setLayoutRightMarginEi@Base 4.9.0
 _ZN5Katie13QLayoutWidget21setLayoutBottomMarginEi@Base 4.9.0
 _ZN5Katie13QLayoutWidget5eventEPNS_6QEventE@Base 4.9.0
 _ZN5Katie13QLayoutWidgetC1EPNS_28QDesignerFormWindowInterfaceEPNS_7QWidgetE@Base 4.9.0
 _ZN5Katie13QLayoutWidgetC2EPNS_28QDesignerFormWindowInterfaceEPNS_7QWidgetE@Base 4.9.0
 _ZN5Katie13QtResourceSet11setModifiedERKNS_7QStringE@Base 4.9.0
 _ZN5Katie13QtResourceSet16activateQrcPathsERKNS_11QStringListEPiPNS_7QStringE@Base 4.9.0
 _ZN5Katie13QtResourceSetC1EPNS_15QtResourceModelE@Base 4.9.0
 _ZN5Katie13QtResourceSetC1Ev@Base 4.9.0
 _ZN5Katie13QtResourceSetC2EPNS_15QtResourceModelE@Base 4.9.0
 _ZN5Katie13QtResourceSetC2Ev@Base 4.9.0
 _ZN5Katie13QtResourceSetD1Ev@Base 4.9.0
 _ZN5Katie13QtResourceSetD2Ev@Base 4.9.0
 _ZN5Katie14QToolBoxHelper11changeOrderEv@Base 4.9.0
 _ZN5Katie14QToolBoxHelper11eventFilterEPNS_7QObjectEPNS_6QEventE@Base 4.9.0
 _ZN5Katie14QToolBoxHelper11qt_metacallENS_11QMetaObject4CallEiPPv@Base 4.9.0
 _ZN5Katie14QToolBoxHelper11qt_metacastEPKc@Base 4.9.0
 _ZN5Katie14QToolBoxHelper12addPageAfterEv@Base 4.9.0
 _ZN5Katie14QToolBoxHelper16staticMetaObjectE@Base 4.9.0
 _ZN5Katie14QToolBoxHelper17removeCurrentPageEv@Base 4.9.0
 _ZN5Katie14QToolBoxHelper19getStaticMetaObjectEv@Base 4.9.0
 _ZN5Katie14QToolBoxHelper28addToolBoxContextMenuActionsEPKNS_8QToolBoxEPNS_5QMenuE@Base 4.9.0
 _ZN5Katie14QToolBoxHelper28setCurrentItemBackgroundRoleENS_8QPalette9ColorRoleE@Base 4.9.0
 _ZN5Katie14QToolBoxHelper7addPageEv@Base 4.9.0
 _ZN5Katie14QToolBoxHelper7installEPNS_8QToolBoxE@Base 4.9.0
 _ZN5Katie14QToolBoxHelper8helperOfEPKNS_8QToolBoxE@Base 4.9.0
 _ZN5Katie14QToolBoxHelperC1EPNS_8QToolBoxE@Base 4.9.0
 _ZN5Katie14QToolBoxHelperC2EPNS_8QToolBoxE@Base 4.9.0
 _ZN5Katie14QtResourceView11qt_metacallENS_11QMetaObject4CallEiPPv@Base 4.9.0
 _ZN5Katie14QtResourceView11qt_metacastEPKc@Base 4.9.0
 _ZN5Katie14QtResourceView14decodeMimeDataEPKNS_9QMimeDataEPNS0_12ResourceTypeEPNS_7QStringE@Base 4.9.0
 _ZN5Katie14QtResourceView14decodeMimeDataERKNS_7QStringEPNS0_12ResourceTypeEPS1_@Base 4.9.0
 _ZN5Katie14QtResourceView14encodeMimeDataENS0_12ResourceTypeERKNS_7QStringE@Base 4.9.0
 _ZN5Katie14QtResourceView14selectResourceERKNS_7QStringE@Base 4.9.0
 _ZN5Katie14QtResourceView14setDragEnabledEb@Base 4.9.0
 _ZN5Katie14QtResourceView14setSettingsKeyERKNS_7QStringE@Base 4.9.0
 _ZN5Katie14QtResourceView16resourceSelectedERKNS_7QStringE@Base 4.9.0
 _ZN5Katie14QtResourceView16setResourceModelEPNS_15QtResourceModelE@Base 4.9.0
 _ZN5Katie14QtResourceView16staticMetaObjectE@Base 4.9.0
 _ZN5Katie14QtResourceView17resourceActivatedERKNS_7QStringE@Base 4.9.0
 _ZN5Katie14QtResourceView19getStaticMetaObjectEv@Base 4.9.0
 _ZN5Katie14QtResourceView25setResourceEditingEnabledEb@Base 4.9.0
 _ZN5Katie14QtResourceView5eventEPNS_6QEventE@Base 4.9.0
 _ZN5Katie14QtResourceViewC1EPNS_28QDesignerFormEditorInterfaceEPNS_7QWidgetE@Base 4.9.0
 _ZN5Katie14QtResourceViewC2EPNS_28QDesignerFormEditorInterfaceEPNS_7QWidgetE@Base 4.9.0
 _ZN5Katie14QtResourceViewD0Ev@Base 4.9.0
 _ZN5Katie14QtResourceViewD1Ev@Base 4.9.0
 _ZN5Katie14QtResourceViewD2Ev@Base 4.9.0
 _ZN5Katie15QDesignerDialog10paintEventEPNS_11QPaintEventE@Base 4.9.0
 _ZN5Katie15QDesignerDialog11qt_metacallENS_11QMetaObject4CallEiPPv@Base 4.9.0
 _ZN5Katie15QDesignerDialog11qt_metacastEPKc@Base 4.9.0
 _ZN5Katie15QDesignerDialog16staticMetaObjectE@Base 4.9.0
 _ZN5Katie15QDesignerDialog19getStaticMetaObjectEv@Base 4.9.0
 _ZN5Katie15QDesignerDialogC1EPNS_28QDesignerFormWindowInterfaceEPNS_7QWidgetE@Base 4.9.0
 _ZN5Katie15QDesignerDialogC2EPNS_28QDesignerFormWindowInterfaceEPNS_7QWidgetE@Base 4.9.0
 _ZN5Katie15QDesignerWidget10paintEventEPNS_11QPaintEventE@Base 4.9.0
 _ZN5Katie15QDesignerWidget11qt_metacallENS_11QMetaObject4CallEiPPv@Base 4.9.0
 _ZN5Katie15QDesignerWidget11qt_metacastEPKc@Base 4.9.0
 _ZN5Katie15QDesignerWidget16staticMetaObjectE@Base 4.9.0
 _ZN5Katie15QDesignerWidget19getStaticMetaObjectEv@Base 4.9.0
 _ZN5Katie15QDesignerWidgetC1EPNS_28QDesignerFormWindowInterfaceEPNS_7QWidgetE@Base 4.9.0
 _ZN5Katie15QDesignerWidgetC2EPNS_28QDesignerFormWindowInterfaceEPNS_7QWidgetE@Base 4.9.0
 _ZN5Katie15QDesignerWidgetD0Ev@Base 4.9.0
 _ZN5Katie15QDesignerWidgetD1Ev@Base 4.9.0
 _ZN5Katie15QDesignerWidgetD2Ev@Base 4.9.0
 _ZN5Katie15QtResourceModel11qt_metacallENS_11QMetaObject4CallEiPPv@Base 4.9.0
 _ZN5Katie15QtResourceModel11qt_metacastEPKc@Base 4.9.0
 _ZN5Katie15QtResourceModel11setModifiedERKNS_7QStringE@Base 4.9.0
 _ZN5Katie15QtResourceModel14addResourceSetERKNS_11QStringListE@Base 4.9.0
 _ZN5Katie15QtResourceModel16isWatcherEnabledERKNS_7QStringE@Base 4.9.0
 _ZN5Katie15QtResourceModel16staticMetaObjectE@Base 4.9.0
 _ZN5Katie15QtResourceModel17removeResourceSetEPNS_13QtResourceSetE@Base 4.9.0
 _ZN5Katie15QtResourceModel17setWatcherEnabledERKNS_7QStringEb@Base 4.9.0
 _ZN5Katie15QtResourceModel17setWatcherEnabledEb@Base 4.9.0
 _ZN5Katie15QtResourceModel19getStaticMetaObjectEv@Base 4.9.0
 _ZN5Katie15QtResourceModel20resourceSetActivatedEPNS_13QtResourceSetEb@Base 4.9.0
 _ZN5Katie15QtResourceModel21setCurrentResourceSetEPNS_13QtResourceSetEPiPNS_7QStringE@Base 4.9.0
 _ZN5Katie15QtResourceModel25qrcFileModifiedExternallyERKNS_7QStringE@Base 4.9.0
 _ZN5Katie15QtResourceModel6reloadEPiPNS_7QStringE@Base 4.9.0
 _ZN5Katie15QtResourceModel6reloadERKNS_7QStringEPiPS1_@Base 4.9.0
 _ZN5Katie15QtResourceModelC1EPNS_7QObjectE@Base 4.9.0
 _ZN5Katie15QtResourceModelC2EPNS_7QObjectE@Base 4.9.0
 _ZN5Katie15QtResourceModelD0Ev@Base 4.9.0
 _ZN5Katie15QtResourceModelD1Ev@Base 4.9.0
 _ZN5Katie15QtResourceModelD2Ev@Base 4.9.0
 _ZN5Katie16QDesignerMenuBar10deleteMenuEv@Base 4.9.0
 _ZN5Katie16QDesignerMenuBar10paintEventEPNS_11QPaintEventE@Base 4.9.0
 _ZN5Katie16QDesignerMenuBar11actionEventEPNS_12QActionEventE@Base 4.9.0
 _ZN5Katie16QDesignerMenuBar11eventFilterEPNS_7QObjectEPNS_6QEventE@Base 4.9.0
 _ZN5Katie16QDesignerMenuBar11handleEventEPNS_7QWidgetEPNS_6QEventE@Base 4.9.0
 _ZN5Katie16QDesignerMenuBar11interactiveEb@Base 4.9.0
 _ZN5Katie16QDesignerMenuBar11qt_metacallENS_11QMetaObject4CallEiPPv@Base 4.9.0
 _ZN5Katie16QDesignerMenuBar11qt_metacastEPKc@Base 4.9.0
 _ZN5Katie16QDesignerMenuBar11swapActionsEii@Base 4.9.0
 _ZN5Katie16QDesignerMenuBar12movePreviousEb@Base 4.9.0
 _ZN5Katie16QDesignerMenuBar12showLineEditEv@Base 4.9.0
 _ZN5Katie16QDesignerMenuBar13dragMoveEventEPNS_14QDragMoveEventE@Base 4.9.0
 _ZN5Katie16QDesignerMenuBar13enterEditModeEv@Base 4.9.0
 _ZN5Katie16QDesignerMenuBar13focusOutEventEPNS_11QFocusEventE@Base 4.9.0
 _ZN5Katie16QDesignerMenuBar13keyPressEventEPNS_9QKeyEventE@Base 4.9.0
 _ZN5Katie16QDesignerMenuBar13leaveEditModeENS0_13LeaveEditModeE@Base 4.9.0
 _ZN5Katie16QDesignerMenuBar14actionProviderEv@Base 4.9.0
 _ZN5Katie16QDesignerMenuBar14dragEnterEventEPNS_15QDragEnterEventE@Base 4.9.0
 _ZN5Katie16QDesignerMenuBar14dragLeaveEventEPNS_15QDragLeaveEventE@Base 4.9.0
 _ZN5Katie16QDesignerMenuBar15adjustIndicatorERKNS_6QPointE@Base 4.9.0
 _ZN5Katie16QDesignerMenuBar15keyReleaseEventEPNS_9QKeyEventE@Base 4.9.0
 _ZN5Katie16QDesignerMenuBar16deleteMenuActionEPNS_7QActionE@Base 4.9.0
 _ZN5Katie16QDesignerMenuBar16staticMetaObjectE@Base 4.9.0
 _ZN5Katie16QDesignerMenuBar17slotRemoveMenuBarEv@Base 4.9.0
 _ZN5Katie16QDesignerMenuBar18contextMenuActionsEv@Base 4.9.0
 _ZN5Katie16QDesignerMenuBar19getStaticMetaObjectEv@Base 4.9.0
 _ZN5Katie16QDesignerMenuBar19handleKeyPressEventEPNS_7QWidgetEPNS_9QKeyEventE@Base 4.9.0
 _ZN5Katie16QDesignerMenuBar19updateCurrentActionEb@Base 4.9.0
 _ZN5Katie16QDesignerMenuBar20adjustSpecialActionsEv@Base 4.9.0
 _ZN5Katie16QDesignerMenuBar20handleMouseMoveEventEPNS_7QWidgetEPNS_11QMouseEventE@Base 4.9.0
 _ZN5Katie16QDesignerMenuBar21handleMousePressEventEPNS_7QWidgetEPNS_11QMouseEventE@Base 4.9.0
 _ZN5Katie16QDesignerMenuBar22handleContextMenuEventEPNS_7QWidgetEPNS_17QContextMenuEventE@Base 4.9.0
 _ZN5Katie16QDesignerMenuBar23handleMouseReleaseEventEPNS_7QWidgetEPNS_11QMouseEventE@Base 4.9.0
 _ZN5Katie16QDesignerMenuBar27handleMouseDoubleClickEventEPNS_7QWidgetEPNS_11QMouseEventE@Base 4.9.0
 _ZN5Katie16QDesignerMenuBar6moveUpEv@Base 4.9.0
 _ZN5Katie16QDesignerMenuBar8hideMenuEi@Base 4.9.0
 _ZN5Katie16QDesignerMenuBar8moveDownEv@Base 4.9.0
 _ZN5Katie16QDesignerMenuBar8moveLeftEb@Base 4.9.0
 _ZN5Katie16QDesignerMenuBar8moveNextEb@Base 4.9.0
 _ZN5Katie16QDesignerMenuBar8showMenuEi@Base 4.9.0
 _ZN5Katie16QDesignerMenuBar9dropEventEPNS_10QDropEventE@Base 4.9.0
 _ZN5Katie16QDesignerMenuBar9moveRightEb@Base 4.9.0
 _ZN5Katie16QDesignerMenuBar9startDragERKNS_6QPointE@Base 4.9.0
 _ZN5Katie16QDesignerMenuBarC1EPNS_7QWidgetE@Base 4.9.0
 _ZN5Katie16QDesignerMenuBarC2EPNS_7QWidgetE@Base 4.9.0
 _ZN5Katie16QDesignerMenuBarD0Ev@Base 4.9.0
 _ZN5Katie16QDesignerMenuBarD1Ev@Base 4.9.0
 _ZN5Katie16QDesignerMenuBarD2Ev@Base 4.9.0
 _ZN5Katie17QExtensionFactory11qt_metacallENS_11QMetaObject4CallEiPPv@Base 4.9.0
 _ZN5Katie17QExtensionFactory11qt_metacastEPKc@Base 4.9.0
 _ZN5Katie17QExtensionFactory15objectDestroyedEPNS_7QObjectE@Base 4.9.0
 _ZN5Katie17QExtensionFactory16staticMetaObjectE@Base 4.9.0
 _ZN5Katie17QExtensionFactory19getStaticMetaObjectEv@Base 4.9.0
 _ZN5Katie17QExtensionFactoryC1EPNS_17QExtensionManagerE@Base 4.9.0
 _ZN5Katie17QExtensionFactoryC2EPNS_17QExtensionManagerE@Base 4.9.0
 _ZN5Katie17QExtensionManager11qt_metacallENS_11QMetaObject4CallEiPPv@Base 4.9.0
 _ZN5Katie17QExtensionManager11qt_metacastEPKc@Base 4.9.0
 _ZN5Katie17QExtensionManager16staticMetaObjectE@Base 4.9.0
 _ZN5Katie17QExtensionManager18registerExtensionsEPNS_25QAbstractExtensionFactoryERKNS_7QStringE@Base 4.9.0
 _ZN5Katie17QExtensionManager19getStaticMetaObjectEv@Base 4.9.0
 _ZN5Katie17QExtensionManager20unregisterExtensionsEPNS_25QAbstractExtensionFactoryERKNS_7QStringE@Base 4.9.0
 _ZN5Katie17QExtensionManagerC1EPNS_7QObjectE@Base 4.9.0
 _ZN5Katie17QExtensionManagerC2EPNS_7QObjectE@Base 4.9.0
 _ZN5Katie17QExtensionManagerD0Ev@Base 4.9.0
 _ZN5Katie17QExtensionManagerD1Ev@Base 4.9.0
 _ZN5Katie17QExtensionManagerD2Ev@Base 4.9.0
 _ZN5Katie18QDesignerQSettings10beginGroupERKNS_7QStringE@Base 4.9.0
 _ZN5Katie18QDesignerQSettings23settingsApplicationNameEv@Base 4.9.0
 _ZN5Katie18QDesignerQSettings6removeERKNS_7QStringE@Base 4.9.0
 _ZN5Katie18QDesignerQSettings8endGroupEv@Base 4.9.0
 _ZN5Katie18QDesignerQSettings8setValueERKNS_7QStringERKNS_8QVariantE@Base 4.9.0
 _ZN5Katie18QDesignerQSettingsC1Ev@Base 4.9.0
 _ZN5Katie18QDesignerQSettingsC2Ev@Base 4.9.0
 _ZN5Katie18qdesigner_internal10CodeDialog10slotSaveAsEv@Base 4.9.0
 _ZN5Katie18qdesigner_internal10CodeDialog11qt_metacallENS_11QMetaObject4CallEiPPv@Base 4.9.0
 _ZN5Katie18qdesigner_internal10CodeDialog11qt_metacastEPKc@Base 4.9.0
 _ZN5Katie18qdesigner_internal10CodeDialog12generateCodeEPKNS_28QDesignerFormWindowInterfaceEPNS_7QStringES6_@Base 4.9.0
 _ZN5Katie18qdesigner_internal10CodeDialog14showCodeDialogEPKNS_28QDesignerFormWindowInterfaceEPNS_7QWidgetEPNS_7QStringE@Base 4.9.0
 _ZN5Katie18qdesigner_internal10CodeDialog15setFormFileNameERKNS_7QStringE@Base 4.9.0
 _ZN5Katie18qdesigner_internal10CodeDialog16staticMetaObjectE@Base 4.9.0
 _ZN5Katie18qdesigner_internal10CodeDialog17CodeDialogPrivateC1Ev@Base 4.9.0
 _ZN5Katie18qdesigner_internal10CodeDialog17CodeDialogPrivateC2Ev@Base 4.9.0
 _ZN5Katie18qdesigner_internal10CodeDialog19getStaticMetaObjectEv@Base 4.9.0
 _ZN5Katie18qdesigner_internal10CodeDialog7copyAllEv@Base 4.9.0
 _ZN5Katie18qdesigner_internal10CodeDialog7setCodeERKNS_7QStringE@Base 4.9.0
 _ZN5Katie18qdesigner_internal10CodeDialog7warningERKNS_7QStringE@Base 4.9.0
 _ZN5Katie18qdesigner_internal10CodeDialogC1EPNS_7QWidgetE@Base 4.9.0
 _ZN5Katie18qdesigner_internal10CodeDialogC2EPNS_7QWidgetE@Base 4.9.0
 _ZN5Katie18qdesigner_internal10CodeDialogD0Ev@Base 4.9.0
 _ZN5Katie18qdesigner_internal10CodeDialogD1Ev@Base 4.9.0
 _ZN5Katie18qdesigner_internal10CodeDialogD2Ev@Base 4.9.0
 _ZN5Katie18qdesigner_internal10Connection10setVisibleEb@Base 4.9.0
 _ZN5Katie18qdesigner_internal10Connection12checkWidgetsEv@Base 4.9.0
 _ZN5Katie18qdesigner_internal10Connection12updatePixmapENS0_7CETypes8EndPoint4TypeE@Base 4.9.0
 _ZN5Katie18qdesigner_internal10Connection14updateKneeListEv@Base 4.9.0
 _ZN5Katie18qdesigner_internal10Connection16updateVisibilityEv@Base 4.9.0
 _ZN5Katie18qdesigner_internal10Connection8setLabelENS0_7CETypes8EndPoint4TypeERKNS_7QStringE@Base 4.9.0
 _ZN5Katie18qdesigner_internal10Connection8trimLineEv@Base 4.9.0
 _ZN5Katie18qdesigner_internal10Connection9setSourceEPNS_7QObjectERKNS_6QPointE@Base 4.9.0
 _ZN5Katie18qdesigner_internal10Connection9setTargetEPNS_7QObjectERKNS_6QPointE@Base 4.9.0
 _ZN5Katie18qdesigner_internal10ConnectionC1EPNS0_14ConnectionEditE@Base 4.9.0
 _ZN5Katie18qdesigner_internal10ConnectionC1EPNS0_14ConnectionEditEPNS_7QObjectES5_@Base 4.9.0
 _ZN5Katie18qdesigner_internal10ConnectionC2EPNS0_14ConnectionEditE@Base 4.9.0
 _ZN5Katie18qdesigner_internal10ConnectionC2EPNS0_14ConnectionEditEPNS_7QObjectES5_@Base 4.9.0
 _ZN5Katie18qdesigner_internal10LayoutInfo10layoutNameENS1_4TypeE@Base 4.9.0
 _ZN5Katie18qdesigner_internal10LayoutInfo10layoutTypeEPKNS_28QDesignerFormEditorInterfaceEPKNS_7QLayoutE@Base 4.9.0
 _ZN5Katie18qdesigner_internal10LayoutInfo10layoutTypeEPKNS_28QDesignerFormEditorInterfaceEPKNS_7QWidgetE@Base 4.9.0
 _ZN5Katie18qdesigner_internal10LayoutInfo10layoutTypeERKNS_7QStringE@Base 4.9.0
 _ZN5Katie18qdesigner_internal10LayoutInfo11isEmptyItemEPNS_11QLayoutItemE@Base 4.9.0
 _ZN5Katie18qdesigner_internal10LayoutInfo12deleteLayoutEPKNS_28QDesignerFormEditorInterfaceEPNS_7QWidgetE@Base 4.9.0
 _ZN5Katie18qdesigner_internal10LayoutInfo12layoutParentEPKNS_28QDesignerFormEditorInterfaceEPNS_7QLayoutE@Base 4.9.0
 _ZN5Katie18qdesigner_internal10LayoutInfo13managedLayoutEPKNS_28QDesignerFormEditorInterfaceEPKNS_7QWidgetE@Base 4.9.0
 _ZN5Katie18qdesigner_internal10LayoutInfo13managedLayoutEPKNS_28QDesignerFormEditorInterfaceEPNS_7QLayoutE@Base 4.9.0
 _ZN5Katie18qdesigner_internal10LayoutInfo17laidoutWidgetTypeEPKNS_28QDesignerFormEditorInterfaceEPNS_7QWidgetEPbPPNS_7QLayoutE@Base 4.9.0
 _ZN5Katie18qdesigner_internal10LayoutInfo17managedLayoutTypeEPKNS_28QDesignerFormEditorInterfaceEPKNS_7QWidgetEPPNS_7QLayoutE@Base 4.9.0
 _ZN5Katie18qdesigner_internal10ZoomWidget11qt_metacallENS_11QMetaObject4CallEiPPv@Base 4.9.0
 _ZN5Katie18qdesigner_internal10ZoomWidget11qt_metacastEPKc@Base 4.9.0
 _ZN5Katie18qdesigner_internal10ZoomWidget11resizeEventEPNS_12QResizeEventE@Base 4.9.0
 _ZN5Katie18qdesigner_internal10ZoomWidget16staticMetaObjectE@Base 4.9.0
 _ZN5Katie18qdesigner_internal10ZoomWidget17zoomedEventFilterEPNS_7QObjectEPNS_6QEventE@Base 4.9.0
 _ZN5Katie18qdesigner_internal10ZoomWidget18resizeToWidgetSizeEv@Base 4.9.0
 _ZN5Katie18qdesigner_internal10ZoomWidget18setItemAcceptDropsEb@Base 4.9.0
 _ZN5Katie18qdesigner_internal10ZoomWidget19getStaticMetaObjectEv@Base 4.9.0
 _ZN5Katie18qdesigner_internal10ZoomWidget31setWidgetZoomContextMenuEnabledEb@Base 4.9.0
 _ZN5Katie18qdesigner_internal10ZoomWidget8doResizeERKNS_5QSizeE@Base 4.9.0
 _ZN5Katie18qdesigner_internal10ZoomWidget9applyZoomEv@Base 4.9.0
 _ZN5Katie18qdesigner_internal10ZoomWidget9setWidgetEPNS_7QWidgetENS_6QFlagsINS_2Qt10WindowTypeEEE@Base 4.9.0
 _ZN5Katie18qdesigner_internal10ZoomWidgetC1EPNS_7QWidgetE@Base 4.9.0
 _ZN5Katie18qdesigner_internal10ZoomWidgetC2EPNS_7QWidgetE@Base 4.9.0
 _ZN5Katie18qdesigner_internal10isPromotedEPNS_28QDesignerFormEditorInterfaceEPNS_7QWidgetE@Base 4.9.0
 _ZN5Katie18qdesigner_internal11ActionModel11qt_metacallENS_11QMetaObject4CallEiPPv@Base 4.9.0
 _ZN5Katie18qdesigner_internal11ActionModel11qt_metacastEPKc@Base 4.9.0
 _ZN5Katie18qdesigner_internal11ActionModel12clearActionsEv@Base 4.9.0
 _ZN5Katie18qdesigner_internal11ActionModel12dropMimeDataEPKNS_9QMimeDataENS_2Qt10DropActionEiiRKNS_11QModelIndexE@Base 4.9.0
 _ZN5Katie18qdesigner_internal11ActionModel14actionShortCutEPKNS_31QDesignerPropertySheetExtensionE@Base 4.9.0
 _ZN5Katie18qdesigner_internal11ActionModel14actionShortCutEPNS_28QDesignerFormEditorInterfaceEPNS_7QActionE@Base 4.9.0
 _ZN5Katie18qdesigner_internal11ActionModel16staticMetaObjectE@Base 4.9.0
 _ZN5Katie18qdesigner_internal11ActionModel17associatedWidgetsEPKNS_7QActionE@Base 4.9.0
 _ZN5Katie18qdesigner_internal11ActionModel19getStaticMetaObjectEv@Base 4.9.0
 _ZN5Katie18qdesigner_internal11ActionModel20resourceImageDroppedERKNS_7QStringEPNS_7QActionE@Base 4.9.0
 _ZN5Katie18qdesigner_internal11ActionModel6removeEi@Base 4.9.0
 _ZN5Katie18qdesigner_internal11ActionModel6updateEi@Base 4.9.0
 _ZN5Katie18qdesigner_internal11ActionModel8setItemsEPNS_28QDesignerFormEditorInterfaceEPNS_7QActionERKNS_5QIconERNS_5QListIPNS_13QStandardItemEEE@Base 4.9.0
 _ZN5Katie18qdesigner_internal11ActionModel9addActionEPNS_7QActionE@Base 4.9.0
 _ZN5Katie18qdesigner_internal11ActionModelC1EPNS_7QWidgetE@Base 4.9.0
 _ZN5Katie18qdesigner_internal11ActionModelC2EPNS_7QWidgetE@Base 4.9.0
 _ZN5Katie18qdesigner_internal11OrderDialog11qt_metacallENS_11QMetaObject4CallEiPPv@Base 4.9.0
 _ZN5Katie18qdesigner_internal11OrderDialog11qt_metacastEPKc@Base 4.9.0
 _ZN5Katie18qdesigner_internal11OrderDialog11setPageListERKNS_5QListIPNS_7QWidgetEEE@Base 4.9.0
 _ZN5Katie18qdesigner_internal11OrderDialog13enableButtonsEi@Base 4.9.0
 _ZN5Katie18qdesigner_internal11OrderDialog14setDescriptionERKNS_7QStringE@Base 4.9.0
 _ZN5Katie18qdesigner_internal11OrderDialog16pagesOfContainerEPKNS_28QDesignerFormEditorInterfaceEPNS_7QWidgetE@Base 4.9.0
 _ZN5Katie18qdesigner_internal11OrderDialog16staticMetaObjectE@Base 4.9.0
 _ZN5Katie18qdesigner_internal11OrderDialog19getStaticMetaObjectEv@Base 4.9.0
 _ZN5Katie18qdesigner_internal11OrderDialog19on_upButton_clickedEv@Base 4.9.0
 _ZN5Katie18qdesigner_internal11OrderDialog21on_downButton_clickedEv@Base 4.9.0
 _ZN5Katie18qdesigner_internal11OrderDialog25slotEnableButtonsAfterDnDEv@Base 4.9.0
 _ZN5Katie18qdesigner_internal11OrderDialog29on_pageList_currentRowChangedEi@Base 4.9.0
 _ZN5Katie18qdesigner_internal11OrderDialog9buildListEv@Base 4.9.0
 _ZN5Katie18qdesigner_internal11OrderDialog9slotResetEv@Base 4.9.0
 _ZN5Katie18qdesigner_internal11OrderDialogC1EPNS_7QWidgetE@Base 4.9.0
 _ZN5Katie18qdesigner_internal11OrderDialogC2EPNS_7QWidgetE@Base 4.9.0
 _ZN5Katie18qdesigner_internal11OrderDialogD0Ev@Base 4.9.0
 _ZN5Katie18qdesigner_internal11OrderDialogD1Ev@Base 4.9.0
 _ZN5Katie18qdesigner_internal11OrderDialogD2Ev@Base 4.9.0
 _ZN5Katie18qdesigner_internal12ActionEditor10editActionEPNS_7QActionE@Base 4.9.0
 _ZN5Katie18qdesigner_internal12ActionEditor10slotDeleteEv@Base 4.9.0
 _ZN5Katie18qdesigner_internal12ActionEditor11copyActionsEPNS_28QDesignerFormWindowInterfaceERKNS_5QListIPNS_7QActionEEE@Base 4.9.0
 _ZN5Katie18qdesigner_internal12ActionEditor11qt_metacallENS_11QMetaObject4CallEiPPv@Base 4.9.0
 _ZN5Katie18qdesigner_internal12ActionEditor11qt_metacastEPKc@Base 4.9.0
 _ZN5Katie18qdesigner_internal12ActionEditor12manageActionEPNS_7QActionE@Base 4.9.0
 _ZN5Katie18qdesigner_internal12ActionEditor12saveSettingsEv@Base 4.9.0
 _ZN5Katie18qdesigner_internal12ActionEditor12slotViewModeEPNS_7QActionE@Base 4.9.0
 _ZN5Katie18qdesigner_internal12ActionEditor13deleteActionsEPNS_28QDesignerFormWindowInterfaceERKNS_5QListIPNS_7QActionEEE@Base 4.9.0
 _ZN5Katie18qdesigner_internal12ActionEditor13itemActivatedEPNS_7QActionE@Base 4.9.0
 _ZN5Katie18qdesigner_internal12ActionEditor13setFormWindowEPNS_28QDesignerFormWindowInterfaceE@Base 4.9.0
 _ZN5Katie18qdesigner_internal12ActionEditor13slotNewActionEv@Base 4.9.0
 _ZN5Katie18qdesigner_internal12ActionEditor14unmanageActionEPNS_7QActionE@Base 4.9.0
 _ZN5Katie18qdesigner_internal12ActionEditor15restoreSettingsEv@Base 4.9.0
 _ZN5Katie18qdesigner_internal12ActionEditor16actionTextToNameERKNS_7QStringES4_@Base 4.9.0
 _ZN5Katie18qdesigner_internal12ActionEditor16staticMetaObjectE@Base 4.9.0
 _ZN5Katie18qdesigner_internal12ActionEditor17editCurrentActionEv@Base 4.9.0
 _ZN5Katie18qdesigner_internal12ActionEditor17slotActionChangedEv@Base 4.9.0
 _ZN5Katie18qdesigner_internal12ActionEditor19getStaticMetaObjectEv@Base 4.9.0
 _ZN5Katie18qdesigner_internal12ActionEditor20contextMenuRequestedEPNS_5QMenuEPNS_7QActionE@Base 4.9.0
 _ZN5Katie18qdesigner_internal12ActionEditor20mainContainerChangedEv@Base 4.9.0
 _ZN5Katie18qdesigner_internal12ActionEditor20resourceImageDroppedERKNS_7QStringEPNS_7QActionE@Base 4.9.0
 _ZN5Katie18qdesigner_internal12ActionEditor20slotSelectionChangedERKNS_14QItemSelectionES4_@Base 4.9.0
 _ZN5Katie18qdesigner_internal12ActionEditor21updateViewModeActionsEv@Base 4.9.0
 _ZN5Katie18qdesigner_internal12ActionEditor22slotCurrentItemChangedEPNS_7QActionE@Base 4.9.0
 _ZN5Katie18qdesigner_internal12ActionEditor24slotContextMenuRequestedEPNS_17QContextMenuEventEPNS_7QActionE@Base 4.9.0
 _ZN5Katie18qdesigner_internal12ActionEditor25createConfigureMenuButtonERKNS_7QStringEPPNS_5QMenuE@Base 4.9.0
 _ZN5Katie18qdesigner_internal12ActionEditor26slotSelectAssociatedWidgetEPNS_7QWidgetE@Base 4.9.0
 _ZN5Katie18qdesigner_internal12ActionEditor27navigateToSlotCurrentActionEv@Base 4.9.0
 _ZN5Katie18qdesigner_internal12ActionEditor7slotCutEv@Base 4.9.0
 _ZN5Katie18qdesigner_internal12ActionEditor8slotCopyEv@Base 4.9.0
 _ZN5Katie18qdesigner_internal12ActionEditor9setFilterERKNS_7QStringE@Base 4.9.0
 _ZN5Katie18qdesigner_internal12ActionEditor9slotPasteEv@Base 4.9.0
 _ZN5Katie18qdesigner_internal12ActionEditorC1EPNS_28QDesignerFormEditorInterfaceEPNS_7QWidgetENS_6QFlagsINS_2Qt10WindowTypeEEE@Base 4.9.0
 _ZN5Katie18qdesigner_internal12ActionEditorC2EPNS_28QDesignerFormEditorInterfaceEPNS_7QWidgetENS_6QFlagsINS_2Qt10WindowTypeEEE@Base 4.9.0
 _ZN5Katie18qdesigner_internal12ActionEditorD0Ev@Base 4.9.0
 _ZN5Katie18qdesigner_internal12ActionEditorD1Ev@Base 4.9.0
 _ZN5Katie18qdesigner_internal12ActionEditorD2Ev@Base 4.9.0
 _ZN5Katie18qdesigner_internal12FilterWidget11checkButtonERKNS_7QStringE@Base 4.9.0
 _ZN5Katie18qdesigner_internal12FilterWidget11qt_metacallENS_11QMetaObject4CallEiPPv@Base 4.9.0
 _ZN5Katie18qdesigner_internal12FilterWidget11qt_metacastEPKc@Base 4.9.0
 _ZN5Katie18qdesigner_internal12FilterWidget11resizeEventEPNS_12QResizeEventE@Base 4.9.0
 _ZN5Katie18qdesigner_internal12FilterWidget13filterChangedERKNS_7QStringE@Base 4.9.0
 _ZN5Katie18qdesigner_internal12FilterWidget14setRefuseFocusEb@Base 4.9.0
 _ZN5Katie18qdesigner_internal12FilterWidget16staticMetaObjectE@Base 4.9.0
 _ZN5Katie18qdesigner_internal12FilterWidget19getStaticMetaObjectEv@Base 4.9.0
 _ZN5Katie18qdesigner_internal12FilterWidget5resetEv@Base 4.9.0
 _ZN5Katie18qdesigner_internal12FilterWidgetC1EPNS_7QWidgetENS1_10LayoutModeE@Base 4.9.0
 _ZN5Katie18qdesigner_internal12FilterWidgetC2EPNS_7QWidgetENS1_10LayoutModeE@Base 4.9.0
 _ZN5Katie18qdesigner_internal12HintLineEdit11qt_metacallENS_11QMetaObject4CallEiPPv@Base 4.9.0
 _ZN5Katie18qdesigner_internal12HintLineEdit11qt_metacastEPKc@Base 4.9.0
 _ZN5Katie18qdesigner_internal12HintLineEdit12focusInEventEPNS_11QFocusEventE@Base 4.9.0
 _ZN5Katie18qdesigner_internal12HintLineEdit14setRefuseFocusEb@Base 4.9.0
 _ZN5Katie18qdesigner_internal12HintLineEdit15mousePressEventEPNS_11QMouseEventE@Base 4.9.0
 _ZN5Katie18qdesigner_internal12HintLineEdit16staticMetaObjectE@Base 4.9.0
 _ZN5Katie18qdesigner_internal12HintLineEdit19getStaticMetaObjectEv@Base 4.9.0
 _ZN5Katie18qdesigner_internal12HintLineEditC1EPNS_7QWidgetE@Base 4.9.0
 _ZN5Katie18qdesigner_internal12HintLineEditC2EPNS_7QWidgetE@Base 4.9.0
 _ZN5Katie18qdesigner_internal12IconSelector11checkPixmapERKNS_7QStringENS1_9CheckModeEPS2_@Base 4.9.0
 _ZN5Katie18qdesigner_internal12IconSelector11iconChangedERKNS0_22PropertySheetIconValueE@Base 4.9.0
 _ZN5Katie18qdesigner_internal12IconSelector11qt_metacallENS_11QMetaObject4CallEiPPv@Base 4.9.0
 _ZN5Katie18qdesigner_internal12IconSelector11qt_metacastEPKc@Base 4.9.0
 _ZN5Katie18qdesigner_internal12IconSelector12setIconCacheEPNS0_17DesignerIconCacheE@Base 4.9.0
 _ZN5Katie18qdesigner_internal12IconSelector13setFormEditorEPNS_28QDesignerFormEditorInterfaceE@Base 4.9.0
 _ZN5Katie18qdesigner_internal12IconSelector14setPixmapCacheEPNS0_19DesignerPixmapCacheE@Base 4.9.0
 _ZN5Katie18qdesigner_internal12IconSelector16choosePixmapFileERKNS_7QStringEPNS_27QDesignerDialogGuiInterfaceEPNS_7QWidgetE@Base 4.9.0
 _ZN5Katie18qdesigner_internal12IconSelector16staticMetaObjectE@Base 4.9.0
 _ZN5Katie18qdesigner_internal12IconSelector19getStaticMetaObjectEv@Base 4.9.0
 _ZN5Katie18qdesigner_internal12IconSelector20choosePixmapResourceEPNS_28QDesignerFormEditorInterfaceEPNS_15QtResourceModelERKNS_7QStringEPNS_7QWidgetE@Base 4.9.0
 _ZN5Katie18qdesigner_internal12IconSelector7setIconERKNS0_22PropertySheetIconValueE@Base 4.9.0
 _ZN5Katie18qdesigner_internal12IconSelectorC1EPNS_7QWidgetE@Base 4.9.0
 _ZN5Katie18qdesigner_internal12IconSelectorC2EPNS_7QWidgetE@Base 4.9.0
 _ZN5Katie18qdesigner_internal12IconSelectorD0Ev@Base 4.9.0
 _ZN5Katie18qdesigner_internal12IconSelectorD1Ev@Base 4.9.0
 _ZN5Katie18qdesigner_internal12IconSelectorD2Ev@Base 4.9.0
 _ZN5Katie18qdesigner_internal12ListContents18createFromComboBoxEPKNS_9QComboBoxE@Base 4.9.0
 _ZN5Katie18qdesigner_internal12ListContents20createFromListWidgetEPKNS_11QListWidgetEb@Base 4.9.0
 _ZN5Katie18qdesigner_internal12ListContentsC1EPKNS_15QTreeWidgetItemE@Base 4.9.0
 _ZN5Katie18qdesigner_internal12ListContentsC2EPKNS_15QTreeWidgetItemE@Base 4.9.0
 _ZN5Katie18qdesigner_internal12MetaDataBase11qt_metacallENS_11QMetaObject4CallEiPPv@Base 4.9.0
 _ZN5Katie18qdesigner_internal12MetaDataBase11qt_metacastEPKc@Base 4.9.0
 _ZN5Katie18qdesigner_internal12MetaDataBase13slotDestroyedEPNS_7QObjectE@Base 4.9.0
 _ZN5Katie18qdesigner_internal12MetaDataBase16staticMetaObjectE@Base 4.9.0
 _ZN5Katie18qdesigner_internal12MetaDataBase19getStaticMetaObjectEv@Base 4.9.0
 _ZN5Katie18qdesigner_internal12MetaDataBase3addEPNS_7QObjectE@Base 4.9.0
 _ZN5Katie18qdesigner_internal12MetaDataBase6removeEPNS_7QObjectE@Base 4.9.0
 _ZN5Katie18qdesigner_internal12MetaDataBaseC1EPNS_28QDesignerFormEditorInterfaceEPNS_7QObjectE@Base 4.9.0
 _ZN5Katie18qdesigner_internal12MetaDataBaseC2EPNS_28QDesignerFormEditorInterfaceEPNS_7QObjectE@Base 4.9.0
 _ZN5Katie18qdesigner_internal12MetaDataBaseD0Ev@Base 4.9.0
 _ZN5Katie18qdesigner_internal12MetaDataBaseD1Ev@Base 4.9.0
 _ZN5Katie18qdesigner_internal12MetaDataBaseD2Ev@Base 4.9.0
 _ZN5Katie18qdesigner_internal12ScriptDialog10editScriptERNS_7QStringE@Base 4.9.0
 _ZN5Katie18qdesigner_internal12ScriptDialog10slotAcceptEv@Base 4.9.0
 _ZN5Katie18qdesigner_internal12ScriptDialog11checkScriptEv@Base 4.9.0
 _ZN5Katie18qdesigner_internal12ScriptDialog11qt_metacallENS_11QMetaObject4CallEiPPv@Base 4.9.0
 _ZN5Katie18qdesigner_internal12ScriptDialog11qt_metacastEPKc@Base 4.9.0
 _ZN5Katie18qdesigner_internal12ScriptDialog16staticMetaObjectE@Base 4.9.0
 _ZN5Katie18qdesigner_internal12ScriptDialog19getStaticMetaObjectEv@Base 4.9.0
 _ZN5Katie18qdesigner_internal12ScriptDialogC1EPNS_27QDesignerDialogGuiInterfaceEPNS_7QWidgetE@Base 4.9.0
 _ZN5Katie18qdesigner_internal12ScriptDialogC2EPNS_27QDesignerDialogGuiInterfaceEPNS_7QWidgetE@Base 4.9.0
 _ZN5Katie18qdesigner_internal12demoteWidgetEPNS_28QDesignerFormEditorInterfaceEPNS_7QWidgetE@Base 4.9.0
 _ZN5Katie18qdesigner_internal13DeviceProfile10fromSystemEv@Base 4.9.0
 _ZN5Katie18qdesigner_internal13DeviceProfile13setFontFamilyERKNS_7QStringE@Base 4.9.0
 _ZN5Katie18qdesigner_internal13DeviceProfile16setFontPointSizeEi@Base 4.9.0
 _ZN5Katie18qdesigner_internal13DeviceProfile16systemResolutionEPiS2_@Base 4.9.0
 _ZN5Katie18qdesigner_internal13DeviceProfile16widgetResolutionEPKNS_7QWidgetEPiS5_@Base 4.9.0
 _ZN5Katie18qdesigner_internal13DeviceProfile5clearEv@Base 4.9.0
 _ZN5Katie18qdesigner_internal13DeviceProfile7fromXmlERKNS_7QStringEPS2_@Base 4.9.0
 _ZN5Katie18qdesigner_internal13DeviceProfile7setDpiXEi@Base 4.9.0
 _ZN5Katie18qdesigner_internal13DeviceProfile7setDpiYEi@Base 4.9.0
 _ZN5Katie18qdesigner_internal13DeviceProfile7setNameERKNS_7QStringE@Base 4.9.0
 _ZN5Katie18qdesigner_internal13DeviceProfile8applyDPIEiiPNS_7QWidgetE@Base 4.9.0
 _ZN5Katie18qdesigner_internal13DeviceProfile8setStyleERKNS_7QStringE@Base 4.9.0
 _ZN5Katie18qdesigner_internal13DeviceProfileC1ERKS1_@Base 4.9.0
 _ZN5Katie18qdesigner_internal13DeviceProfileC1Ev@Base 4.9.0
 _ZN5Katie18qdesigner_internal13DeviceProfileC2ERKS1_@Base 4.9.0
 _ZN5Katie18qdesigner_internal13DeviceProfileC2Ev@Base 4.9.0
 _ZN5Katie18qdesigner_internal13DeviceProfileD1Ev@Base 4.9.0
 _ZN5Katie18qdesigner_internal13DeviceProfileD2Ev@Base 4.9.0
 _ZN5Katie18qdesigner_internal13DeviceProfileaSERKS1_@Base 4.9.0
 _ZN5Katie18qdesigner_internal13LayoutCommand4initEPNS_7QWidgetERKNS_5QListIS3_EENS0_10LayoutInfo4TypeES3_b@Base 4.9.0
 _ZN5Katie18qdesigner_internal13LayoutCommand4redoEv@Base 4.9.0
 _ZN5Katie18qdesigner_internal13LayoutCommand4undoEv@Base 4.9.0
 _ZN5Katie18qdesigner_internal13LayoutCommandC1EPNS_28QDesignerFormWindowInterfaceE@Base 4.9.0
 _ZN5Katie18qdesigner_internal13LayoutCommandC2EPNS_28QDesignerFormWindowInterfaceE@Base 4.9.0
 _ZN5Katie18qdesigner_internal13LayoutCommandD0Ev@Base 4.9.0
 _ZN5Katie18qdesigner_internal13LayoutCommandD1Ev@Base 4.9.0
 _ZN5Katie18qdesigner_internal13LayoutCommandD2Ev@Base 4.9.0
 _ZN5Katie18qdesigner_internal13NewFormWidget11qt_metacallENS_11QMetaObject4CallEiPPv@Base 4.9.0
 _ZN5Katie18qdesigner_internal13NewFormWidget11qt_metacastEPKc@Base 4.9.0
 _ZN5Katie18qdesigner_internal13NewFormWidget15currentTemplateEPNS_7QStringE@Base 4.9.0
 _ZN5Katie18qdesigner_internal13NewFormWidget15setTemplateSizeERKNS_5QSizeE@Base 4.9.0
 _ZN5Katie18qdesigner_internal13NewFormWidget16currentTemplateIEPNS_7QStringE@Base 4.9.0
 _ZN5Katie18qdesigner_internal13NewFormWidget16staticMetaObjectE@Base 4.9.0
 _ZN5Katie18qdesigner_internal13NewFormWidget17formPreviewPixmapEPKNS_15QTreeWidgetItemE@Base 4.9.0
 _ZN5Katie18qdesigner_internal13NewFormWidget19getStaticMetaObjectEv@Base 4.9.0
 _ZN5Katie18qdesigner_internal13NewFormWidget21showCurrentItemPixmapEv@Base 4.9.0
 _ZN5Katie18qdesigner_internal13NewFormWidget25on_treeWidget_itemPressedEPNS_15QTreeWidgetItemE@Base 4.9.0
 _ZN5Katie18qdesigner_internal13NewFormWidget27on_treeWidget_itemActivatedEPNS_15QTreeWidgetItemE@Base 4.9.0
 _ZN5Katie18qdesigner_internal13NewFormWidget29slotDeviceProfileIndexChangedEi@Base 4.9.0
 _ZN5Katie18qdesigner_internal13NewFormWidget32on_treeWidget_currentItemChangedEPNS_15QTreeWidgetItemES3_@Base 4.9.0
 _ZN5Katie18qdesigner_internal13NewFormWidget8grabFormEPNS_28QDesignerFormEditorInterfaceERNS_9QIODeviceERKNS_7QStringERKNS0_13DeviceProfileE@Base 4.9.0
 _ZN5Katie18qdesigner_internal13NewFormWidget8loadFromERKNS_7QStringERKNS_11QStringListES4_RPNS_15QTreeWidgetItemE@Base 4.9.0
 _ZN5Katie18qdesigner_internal13NewFormWidget8loadFromERKNS_7QStringEbS4_S4_RPNS_15QTreeWidgetItemE@Base 4.9.0
 _ZN5Katie18qdesigner_internal13NewFormWidgetC1EPNS_28QDesignerFormEditorInterfaceEPNS_7QWidgetE@Base 4.9.0
 _ZN5Katie18qdesigner_internal13NewFormWidgetC2EPNS_28QDesignerFormEditorInterfaceEPNS_7QWidgetE@Base 4.9.0
 _ZN5Katie18qdesigner_internal13NewFormWidgetD0Ev@Base 4.9.0
 _ZN5Katie18qdesigner_internal13NewFormWidgetD1Ev@Base 4.9.0
 _ZN5Katie18qdesigner_internal13NewFormWidgetD2Ev@Base 4.9.0
 _ZN5Katie18qdesigner_internal13ScriptCommand4initERKNS_5QListIPNS_7QObjectEEERKNS_7QStringE@Base 4.9.0
 _ZN5Katie18qdesigner_internal13ScriptCommand4redoEv@Base 4.9.0
 _ZN5Katie18qdesigner_internal13ScriptCommand4undoEv@Base 4.9.0
 _ZN5Katie18qdesigner_internal13ScriptCommandC1EPNS_28QDesignerFormWindowInterfaceE@Base 4.9.0
 _ZN5Katie18qdesigner_internal13ScriptCommandC2EPNS_28QDesignerFormWindowInterfaceE@Base 4.9.0
 _ZN5Katie18qdesigner_internal13SheetDelegate11qt_metacallENS_11QMetaObject4CallEiPPv@Base 4.9.0
 _ZN5Katie18qdesigner_internal13SheetDelegate11qt_metacastEPKc@Base 4.9.0
 _ZN5Katie18qdesigner_internal13SheetDelegate16staticMetaObjectE@Base 4.9.0
 _ZN5Katie18qdesigner_internal13SheetDelegate19getStaticMetaObjectEv@Base 4.9.0
 _ZN5Katie18qdesigner_internal13SheetDelegateC1EPNS_9QTreeViewEPNS_7QWidgetE@Base 4.9.0
 _ZN5Katie18qdesigner_internal13SheetDelegateC2EPNS_9QTreeViewEPNS_7QWidgetE@Base 4.9.0
 _ZN5Katie18qdesigner_internal13UpdateBlockerC1EPNS_7QWidgetE@Base 4.9.0
 _ZN5Katie18qdesigner_internal13UpdateBlockerC2EPNS_7QWidgetE@Base 4.9.0
 _ZN5Katie18qdesigner_internal13UpdateBlockerD1Ev@Base 4.9.0
 _ZN5Katie18qdesigner_internal13UpdateBlockerD2Ev@Base 4.9.0
 _ZN5Katie18qdesigner_internal13WidgetFactory11classNameOfEPNS_28QDesignerFormEditorInterfaceEPKNS_7QObjectE@Base 4.9.0
 _ZN5Katie18qdesigner_internal13WidgetFactory11loadPluginsEv@Base 4.9.0
 _ZN5Katie18qdesigner_internal13WidgetFactory11qt_metacallENS_11QMetaObject4CallEiPPv@Base 4.9.0
 _ZN5Katie18qdesigner_internal13WidgetFactory11qt_metacastEPKc@Base 4.9.0
 _ZN5Katie18qdesigner_internal13WidgetFactory12setStyleNameERKNS_7QStringE@Base 4.9.0
 _ZN5Katie18qdesigner_internal13WidgetFactory15formWindowAddedEPNS_28QDesignerFormWindowInterfaceE@Base 4.9.0
 _ZN5Katie18qdesigner_internal13WidgetFactory16staticMetaObjectE@Base 4.9.0
 _ZN5Katie18qdesigner_internal13WidgetFactory17currentFormWindowEPNS_28QDesignerFormWindowInterfaceE@Base 4.9.0
 _ZN5Katie18qdesigner_internal13WidgetFactory18applyStyleTopLevelERKNS_7QStringEPNS_7QWidgetE@Base 4.9.0
 _ZN5Katie18qdesigner_internal13WidgetFactory18isFormEditorObjectEPKNS_7QObjectE@Base 4.9.0
 _ZN5Katie18qdesigner_internal13WidgetFactory18setFormWindowStyleEPNS_28QDesignerFormWindowInterfaceE@Base 4.9.0
 _ZN5Katie18qdesigner_internal13WidgetFactory19getStaticMetaObjectEv@Base 4.9.0
 _ZN5Katie18qdesigner_internal13WidgetFactory19isPassiveInteractorEPNS_7QWidgetE@Base 4.9.0
 _ZN5Katie18qdesigner_internal13WidgetFactory20applyStyleToTopLevelEPNS_6QStyleEPNS_7QWidgetE@Base 4.9.0
 _ZN5Katie18qdesigner_internal13WidgetFactory21createUnmanagedLayoutEPNS_7QWidgetEi@Base 4.9.0
 _ZN5Katie18qdesigner_internal13WidgetFactory23activeFormWindowChangedEPNS_28QDesignerFormWindowInterfaceE@Base 4.9.0
 _ZN5Katie18qdesigner_internal13WidgetFactory23m_lastPassiveInteractorE@Base 4.9.0
 _ZN5Katie18qdesigner_internal13WidgetFactory27m_lastWasAPassiveInteractorE@Base 4.9.0
 _ZN5Katie18qdesigner_internal13WidgetFactory35disableStyleCustomPaintingPropertyCE@Base 4.9.0
 _ZN5Katie18qdesigner_internal13WidgetFactory7StringsC1Ev@Base 4.9.0
 _ZN5Katie18qdesigner_internal13WidgetFactory7StringsC2Ev@Base 4.9.0
 _ZN5Katie18qdesigner_internal13WidgetFactory8getStyleERKNS_7QStringE@Base 4.9.0
 _ZN5Katie18qdesigner_internal13WidgetFactoryC1EPNS_28QDesignerFormEditorInterfaceEPNS_7QObjectE@Base 4.9.0
 _ZN5Katie18qdesigner_internal13WidgetFactoryC2EPNS_28QDesignerFormEditorInterfaceEPNS_7QObjectE@Base 4.9.0
 _ZN5Katie18qdesigner_internal13WidgetFactoryD0Ev@Base 4.9.0
 _ZN5Katie18qdesigner_internal13WidgetFactoryD1Ev@Base 4.9.0
 _ZN5Katie18qdesigner_internal13WidgetFactoryD2Ev@Base 4.9.0
 _ZN5Katie18qdesigner_internal13appendDerivedEPNS_32QDesignerWidgetDataBaseInterfaceERKNS_7QStringES5_S5_S5_bb@Base 4.9.0
 _ZN5Katie18qdesigner_internal13createIconSetERKNS_7QStringE@Base 4.9.0
 _ZN5Katie18qdesigner_internal13promoteWidgetEPNS_28QDesignerFormEditorInterfaceEPNS_7QWidgetERKNS_7QStringE@Base 4.9.0
 _ZN5Katie18qdesigner_internal14ConnectionEdit10paintEventEPNS_11QPaintEventE@Base 4.9.0
 _ZN5Katie18qdesigner_internal14ConnectionEdit10paintLabelEPNS_8QPainterENS0_7CETypes8EndPoint4TypeEPNS0_10ConnectionE@Base 4.9.0
 _ZN5Katie18qdesigner_internal14ConnectionEdit10selectNoneEv@Base 4.9.0
 _ZN5Katie18qdesigner_internal14ConnectionEdit11qt_metacallENS_11QMetaObject4CallEiPPv@Base 4.9.0
 _ZN5Katie18qdesigner_internal14ConnectionEdit11qt_metacastEPKc@Base 4.9.0
 _ZN5Katie18qdesigner_internal14ConnectionEdit11resizeEventEPNS_12QResizeEventE@Base 4.9.0
 _ZN5Katie18qdesigner_internal14ConnectionEdit11setSelectedEPNS0_10ConnectionEb@Base 4.9.0
 _ZN5Katie18qdesigner_internal14ConnectionEdit11updateLinesEv@Base 4.9.0
 _ZN5Katie18qdesigner_internal14ConnectionEdit12continueDragERKNS_6QPointE@Base 4.9.0
 _ZN5Katie18qdesigner_internal14ConnectionEdit13addConnectionEPNS0_10ConnectionE@Base 4.9.0
 _ZN5Katie18qdesigner_internal14ConnectionEdit13adjustHotSoptERKNS0_7CETypes8EndPointERKNS_6QPointE@Base 4.9.0
 _ZN5Katie18qdesigner_internal14ConnectionEdit13endConnectionEPNS_7QWidgetERKNS_6QPointE@Base 4.9.0
 _ZN5Katie18qdesigner_internal14ConnectionEdit13keyPressEventEPNS_9QKeyEventE@Base 4.9.0
 _ZN5Katie18qdesigner_internal14ConnectionEdit13objectRemovedEPNS_7QObjectE@Base 4.9.0
 _ZN5Katie18qdesigner_internal14ConnectionEdit13setBackgroundEPNS_7QWidgetE@Base 4.9.0
 _ZN5Katie18qdesigner_internal14ConnectionEdit13widgetRemovedEPNS_7QWidgetE@Base 4.9.0
 _ZN5Katie18qdesigner_internal14ConnectionEdit14deleteSelectedEv@Base 4.9.0
 _ZN5Katie18qdesigner_internal14ConnectionEdit14mouseMoveEventEPNS_11QMouseEventE@Base 4.9.0
 _ZN5Katie18qdesigner_internal14ConnectionEdit14takeConnectionEPNS0_10ConnectionE@Base 4.9.0
 _ZN5Katie18qdesigner_internal14ConnectionEdit15abortConnectionEv@Base 4.9.0
 _ZN5Katie18qdesigner_internal14ConnectionEdit15connectionAddedEPNS0_10ConnectionE@Base 4.9.0
 _ZN5Katie18qdesigner_internal14ConnectionEdit15mousePressEventEPNS_11QMouseEventE@Base 4.9.0
 _ZN5Katie18qdesigner_internal14ConnectionEdit15startConnectionEPNS_7QWidgetERKNS_6QPointE@Base 4.9.0
 _ZN5Katie18qdesigner_internal14ConnectionEdit15widgetActivatedEPNS_7QWidgetE@Base 4.9.0
 _ZN5Katie18qdesigner_internal14ConnectionEdit16contextMenuEventEPNS_17QContextMenuEventE@Base 4.9.0
 _ZN5Katie18qdesigner_internal14ConnectionEdit16createConnectionEPNS_7QWidgetES3_@Base 4.9.0
 _ZN5Katie18qdesigner_internal14ConnectionEdit16modifyConnectionEPNS0_10ConnectionE@Base 4.9.0
 _ZN5Katie18qdesigner_internal14ConnectionEdit16staticMetaObjectE@Base 4.9.0
 _ZN5Katie18qdesigner_internal14ConnectionEdit16updateBackgroundEv@Base 4.9.0
 _ZN5Katie18qdesigner_internal14ConnectionEdit17connectionChangedEPNS0_10ConnectionE@Base 4.9.0
 _ZN5Katie18qdesigner_internal14ConnectionEdit17connectionRemovedEi@Base 4.9.0
 _ZN5Katie18qdesigner_internal14ConnectionEdit17createContextMenuERNS_5QMenuE@Base 4.9.0
 _ZN5Katie18qdesigner_internal14ConnectionEdit17mouseReleaseEventEPNS_11QMouseEventE@Base 4.9.0
 _ZN5Katie18qdesigner_internal14ConnectionEdit18connectionSelectedEPNS0_10ConnectionE@Base 4.9.0
 _ZN5Katie18qdesigner_internal14ConnectionEdit18continueConnectionEPNS_7QWidgetERKNS_6QPointE@Base 4.9.0
 _ZN5Katie18qdesigner_internal14ConnectionEdit19getStaticMetaObjectEv@Base 4.9.0
 _ZN5Katie18qdesigner_internal14ConnectionEdit20aboutToAddConnectionEi@Base 4.9.0
 _ZN5Katie18qdesigner_internal14ConnectionEdit21findObjectsUnderMouseERKNS_6QPointE@Base 4.9.0
 _ZN5Katie18qdesigner_internal14ConnectionEdit21mouseDoubleClickEventEPNS_11QMouseEventE@Base 4.9.0
 _ZN5Katie18qdesigner_internal14ConnectionEdit22enableUpdateBackgroundEb@Base 4.9.0
 _ZN5Katie18qdesigner_internal14ConnectionEdit23aboutToRemoveConnectionEPNS0_10ConnectionE@Base 4.9.0
 _ZN5Katie18qdesigner_internal14ConnectionEdit25clearNewlyAddedConnectionEv@Base 4.9.0
 _ZN5Katie18qdesigner_internal14ConnectionEdit5clearEv@Base 4.9.0
 _ZN5Katie18qdesigner_internal14ConnectionEdit7endDragERKNS_6QPointE@Base 4.9.0
 _ZN5Katie18qdesigner_internal14ConnectionEdit9selectAllEv@Base 4.9.0
 _ZN5Katie18qdesigner_internal14ConnectionEdit9setSourceEPNS0_10ConnectionERKNS_7QStringE@Base 4.9.0
 _ZN5Katie18qdesigner_internal14ConnectionEdit9setTargetEPNS0_10ConnectionERKNS_7QStringE@Base 4.9.0
 _ZN5Katie18qdesigner_internal14ConnectionEdit9startDragERKNS0_7CETypes8EndPointERKNS_6QPointE@Base 4.9.0
 _ZN5Katie18qdesigner_internal14ConnectionEditC1EPNS_7QWidgetEPNS_28QDesignerFormWindowInterfaceE@Base 4.9.0
 _ZN5Katie18qdesigner_internal14ConnectionEditC2EPNS_7QWidgetEPNS_28QDesignerFormWindowInterfaceE@Base 4.9.0
 _ZN5Katie18qdesigner_internal14ConnectionEditD0Ev@Base 4.9.0
 _ZN5Katie18qdesigner_internal14ConnectionEditD1Ev@Base 4.9.0
 _ZN5Katie18qdesigner_internal14ConnectionEditD2Ev@Base 4.9.0
 _ZN5Katie18qdesigner_internal14CssHighlighter11qt_metacallENS_11QMetaObject4CallEiPPv@Base 4.9.0
 _ZN5Katie18qdesigner_internal14CssHighlighter11qt_metacastEPKc@Base 4.9.0
 _ZN5Katie18qdesigner_internal14CssHighlighter14highlightBlockERKNS_7QStringE@Base 4.9.0
 _ZN5Katie18qdesigner_internal14CssHighlighter16staticMetaObjectE@Base 4.9.0
 _ZN5Katie18qdesigner_internal14CssHighlighter19getStaticMetaObjectEv@Base 4.9.0
 _ZN5Katie18qdesigner_internal14CssHighlighter9highlightERKNS_7QStringEiii@Base 4.9.0
 _ZN5Katie18qdesigner_internal14CssHighlighterC1EPNS_13QTextDocumentE@Base 4.9.0
 _ZN5Katie18qdesigner_internal14CssHighlighterC2EPNS_13QTextDocumentE@Base 4.9.0
 _ZN5Katie18qdesigner_internal14FormLayoutMenu10slotAddRowEv@Base 4.9.0
 _ZN5Katie18qdesigner_internal14FormLayoutMenu11qt_metacallENS_11QMetaObject4CallEiPPv@Base 4.9.0
 _ZN5Katie18qdesigner_internal14FormLayoutMenu11qt_metacastEPKc@Base 4.9.0
 _ZN5Katie18qdesigner_internal14FormLayoutMenu16staticMetaObjectE@Base 4.9.0
 _ZN5Katie18qdesigner_internal14FormLayoutMenu19getStaticMetaObjectEv@Base 4.9.0
 _ZN5Katie18qdesigner_internal14FormLayoutMenu19preferredEditActionEPNS_7QWidgetEPNS_28QDesignerFormWindowInterfaceE@Base 4.9.0
 _ZN5Katie18qdesigner_internal14FormLayoutMenu8populateEPNS_7QWidgetEPNS_28QDesignerFormWindowInterfaceERNS_5QListIPNS_7QActionEEE@Base 4.9.0
 _ZN5Katie18qdesigner_internal14FormLayoutMenuC1EPNS_7QObjectE@Base 4.9.0
 _ZN5Katie18qdesigner_internal14FormLayoutMenuC2EPNS_7QObjectE@Base 4.9.0
 _ZN5Katie18qdesigner_internal14FormWindowBase11qt_metacallENS_11QMetaObject4CallEiPPv@Base 4.9.0
 _ZN5Katie18qdesigner_internal14FormWindowBase11qt_metacastEPKc@Base 4.9.0
 _ZN5Katie18qdesigner_internal14FormWindowBase11setFeaturesENS_6QFlagsINS_28QDesignerFormWindowInterface11FeatureFlagEEE@Base 4.9.0
 _ZN5Katie18qdesigner_internal14FormWindowBase11setFormDataERKNS_4QMapINS_7QStringENS_8QVariantEEE@Base 4.9.0
 _ZN5Katie18qdesigner_internal14FormWindowBase14setHasFormGridEb@Base 4.9.0
 _ZN5Katie18qdesigner_internal14FormWindowBase14setResourceSetEPNS_13QtResourceSetE@Base 4.9.0
 _ZN5Katie18qdesigner_internal14FormWindowBase15setDesignerGridERKNS0_4GridE@Base 4.9.0
 _ZN5Katie18qdesigner_internal14FormWindowBase15syncGridFeatureEv@Base 4.9.0
 _ZN5Katie18qdesigner_internal14FormWindowBase16deleteWidgetListERKNS_5QListIPNS_7QWidgetEEE@Base 4.9.0
 _ZN5Katie18qdesigner_internal14FormWindowBase16reloadPropertiesEv@Base 4.9.0
 _ZN5Katie18qdesigner_internal14FormWindowBase16staticMetaObjectE@Base 4.9.0
 _ZN5Katie18qdesigner_internal14FormWindowBase16widgetUnderMouseERKNS_6QPointENS1_20WidgetUnderMouseModeE@Base 4.9.0
 _ZN5Katie18qdesigner_internal14FormWindowBase17emitObjectRemovedEPNS_7QObjectE@Base 4.9.0
 _ZN5Katie18qdesigner_internal14FormWindowBase17emitWidgetRemovedEPNS_7QWidgetE@Base 4.9.0
 _ZN5Katie18qdesigner_internal14FormWindowBase18setupDefaultActionEPNS_28QDesignerFormWindowInterfaceE@Base 4.9.0
 _ZN5Katie18qdesigner_internal14FormWindowBase19defaultDesignerGridEv@Base 4.9.0
 _ZN5Katie18qdesigner_internal14FormWindowBase19getStaticMetaObjectEv@Base 4.9.0
 _ZN5Katie18qdesigner_internal14FormWindowBase19initializePopupMenuEPNS_7QWidgetE@Base 4.9.0
 _ZN5Katie18qdesigner_internal14FormWindowBase20resourceSetActivatedEPNS_13QtResourceSetEb@Base 4.9.0
 _ZN5Katie18qdesigner_internal14FormWindowBase20triggerDefaultActionEPNS_7QWidgetE@Base 4.9.0
 _ZN5Katie18qdesigner_internal14FormWindowBase21addReloadablePropertyEPNS_22QDesignerPropertySheetEi@Base 4.9.0
 _ZN5Katie18qdesigner_internal14FormWindowBase21setLineTerminatorModeENS1_18LineTerminatorModeE@Base 4.9.0
 _ZN5Katie18qdesigner_internal14FormWindowBase22setDefaultDesignerGridERKNS0_4GridE@Base 4.9.0
 _ZN5Katie18qdesigner_internal14FormWindowBase23createExtensionTaskMenuEPNS_28QDesignerFormWindowInterfaceEPNS_7QObjectEb@Base 4.9.0
 _ZN5Katie18qdesigner_internal14FormWindowBase24removeReloadablePropertyEPNS_22QDesignerPropertySheetEi@Base 4.9.0
 _ZN5Katie18qdesigner_internal14FormWindowBase25setSaveResourcesBehaviourENS1_22SaveResourcesBehaviourE@Base 4.9.0
 _ZN5Katie18qdesigner_internal14FormWindowBase26addReloadablePropertySheetEPNS_22QDesignerPropertySheetEPNS_7QObjectE@Base 4.9.0
 _ZN5Katie18qdesigner_internal14FormWindowBase29removeReloadablePropertySheetEPNS_22QDesignerPropertySheetE@Base 4.9.0
 _ZN5Katie18qdesigner_internal14FormWindowBase7setGridERKNS_6QPointE@Base 4.9.0
 _ZN5Katie18qdesigner_internal14FormWindowBase8formDataEv@Base 4.9.0
 _ZN5Katie18qdesigner_internal14FormWindowBaseC1EPNS_28QDesignerFormEditorInterfaceEPNS_7QWidgetENS_6QFlagsINS_2Qt10WindowTypeEEE@Base 4.9.0
 _ZN5Katie18qdesigner_internal14FormWindowBaseC2EPNS_28QDesignerFormEditorInterfaceEPNS_7QWidgetENS_6QFlagsINS_2Qt10WindowTypeEEE@Base 4.9.0
 _ZN5Katie18qdesigner_internal14FormWindowBaseD0Ev@Base 4.9.0
 _ZN5Katie18qdesigner_internal14FormWindowBaseD1Ev@Base 4.9.0
 _ZN5Katie18qdesigner_internal14FormWindowBaseD2Ev@Base 4.9.0
 _ZN5Katie18qdesigner_internal14PreviewManager11eventFilterEPNS_7QObjectEPNS_6QEventE@Base 4.9.0
 _ZN5Katie18qdesigner_internal14PreviewManager11qt_metacallENS_11QMetaObject4CallEiPPv@Base 4.9.0
 _ZN5Katie18qdesigner_internal14PreviewManager11qt_metacastEPKc@Base 4.9.0
 _ZN5Katie18qdesigner_internal14PreviewManager11showPreviewEPKNS_28QDesignerFormWindowInterfaceERKNS0_20PreviewConfigurationEiPNS_7QStringE@Base 4.9.0
 _ZN5Katie18qdesigner_internal14PreviewManager11showPreviewEPKNS_28QDesignerFormWindowInterfaceERKNS_7QStringEPS5_@Base 4.9.0
 _ZN5Katie18qdesigner_internal14PreviewManager11showPreviewEPKNS_28QDesignerFormWindowInterfaceERKNS_7QStringEiPS5_@Base 4.9.0
 _ZN5Katie18qdesigner_internal14PreviewManager13createPreviewEPKNS_28QDesignerFormWindowInterfaceERKNS0_20PreviewConfigurationEiPNS_7QStringEi@Base 4.9.0
 _ZN5Katie18qdesigner_internal14PreviewManager15slotZoomChangedEi@Base 4.9.0
 _ZN5Katie18qdesigner_internal14PreviewManager16closeAllPreviewsEv@Base 4.9.0
 _ZN5Katie18qdesigner_internal14PreviewManager16staticMetaObjectE@Base 4.9.0
 _ZN5Katie18qdesigner_internal14PreviewManager17lastPreviewClosedEv@Base 4.9.0
 _ZN5Katie18qdesigner_internal14PreviewManager18firstPreviewOpenedEv@Base 4.9.0
 _ZN5Katie18qdesigner_internal14PreviewManager19createPreviewPixmapEPKNS_28QDesignerFormWindowInterfaceERKNS0_20PreviewConfigurationEiPNS_7QStringE@Base 4.9.0
 _ZN5Katie18qdesigner_internal14PreviewManager19createPreviewPixmapEPKNS_28QDesignerFormWindowInterfaceERKNS_7QStringEPS5_@Base 4.9.0
 _ZN5Katie18qdesigner_internal14PreviewManager19createPreviewPixmapEPKNS_28QDesignerFormWindowInterfaceERKNS_7QStringEiPS5_@Base 4.9.0
 _ZN5Katie18qdesigner_internal14PreviewManager19getStaticMetaObjectEv@Base 4.9.0
 _ZN5Katie18qdesigner_internal14PreviewManager19updatePreviewClosedEPNS_7QWidgetE@Base 4.9.0
 _ZN5Katie18qdesigner_internal14PreviewManager5raiseEPKNS_28QDesignerFormWindowInterfaceERKNS0_20PreviewConfigurationE@Base 4.9.0
 _ZN5Katie18qdesigner_internal14PreviewManagerC1ENS1_11PreviewModeEPNS_7QObjectE@Base 4.9.0
 _ZN5Katie18qdesigner_internal14PreviewManagerC2ENS1_11PreviewModeEPNS_7QObjectE@Base 4.9.0
 _ZN5Katie18qdesigner_internal14PreviewManagerD0Ev@Base 4.9.0
 _ZN5Katie18qdesigner_internal14PreviewManagerD1Ev@Base 4.9.0
 _ZN5Katie18qdesigner_internal14PreviewManagerD2Ev@Base 4.9.0
 _ZN5Katie18qdesigner_internal14PropertyHelper10applyValueEPNS_28QDesignerFormWindowInterfaceERKNS_8QVariantENS_5QPairIS4_bEE@Base 4.9.0
 _ZN5Katie18qdesigner_internal14PropertyHelper12updateObjectEPNS_28QDesignerFormWindowInterfaceERKNS_8QVariantES6_@Base 4.9.0
 _ZN5Katie18qdesigner_internal14PropertyHelper15restoreOldValueEPNS_28QDesignerFormWindowInterfaceE@Base 4.9.0
 _ZN5Katie18qdesigner_internal14PropertyHelper19restoreDefaultValueEPNS_28QDesignerFormWindowInterfaceE@Base 4.9.0
 _ZN5Katie18qdesigner_internal14PropertyHelper20triggerActionChangedEPNS_7QActionE@Base 4.9.0
 _ZN5Katie18qdesigner_internal14PropertyHelper21checkApplyWidgetValueEPNS_28QDesignerFormWindowInterfaceEPNS_7QWidgetENS0_15SpecialPropertyERNS_8QVariantE@Base 4.9.0
 _ZN5Katie18qdesigner_internal14PropertyHelper8setValueEPNS_28QDesignerFormWindowInterfaceERKNS_8QVariantEbj@Base 4.9.0
 _ZN5Katie18qdesigner_internal14PropertyHelperC1EPNS_7QObjectENS0_15SpecialPropertyEPNS_31QDesignerPropertySheetExtensionEi@Base 4.9.0
 _ZN5Katie18qdesigner_internal14PropertyHelperC2EPNS_7QObjectENS0_15SpecialPropertyEPNS_31QDesignerPropertySheetExtensionEi@Base 4.9.0
 _ZN5Katie18qdesigner_internal14QLayoutSupport10findItemAtEPNS_11QGridLayoutEii@Base 4.9.0
 _ZN5Katie18qdesigner_internal14QLayoutSupport11qt_metacallENS_11QMetaObject4CallEiPPv@Base 4.9.0
 _ZN5Katie18qdesigner_internal14QLayoutSupport11qt_metacastEPKc@Base 4.9.0
 _ZN5Katie18qdesigner_internal14QLayoutSupport13hideIndicatorENS1_9IndicatorE@Base 4.9.0
 _ZN5Katie18qdesigner_internal14QLayoutSupport13setInsertModeENS_34QDesignerLayoutDecorationExtension10InsertModeE@Base 4.9.0
 _ZN5Katie18qdesigner_internal14QLayoutSupport13showIndicatorENS1_9IndicatorERKNS_5QRectERKNS_8QPaletteE@Base 4.9.0
 _ZN5Katie18qdesigner_internal14QLayoutSupport14setCurrentCellERKNS_5QPairIiiEE@Base 4.9.0
 _ZN5Katie18qdesigner_internal14QLayoutSupport15adjustIndicatorERKNS_6QPointEi@Base 4.9.0
 _ZN5Katie18qdesigner_internal14QLayoutSupport16createEmptyCellsEPNS_11QFormLayoutE@Base 4.9.0
 _ZN5Katie18qdesigner_internal14QLayoutSupport16createEmptyCellsEPNS_11QGridLayoutE@Base 4.9.0
 _ZN5Katie18qdesigner_internal14QLayoutSupport16removeEmptyCellsEPNS_11QFormLayoutERKNS_5QRectE@Base 4.9.0
 _ZN5Katie18qdesigner_internal14QLayoutSupport16removeEmptyCellsEPNS_11QGridLayoutERKNS_5QRectE@Base 4.9.0
 _ZN5Katie18qdesigner_internal14QLayoutSupport16staticMetaObjectE@Base 4.9.0
 _ZN5Katie18qdesigner_internal14QLayoutSupport19createLayoutSupportEPNS_28QDesignerFormWindowInterfaceEPNS_7QWidgetEPNS_7QObjectE@Base 4.9.0
 _ZN5Katie18qdesigner_internal14QLayoutSupport19getStaticMetaObjectEv@Base 4.9.0
 _ZN5Katie18qdesigner_internal14QLayoutSupport21canSimplifyQuickCheckEPKNS_11QFormLayoutE@Base 4.9.0
 _ZN5Katie18qdesigner_internal14QLayoutSupport21canSimplifyQuickCheckEPKNS_11QGridLayoutE@Base 4.9.0
 _ZN5Katie18qdesigner_internal14QLayoutSupportC1EPNS_28QDesignerFormWindowInterfaceEPNS_7QWidgetEPNS0_12LayoutHelperEPNS_7QObjectE@Base 4.9.0
 _ZN5Katie18qdesigner_internal14QLayoutSupportC2EPNS_28QDesignerFormWindowInterfaceEPNS_7QWidgetEPNS0_12LayoutHelperEPNS_7QObjectE@Base 4.9.0
 _ZN5Katie18qdesigner_internal14QLayoutSupportD0Ev@Base 4.9.0
 _ZN5Katie18qdesigner_internal14QLayoutSupportD1Ev@Base 4.9.0
 _ZN5Katie18qdesigner_internal14QLayoutSupportD2Ev@Base 4.9.0
 _ZN5Katie18qdesigner_internal14ToolBoxCommand10removePageEv@Base 4.9.0
 _ZN5Katie18qdesigner_internal14ToolBoxCommand4initEPNS_8QToolBoxE@Base 4.9.0
 _ZN5Katie18qdesigner_internal14ToolBoxCommand7addPageEv@Base 4.9.0
 _ZN5Katie18qdesigner_internal14ToolBoxCommandC1EPNS_28QDesignerFormWindowInterfaceE@Base 4.9.0
 _ZN5Katie18qdesigner_internal14ToolBoxCommandC2EPNS_28QDesignerFormWindowInterfaceE@Base 4.9.0
 _ZN5Katie18qdesigner_internal14ToolBoxCommandD0Ev@Base 4.9.0
 _ZN5Katie18qdesigner_internal14ToolBoxCommandD1Ev@Base 4.9.0
 _ZN5Katie18qdesigner_internal14ToolBoxCommandD2Ev@Base 4.9.0
 _ZN5Katie18qdesigner_internal14WidgetDataBase11loadPluginsEv@Base 4.9.0
 _ZN5Katie18qdesigner_internal14WidgetDataBase11qt_metacallENS_11QMetaObject4CallEiPPv@Base 4.9.0
 _ZN5Katie18qdesigner_internal14WidgetDataBase11qt_metacastEPKc@Base 4.9.0
 _ZN5Katie18qdesigner_internal14WidgetDataBase12formTemplateEPKNS_28QDesignerFormEditorInterfaceERKNS_7QStringES7_@Base 4.9.0
 _ZN5Katie18qdesigner_internal14WidgetDataBase16staticMetaObjectE@Base 4.9.0
 _ZN5Katie18qdesigner_internal14WidgetDataBase17formWidgetClassesEPKNS_28QDesignerFormEditorInterfaceE@Base 4.9.0
 _ZN5Katie18qdesigner_internal14WidgetDataBase17scaleFormTemplateERKNS_7QStringERKNS_5QSizeEb@Base 4.9.0
 _ZN5Katie18qdesigner_internal14WidgetDataBase19getStaticMetaObjectEv@Base 4.9.0
 _ZN5Katie18qdesigner_internal14WidgetDataBase21defaultPropertyValuesERKNS_7QStringE@Base 4.9.0
 _ZN5Katie18qdesigner_internal14WidgetDataBase23customFormWidgetClassesEPKNS_28QDesignerFormEditorInterfaceE@Base 4.9.0
 _ZN5Katie18qdesigner_internal14WidgetDataBase25grabDefaultPropertyValuesEv@Base 4.9.0
 _ZN5Katie18qdesigner_internal14WidgetDataBase26grabStandardWidgetBoxIconsEv@Base 4.9.0
 _ZN5Katie18qdesigner_internal14WidgetDataBase6removeEi@Base 4.9.0
 _ZN5Katie18qdesigner_internal14WidgetDataBaseC1EPNS_28QDesignerFormEditorInterfaceEPNS_7QObjectE@Base 4.9.0
 _ZN5Katie18qdesigner_internal14WidgetDataBaseC2EPNS_28QDesignerFormEditorInterfaceEPNS_7QObjectE@Base 4.9.0
 _ZN5Katie18qdesigner_internal14WidgetDataBaseD0Ev@Base 4.9.0
 _ZN5Katie18qdesigner_internal14WidgetDataBaseD1Ev@Base 4.9.0
 _ZN5Katie18qdesigner_internal14WidgetDataBaseD2Ev@Base 4.9.0
 _ZN5Katie18qdesigner_internal15IconThemeEditor11qt_metacallENS_11QMetaObject4CallEiPPv@Base 4.9.0
 _ZN5Katie18qdesigner_internal15IconThemeEditor11qt_metacastEPKc@Base 4.9.0
 _ZN5Katie18qdesigner_internal15IconThemeEditor11slotChangedERKNS_7QStringE@Base 4.9.0
 _ZN5Katie18qdesigner_internal15IconThemeEditor13updatePreviewERKNS_7QStringE@Base 4.9.0
 _ZN5Katie18qdesigner_internal15IconThemeEditor16staticMetaObjectE@Base 4.9.0
 _ZN5Katie18qdesigner_internal15IconThemeEditor19getStaticMetaObjectEv@Base 4.9.0
 _ZN5Katie18qdesigner_internal15IconThemeEditor5resetEv@Base 4.9.0
 _ZN5Katie18qdesigner_internal15IconThemeEditor6editedERKNS_7QStringE@Base 4.9.0
 _ZN5Katie18qdesigner_internal15IconThemeEditor8setThemeERKNS_7QStringE@Base 4.9.0
 _ZN5Katie18qdesigner_internal15IconThemeEditorC1EPNS_7QWidgetEb@Base 4.9.0
 _ZN5Katie18qdesigner_internal15IconThemeEditorC2EPNS_7QWidgetEb@Base 4.9.0
 _ZN5Katie18qdesigner_internal15IconThemeEditorD0Ev@Base 4.9.0
 _ZN5Katie18qdesigner_internal15IconThemeEditorD1Ev@Base 4.9.0
 _ZN5Katie18qdesigner_internal15IconThemeEditorD2Ev@Base 4.9.0
 _ZN5Katie18qdesigner_internal15InvisibleWidget11qt_metacallENS_11QMetaObject4CallEiPPv@Base 4.9.0
 _ZN5Katie18qdesigner_internal15InvisibleWidget11qt_metacastEPKc@Base 4.9.0
 _ZN5Katie18qdesigner_internal15InvisibleWidget16staticMetaObjectE@Base 4.9.0
 _ZN5Katie18qdesigner_internal15InvisibleWidget19getStaticMetaObjectEv@Base 4.9.0
 _ZN5Katie18qdesigner_internal15InvisibleWidgetC1EPNS_7QWidgetE@Base 4.9.0
 _ZN5Katie18qdesigner_internal15InvisibleWidgetC2EPNS_7QWidgetE@Base 4.9.0
 _ZN5Katie18qdesigner_internal15QSimpleResource10nameToIconERKNS_7QStringES4_@Base 4.9.0
 _ZN5Katie18qdesigner_internal15QSimpleResource10setupBrushEPNS_8DomBrushE@Base 4.9.0
 _ZN5Katie18qdesigner_internal15QSimpleResource12createScriptERKNS_7QStringENS1_12ScriptSourceE@Base 4.9.0
 _ZN5Katie18qdesigner_internal15QSimpleResource12nameToPixmapERKNS_7QStringES4_@Base 4.9.0
 _ZN5Katie18qdesigner_internal15QSimpleResource14addFakeMethodsEPKNS_8DomSlotsERNS_11QStringListES6_@Base 4.9.0
 _ZN5Katie18qdesigner_internal15QSimpleResource15warningsEnabledEv@Base 4.9.0
 _ZN5Katie18qdesigner_internal15QSimpleResource17m_warningsEnabledE@Base 4.9.0
 _ZN5Katie18qdesigner_internal15QSimpleResource18customWidgetScriptEPNS_28QDesignerFormEditorInterfaceEPNS_7QObjectE@Base 4.9.0
 _ZN5Katie18qdesigner_internal15QSimpleResource18customWidgetScriptEPNS_28QDesignerFormEditorInterfaceERKNS_7QStringE@Base 4.9.0
 _ZN5Katie18qdesigner_internal15QSimpleResource18setWarningsEnabledEb@Base 4.9.0
 _ZN5Katie18qdesigner_internal15QSimpleResource21addExtensionDataToDOMEPNS_20QAbstractFormBuilderEPNS_28QDesignerFormEditorInterfaceEPNS_9DomWidgetEPNS_7QWidgetE@Base 4.9.0
 _ZN5Katie18qdesigner_internal15QSimpleResource21hasCustomWidgetScriptEPNS_28QDesignerFormEditorInterfaceEPNS_7QObjectE@Base 4.9.0
 _ZN5Katie18qdesigner_internal15QSimpleResource22handleDomCustomWidgetsEPKNS_28QDesignerFormEditorInterfaceEPKNS_16DomCustomWidgetsE@Base 4.9.0
 _ZN5Katie18qdesigner_internal15QSimpleResource25applyExtensionDataFromDOMEPNS_20QAbstractFormBuilderEPNS_28QDesignerFormEditorInterfaceEPNS_9DomWidgetEPNS_7QWidgetEb@Base 4.9.0
 _ZN5Katie18qdesigner_internal15QSimpleResource30addFakeMethodsToWidgetDataBaseEPKNS_15DomCustomWidgetEPNS0_18WidgetDataBaseItemE@Base 4.9.0
 _ZN5Katie18qdesigner_internal15QSimpleResource32addCustomWidgetsToWidgetDatabaseEPKNS_28QDesignerFormEditorInterfaceERNS_5QListIPNS_15DomCustomWidgetEEE@Base 4.9.0
 _ZN5Katie18qdesigner_internal15QSimpleResource9addScriptERKNS_7QStringENS1_12ScriptSourceERNS_5QListIPNS_9DomScriptEEE@Base 4.9.0
 _ZN5Katie18qdesigner_internal15QSimpleResource9saveBrushERKNS_6QBrushE@Base 4.9.0
 _ZN5Katie18qdesigner_internal15QSimpleResourceC1EPNS_28QDesignerFormEditorInterfaceE@Base 4.9.0
 _ZN5Katie18qdesigner_internal15QSimpleResourceC2EPNS_28QDesignerFormEditorInterfaceE@Base 4.9.0
 _ZN5Katie18qdesigner_internal15QSimpleResourceD0Ev@Base 4.9.0
 _ZN5Katie18qdesigner_internal15QSimpleResourceD1Ev@Base 4.9.0
 _ZN5Katie18qdesigner_internal15QSimpleResourceD2Ev@Base 4.9.0
 _ZN5Katie18qdesigner_internal15TabOrderCommand4initERKNS_5QListIPNS_7QWidgetEEE@Base 4.9.0
 _ZN5Katie18qdesigner_internal15TabOrderCommand4redoEv@Base 4.9.0
 _ZN5Katie18qdesigner_internal15TabOrderCommand4undoEv@Base 4.9.0
 _ZN5Katie18qdesigner_internal15TabOrderCommandC1EPNS_28QDesignerFormWindowInterfaceE@Base 4.9.0
 _ZN5Katie18qdesigner_internal15TabOrderCommandC2EPNS_28QDesignerFormWindowInterfaceE@Base 4.9.0
 _ZN5Katie18qdesigner_internal15ZoomProxyWidget10itemChangeENS_13QGraphicsItem18GraphicsItemChangeERKNS_8QVariantE@Base 4.9.0
 _ZN5Katie18qdesigner_internal15ZoomProxyWidgetC1EPNS_13QGraphicsItemENS_6QFlagsINS_2Qt10WindowTypeEEE@Base 4.9.0
 _ZN5Katie18qdesigner_internal15ZoomProxyWidgetC2EPNS_13QGraphicsItemENS_6QFlagsINS_2Qt10WindowTypeEEE@Base 4.9.0
 _ZN5Katie18qdesigner_internal15designerWarningERKNS_7QStringE@Base 4.9.0
 _ZN5Katie18qdesigner_internal15promotedExtendsEPNS_28QDesignerFormEditorInterfaceEPNS_7QWidgetE@Base 4.9.0
 _ZN5Katie18qdesigner_internal16AddActionCommand4initEPNS_7QActionE@Base 4.9.0
 _ZN5Katie18qdesigner_internal16AddActionCommand4redoEv@Base 4.9.0
 _ZN5Katie18qdesigner_internal16AddActionCommand4undoEv@Base 4.9.0
 _ZN5Katie18qdesigner_internal16AddActionCommandC1EPNS_28QDesignerFormWindowInterfaceE@Base 4.9.0
 _ZN5Katie18qdesigner_internal16AddActionCommandC2EPNS_28QDesignerFormWindowInterfaceE@Base 4.9.0
 _ZN5Katie18qdesigner_internal16DesignerMetaEnumC1ERKNS_7QStringES4_S4_@Base 4.9.0
 _ZN5Katie18qdesigner_internal16DesignerMetaEnumC2ERKNS_7QStringES4_S4_@Base 4.9.0
 _ZN5Katie18qdesigner_internal16LayoutProperties17fromPropertySheetEPKNS_28QDesignerFormEditorInterfaceEPNS_7QLayoutEi@Base 4.9.0
 _ZN5Katie18qdesigner_internal16LayoutProperties17visiblePropertiesEPKNS_7QLayoutE@Base 4.9.0
 _ZN5Katie18qdesigner_internal16LayoutProperties5clearEv@Base 4.9.0
 _ZN5Katie18qdesigner_internal16LayoutPropertiesC1Ev@Base 4.9.0
 _ZN5Katie18qdesigner_internal16LayoutPropertiesC2Ev@Base 4.9.0
 _ZN5Katie18qdesigner_internal16MetaDataBaseItem10setEnabledEb@Base 4.9.0
 _ZN5Katie18qdesigner_internal16MetaDataBaseItem11setTabOrderERKNS_5QListIPNS_7QWidgetEEE@Base 4.9.0
 _ZN5Katie18qdesigner_internal16MetaDataBaseItem12setFakeSlotsERKNS_11QStringListE@Base 4.9.0
 _ZN5Katie18qdesigner_internal16MetaDataBaseItem14setFakeSignalsERKNS_11QStringListE@Base 4.9.0
 _ZN5Katie18qdesigner_internal16MetaDataBaseItem18setCustomClassNameERKNS_7QStringE@Base 4.9.0
 _ZN5Katie18qdesigner_internal16MetaDataBaseItem7setNameERKNS_7QStringE@Base 4.9.0
 _ZN5Katie18qdesigner_internal16MetaDataBaseItem9setScriptERKNS_7QStringE@Base 4.9.0
 _ZN5Katie18qdesigner_internal16MetaDataBaseItemC1EPNS_7QObjectE@Base 4.9.0
 _ZN5Katie18qdesigner_internal16MetaDataBaseItemC2EPNS_7QObjectE@Base 4.9.0
 _ZN5Katie18qdesigner_internal16MetaDataBaseItemD0Ev@Base 4.9.0
 _ZN5Katie18qdesigner_internal16MetaDataBaseItemD1Ev@Base 4.9.0
 _ZN5Katie18qdesigner_internal16MetaDataBaseItemD2Ev@Base 4.9.0
 _ZN5Katie18qdesigner_internal16QDesignerDnDItem4initEPNS_5DomUIEPNS_7QWidgetES5_RKNS_6QPointE@Base 4.9.0
 _ZN5Katie18qdesigner_internal16QDesignerDnDItem8setDomUiEPNS_5DomUIE@Base 4.9.0
 _ZN5Katie18qdesigner_internal16QDesignerDnDItemC1ENS_25QDesignerDnDItemInterface8DropTypeEPNS_7QWidgetE@Base 4.9.0
 _ZN5Katie18qdesigner_internal16QDesignerDnDItemC2ENS_25QDesignerDnDItemInterface8DropTypeEPNS_7QWidgetE@Base 4.9.0
 _ZN5Katie18qdesigner_internal16QDesignerDnDItemD0Ev@Base 4.9.0
 _ZN5Katie18qdesigner_internal16QDesignerDnDItemD1Ev@Base 4.9.0
 _ZN5Katie18qdesigner_internal16QDesignerDnDItemD2Ev@Base 4.9.0
 _ZN5Katie18qdesigner_internal16SignalSlotDialog10showDialogERNS0_20SignalSlotDialogDataES3_@Base 4.9.0
 _ZN5Katie18qdesigner_internal16SignalSlotDialog11qt_metacallENS_11QMetaObject4CallEiPPv@Base 4.9.0
 _ZN5Katie18qdesigner_internal16SignalSlotDialog11qt_metacastEPKc@Base 4.9.0
 _ZN5Katie18qdesigner_internal16SignalSlotDialog16editMetaDataBaseEPNS_28QDesignerFormWindowInterfaceEPNS_7QObjectEPNS_7QWidgetENS1_9FocusModeE@Base 4.9.0
 _ZN5Katie18qdesigner_internal16SignalSlotDialog16staticMetaObjectE@Base 4.9.0
 _ZN5Katie18qdesigner_internal16SignalSlotDialog17editPromotedClassEPNS_28QDesignerFormEditorInterfaceEPNS_7QObjectEPNS_7QWidgetENS1_9FocusModeE@Base 4.9.0
 _ZN5Katie18qdesigner_internal16SignalSlotDialog17editPromotedClassEPNS_28QDesignerFormEditorInterfaceERKNS_7QStringEPNS_7QObjectEPNS_7QWidgetENS1_9FocusModeE@Base 4.9.0
 _ZN5Katie18qdesigner_internal16SignalSlotDialog17editPromotedClassEPNS_28QDesignerFormEditorInterfaceERKNS_7QStringEPNS_7QWidgetENS1_9FocusModeE@Base 4.9.0
 _ZN5Katie18qdesigner_internal16SignalSlotDialog18slotCheckSignatureERKNS_7QStringEPb@Base 4.9.0
 _ZN5Katie18qdesigner_internal16SignalSlotDialog19getStaticMetaObjectEv@Base 4.9.0
 _ZN5Katie18qdesigner_internal16SignalSlotDialogC1EPNS_27QDesignerDialogGuiInterfaceEPNS_7QWidgetENS1_9FocusModeE@Base 4.9.0
 _ZN5Katie18qdesigner_internal16SignalSlotDialogC2EPNS_27QDesignerDialogGuiInterfaceEPNS_7QWidgetENS1_9FocusModeE@Base 4.9.0
 _ZN5Katie18qdesigner_internal16SignalSlotDialogD0Ev@Base 4.9.0
 _ZN5Katie18qdesigner_internal16SignalSlotDialogD1Ev@Base 4.9.0
 _ZN5Katie18qdesigner_internal16SignalSlotDialogD2Ev@Base 4.9.0
 _ZN5Katie18qdesigner_internal16StyleSheetEditor11qt_metacallENS_11QMetaObject4CallEiPPv@Base 4.9.0
 _ZN5Katie18qdesigner_internal16StyleSheetEditor11qt_metacastEPKc@Base 4.9.0
 _ZN5Katie18qdesigner_internal16StyleSheetEditor16staticMetaObjectE@Base 4.9.0
 _ZN5Katie18qdesigner_internal16StyleSheetEditor19getStaticMetaObjectEv@Base 4.9.0
 _ZN5Katie18qdesigner_internal16StyleSheetEditorC1EPNS_7QWidgetE@Base 4.9.0
 _ZN5Katie18qdesigner_internal16StyleSheetEditorC2EPNS_7QWidgetE@Base 4.9.0
 _ZN5Katie18qdesigner_internal16TabWidgetCommand10removePageEv@Base 4.9.0
 _ZN5Katie18qdesigner_internal16TabWidgetCommand4initEPNS_10QTabWidgetE@Base 4.9.0
 _ZN5Katie18qdesigner_internal16TabWidgetCommand7addPageEv@Base 4.9.0
 _ZN5Katie18qdesigner_internal16TabWidgetCommandC1EPNS_28QDesignerFormWindowInterfaceE@Base 4.9.0
 _ZN5Katie18qdesigner_internal16TabWidgetCommandC2EPNS_28QDesignerFormWindowInterfaceE@Base 4.9.0
 _ZN5Katie18qdesigner_internal16TabWidgetCommandD0Ev@Base 4.9.0
 _ZN5Katie18qdesigner_internal16TabWidgetCommandD1Ev@Base 4.9.0
 _ZN5Katie18qdesigner_internal16TabWidgetCommandD2Ev@Base 4.9.0
 _ZN5Katie18qdesigner_internal16buildIncludeFileENS_7QStringENS0_11IncludeTypeE@Base 4.9.0
 _ZN5Katie18qdesigner_internal17AddTabPageCommand4initEPNS_10QTabWidgetE@Base 4.9.0
 _ZN5Katie18qdesigner_internal17AddTabPageCommand4initEPNS_10QTabWidgetENS1_13InsertionModeE@Base 4.9.0
 _ZN5Katie18qdesigner_internal17AddTabPageCommand4redoEv@Base 4.9.0
 _ZN5Katie18qdesigner_internal17AddTabPageCommand4undoEv@Base 4.9.0
 _ZN5Katie18qdesigner_internal17AddTabPageCommandC1EPNS_28QDesignerFormWindowInterfaceE@Base 4.9.0
 _ZN5Katie18qdesigner_internal17AddTabPageCommandC2EPNS_28QDesignerFormWindowInterfaceE@Base 4.9.0
 _ZN5Katie18qdesigner_internal17AddTabPageCommandD0Ev@Base 4.9.0
 _ZN5Katie18qdesigner_internal17AddTabPageCommandD1Ev@Base 4.9.0
 _ZN5Katie18qdesigner_internal17AddTabPageCommandD2Ev@Base 4.9.0
 _ZN5Katie18qdesigner_internal17AddToolBarCommand4initEPNS_11QMainWindowE@Base 4.9.0
 _ZN5Katie18qdesigner_internal17AddToolBarCommand4redoEv@Base 4.9.0
 _ZN5Katie18qdesigner_internal17AddToolBarCommand4undoEv@Base 4.9.0
 _ZN5Katie18qdesigner_internal17AddToolBarCommandC1EPNS_28QDesignerFormWindowInterfaceE@Base 4.9.0
 _ZN5Katie18qdesigner_internal17AddToolBarCommandC2EPNS_28QDesignerFormWindowInterfaceE@Base 4.9.0
 _ZN5Katie18qdesigner_internal17DesignerIconCache11qt_metacallENS_11QMetaObject4CallEiPPv@Base 4.9.0
 _ZN5Katie18qdesigner_internal17DesignerIconCache11qt_metacastEPKc@Base 4.9.0
 _ZN5Katie18qdesigner_internal17DesignerIconCache16staticMetaObjectE@Base 4.9.0
 _ZN5Katie18qdesigner_internal17DesignerIconCache19getStaticMetaObjectEv@Base 4.9.0
 _ZN5Katie18qdesigner_internal17DesignerIconCache5clearEv@Base 4.9.0
 _ZN5Katie18qdesigner_internal17DesignerIconCache8reloadedEv@Base 4.9.0
 _ZN5Katie18qdesigner_internal17DesignerIconCacheC1EPNS0_19DesignerPixmapCacheEPNS_7QObjectE@Base 4.9.0
 _ZN5Katie18qdesigner_internal17DesignerIconCacheC2EPNS0_19DesignerPixmapCacheEPNS_7QObjectE@Base 4.9.0
 _ZN5Katie18qdesigner_internal17DesignerMetaFlagsC1ERKNS_7QStringES4_S4_@Base 4.9.0
 _ZN5Katie18qdesigner_internal17DesignerMetaFlagsC2ERKNS_7QStringES4_S4_@Base 4.9.0
 _ZN5Katie18qdesigner_internal17DockWidgetCommand4initEPNS_11QDockWidgetE@Base 4.9.0
 _ZN5Katie18qdesigner_internal17DockWidgetCommandC1ERKNS_7QStringEPNS_28QDesignerFormWindowInterfaceE@Base 4.9.0
 _ZN5Katie18qdesigner_internal17DockWidgetCommandC2ERKNS_7QStringEPNS_28QDesignerFormWindowInterfaceE@Base 4.9.0
 _ZN5Katie18qdesigner_internal17DockWidgetCommandD0Ev@Base 4.9.0
 _ZN5Katie18qdesigner_internal17DockWidgetCommandD1Ev@Base 4.9.0
 _ZN5Katie18qdesigner_internal17DockWidgetCommandD2Ev@Base 4.9.0
 _ZN5Katie18qdesigner_internal17MenuActionCommand10insertMenuEv@Base 4.9.0
 _ZN5Katie18qdesigner_internal17MenuActionCommand10removeMenuEv@Base 4.9.0
 _ZN5Katie18qdesigner_internal17MenuActionCommand4initEPNS_7QActionES3_PNS_7QWidgetES5_@Base 4.9.0
 _ZN5Katie18qdesigner_internal17MenuActionCommandC1ERKNS_7QStringEPNS_28QDesignerFormWindowInterfaceE@Base 4.9.0
 _ZN5Katie18qdesigner_internal17MenuActionCommandC2ERKNS_7QStringEPNS_28QDesignerFormWindowInterfaceE@Base 4.9.0
 _ZN5Katie18qdesigner_internal17PromotionTaskMenu10addActionsEPNS_28QDesignerFormWindowInterfaceEjPNS_5QMenuE@Base 4.9.0
 _ZN5Katie18qdesigner_internal17PromotionTaskMenu10addActionsEPNS_28QDesignerFormWindowInterfaceEjRNS_5QListIPNS_7QActionEEE@Base 4.9.0
 _ZN5Katie18qdesigner_internal17PromotionTaskMenu10addActionsEjPNS_5QMenuE@Base 4.9.0
 _ZN5Katie18qdesigner_internal17PromotionTaskMenu10addActionsEjRNS_5QListIPNS_7QActionEEE@Base 4.9.0
 _ZN5Katie18qdesigner_internal17PromotionTaskMenu11qt_metacallENS_11QMetaObject4CallEiPPv@Base 4.9.0
 _ZN5Katie18qdesigner_internal17PromotionTaskMenu11qt_metacastEPKc@Base 4.9.0
 _ZN5Katie18qdesigner_internal17PromotionTaskMenu14setDemoteLabelERKNS_7QStringE@Base 4.9.0
 _ZN5Katie18qdesigner_internal17PromotionTaskMenu15setPromoteLabelERKNS_7QStringE@Base 4.9.0
 _ZN5Katie18qdesigner_internal17PromotionTaskMenu16staticMetaObjectE@Base 4.9.0
 _ZN5Katie18qdesigner_internal17PromotionTaskMenu17slotEditPromoteToEv@Base 4.9.0
 _ZN5Katie18qdesigner_internal17PromotionTaskMenu19editPromotedWidgetsEPNS_28QDesignerFormEditorInterfaceEPNS_7QWidgetE@Base 4.9.0
 _ZN5Katie18qdesigner_internal17PromotionTaskMenu19getStaticMetaObjectEv@Base 4.9.0
 _ZN5Katie18qdesigner_internal17PromotionTaskMenu20slotEditSignalsSlotsEv@Base 4.9.0
 _ZN5Katie18qdesigner_internal17PromotionTaskMenu21setEditPromoteToLabelERKNS_7QStringE@Base 4.9.0
 _ZN5Katie18qdesigner_internal17PromotionTaskMenu22createPromotionActionsEPNS_28QDesignerFormWindowInterfaceE@Base 4.9.0
 _ZN5Katie18qdesigner_internal17PromotionTaskMenu23slotEditPromotedWidgetsEv@Base 4.9.0
 _ZN5Katie18qdesigner_internal17PromotionTaskMenu25slotPromoteToCustomWidgetERKNS_7QStringE@Base 4.9.0
 _ZN5Katie18qdesigner_internal17PromotionTaskMenu26slotDemoteFromCustomWidgetEv@Base 4.9.0
 _ZN5Katie18qdesigner_internal17PromotionTaskMenu7setModeENS1_4ModeE@Base 4.9.0
 _ZN5Katie18qdesigner_internal17PromotionTaskMenu9promoteToEPNS_28QDesignerFormWindowInterfaceERKNS_7QStringE@Base 4.9.0
 _ZN5Katie18qdesigner_internal17PromotionTaskMenu9setWidgetEPNS_7QWidgetE@Base 4.9.0
 _ZN5Katie18qdesigner_internal17PromotionTaskMenuC1EPNS_7QWidgetENS1_4ModeEPNS_7QObjectE@Base 4.9.0
 _ZN5Katie18qdesigner_internal17PromotionTaskMenuC2EPNS_7QWidgetENS1_4ModeEPNS_7QObjectE@Base 4.9.0
 _ZN5Katie18qdesigner_internal17QDesignerMimeData11qt_metacallENS_11QMetaObject4CallEiPPv@Base 4.9.0
 _ZN5Katie18qdesigner_internal17QDesignerMimeData11qt_metacastEPKc@Base 4.9.0
 _ZN5Katie18qdesigner_internal17QDesignerMimeData16staticMetaObjectE@Base 4.9.0
 _ZN5Katie18qdesigner_internal17QDesignerMimeData19getStaticMetaObjectEv@Base 4.9.0
 _ZN5Katie18qdesigner_internal17QDesignerMimeData20setImageTransparencyERNS_6QImageEi@Base 4.9.0
 _ZN5Katie18qdesigner_internal17QDesignerMimeData21acceptEventWithActionENS_2Qt10DropActionEPNS_10QDropEventE@Base 4.9.0
 _ZN5Katie18qdesigner_internal17QDesignerMimeData32removeMovedWidgetsFromSourceFormERKNS_5QListIPNS_25QDesignerDnDItemInterfaceEEE@Base 4.9.0
 _ZN5Katie18qdesigner_internal17QDesignerMimeData8execDragERKNS_5QListIPNS_25QDesignerDnDItemInterfaceEEEPNS_7QWidgetE@Base 4.9.0
 _ZN5Katie18qdesigner_internal17QDesignerMimeDataC1ERKNS_5QListIPNS_25QDesignerDnDItemInterfaceEEEPNS_5QDragE@Base 4.9.0
 _ZN5Katie18qdesigner_internal17QDesignerMimeDataC2ERKNS_5QListIPNS_25QDesignerDnDItemInterfaceEEEPNS_5QDragE@Base 4.9.0
 _ZN5Katie18qdesigner_internal17QDesignerMimeDataD0Ev@Base 4.9.0
 _ZN5Katie18qdesigner_internal17QDesignerMimeDataD1Ev@Base 4.9.0
 _ZN5Katie18qdesigner_internal17QDesignerMimeDataD2Ev@Base 4.9.0
 _ZN5Katie18qdesigner_internal17QDesignerTaskMenu10addToolBarEv@Base 4.9.0
 _ZN5Katie18qdesigner_internal17QDesignerTaskMenu11qt_metacallENS_11QMetaObject4CallEiPPv@Base 4.9.0
 _ZN5Katie18qdesigner_internal17QDesignerTaskMenu11qt_metacastEPKc@Base 4.9.0
 _ZN5Katie18qdesigner_internal17QDesignerTaskMenu11setPropertyEPNS_28QDesignerFormWindowInterfaceENS1_12PropertyModeERKNS_7QStringERKNS_8QVariantE@Base 4.9.0
 _ZN5Katie18qdesigner_internal17QDesignerTaskMenu12changeScriptEv@Base 4.9.0
 _ZN5Katie18qdesigner_internal17QDesignerTaskMenu13changeToolTipEv@Base 4.9.0
 _ZN5Katie18qdesigner_internal17QDesignerTaskMenu13createMenuBarEv@Base 4.9.0
 _ZN5Katie18qdesigner_internal17QDesignerTaskMenu14navigateToSlotEPNS_28QDesignerFormEditorInterfaceEPNS_7QObjectERKNS_7QStringE@Base 4.9.0
 _ZN5Katie18qdesigner_internal17QDesignerTaskMenu15changeWhatsThisEv@Base 4.9.0
 _ZN5Katie18qdesigner_internal17QDesignerTaskMenu15createSeparatorEv@Base 4.9.0
 _ZN5Katie18qdesigner_internal17QDesignerTaskMenu15createStatusBarEv@Base 4.9.0
 _ZN5Katie18qdesigner_internal17QDesignerTaskMenu15removeStatusBarEv@Base 4.9.0
 _ZN5Katie18qdesigner_internal17QDesignerTaskMenu16changeObjectNameEv@Base 4.9.0
 _ZN5Katie18qdesigner_internal17QDesignerTaskMenu16changeStyleSheetEv@Base 4.9.0
 _ZN5Katie18qdesigner_internal17QDesignerTaskMenu16staticMetaObjectE@Base 4.9.0
 _ZN5Katie18qdesigner_internal17QDesignerTaskMenu18changeTextPropertyERKNS_7QStringES4_NS1_12PropertyModeENS_2Qt10TextFormatE@Base 4.9.0
 _ZN5Katie18qdesigner_internal17QDesignerTaskMenu18slotNavigateToSlotEv@Base 4.9.0
 _ZN5Katie18qdesigner_internal17QDesignerTaskMenu19getStaticMetaObjectEv@Base 4.9.0
 _ZN5Katie18qdesigner_internal17QDesignerTaskMenu19slotLayoutAlignmentEv@Base 4.9.0
 _ZN5Katie18qdesigner_internal17QDesignerTaskMenu20containerFakeMethodsEv@Base 4.9.0
 _ZN5Katie18qdesigner_internal17QDesignerTaskMenu23isSlotNavigationEnabledEPKNS_28QDesignerFormEditorInterfaceE@Base 4.9.0
 _ZN5Katie18qdesigner_internal17QDesignerTaskMenu9applySizeEPNS_7QActionE@Base 4.9.0
 _ZN5Katie18qdesigner_internal17QDesignerTaskMenuC1EPNS_7QWidgetEPNS_7QObjectE@Base 4.9.0
 _ZN5Katie18qdesigner_internal17QDesignerTaskMenuC2EPNS_7QWidgetEPNS_7QObjectE@Base 4.9.0
 _ZN5Katie18qdesigner_internal17QDesignerTaskMenuD0Ev@Base 4.9.0
 _ZN5Katie18qdesigner_internal17QDesignerTaskMenuD1Ev@Base 4.9.0
 _ZN5Katie18qdesigner_internal17QDesignerTaskMenuD2Ev@Base 4.9.0
 _ZN5Katie18qdesigner_internal17ScriptErrorDialog11qt_metacallENS_11QMetaObject4CallEiPPv@Base 4.9.0
 _ZN5Katie18qdesigner_internal17ScriptErrorDialog11qt_metacastEPKc@Base 4.9.0
 _ZN5Katie18qdesigner_internal17ScriptErrorDialog16staticMetaObjectE@Base 4.9.0
 _ZN5Katie18qdesigner_internal17ScriptErrorDialog19getStaticMetaObjectEv@Base 4.9.0
 _ZN5Katie18qdesigner_internal17ScriptErrorDialogC1ERKNS_5QListINS_17QFormScriptRunner5ErrorEEEPNS_7QWidgetE@Base 4.9.0
 _ZN5Katie18qdesigner_internal17ScriptErrorDialogC2ERKNS_5QListINS_17QFormScriptRunner5ErrorEEEPNS_7QWidgetE@Base 4.9.0
 _ZN5Katie18qdesigner_internal18BreakLayoutCommand4initERKNS_5QListIPNS_7QWidgetEEES4_b@Base 4.9.0
 _ZN5Katie18qdesigner_internal18BreakLayoutCommand4redoEv@Base 4.9.0
 _ZN5Katie18qdesigner_internal18BreakLayoutCommand4undoEv@Base 4.9.0
 _ZN5Katie18qdesigner_internal18BreakLayoutCommandC1EPNS_28QDesignerFormWindowInterfaceE@Base 4.9.0
 _ZN5Katie18qdesigner_internal18BreakLayoutCommandC2EPNS_28QDesignerFormWindowInterfaceE@Base 4.9.0
 _ZN5Katie18qdesigner_internal18BreakLayoutCommandD0Ev@Base 4.9.0
 _ZN5Katie18qdesigner_internal18BreakLayoutCommandD1Ev@Base 4.9.0
 _ZN5Katie18qdesigner_internal18BreakLayoutCommandD2Ev@Base 4.9.0
 _ZN5Katie18qdesigner_internal18LowerWidgetCommand4initEPNS_7QWidgetE@Base 4.9.0
 _ZN5Katie18qdesigner_internal18LowerWidgetCommandC1EPNS_28QDesignerFormWindowInterfaceE@Base 4.9.0
 _ZN5Katie18qdesigner_internal18LowerWidgetCommandC2EPNS_28QDesignerFormWindowInterfaceE@Base 4.9.0
 _ZN5Katie18qdesigner_internal18MorphLayoutCommand17formatDescriptionEPNS_28QDesignerFormEditorInterfaceEPKNS_7QWidgetEii@Base 4.9.0
 _ZN5Katie18qdesigner_internal18MorphLayoutCommand4initEPNS_7QWidgetEi@Base 4.9.0
 _ZN5Katie18qdesigner_internal18MorphLayoutCommand4redoEv@Base 4.9.0
 _ZN5Katie18qdesigner_internal18MorphLayoutCommand4undoEv@Base 4.9.0
 _ZN5Katie18qdesigner_internal18MorphLayoutCommand8canMorphEPKNS_28QDesignerFormWindowInterfaceEPNS_7QWidgetEPi@Base 4.9.0
 _ZN5Katie18qdesigner_internal18MorphLayoutCommandC1EPNS_28QDesignerFormWindowInterfaceE@Base 4.9.0
 _ZN5Katie18qdesigner_internal18MorphLayoutCommandC2EPNS_28QDesignerFormWindowInterfaceE@Base 4.9.0
 _ZN5Katie18qdesigner_internal18MorphLayoutCommandD0Ev@Base 4.9.0
 _ZN5Katie18qdesigner_internal18MorphLayoutCommandD1Ev@Base 4.9.0
 _ZN5Katie18qdesigner_internal18MorphLayoutCommandD2Ev@Base 4.9.0
 _ZN5Katie18qdesigner_internal18MoveTabPageCommand4initEPNS_10QTabWidgetEPNS_7QWidgetERKNS_5QIconERKNS_7QStringEii@Base 4.9.0
 _ZN5Katie18qdesigner_internal18MoveTabPageCommand4redoEv@Base 4.9.0
 _ZN5Katie18qdesigner_internal18MoveTabPageCommand4undoEv@Base 4.9.0
 _ZN5Katie18qdesigner_internal18MoveTabPageCommandC1EPNS_28QDesignerFormWindowInterfaceE@Base 4.9.0
 _ZN5Katie18qdesigner_internal18MoveTabPageCommandC2EPNS_28QDesignerFormWindowInterfaceE@Base 4.9.0
 _ZN5Katie18qdesigner_internal18MoveTabPageCommandD0Ev@Base 4.9.0
 _ZN5Katie18qdesigner_internal18MoveTabPageCommandD1Ev@Base 4.9.0
 _ZN5Katie18qdesigner_internal18MoveTabPageCommandD2Ev@Base 4.9.0
 _ZN5Katie18qdesigner_internal18QDesignerPromotion16addPromotedClassERKNS_7QStringES4_S4_PS2_@Base 4.9.0
 _ZN5Katie18qdesigner_internal18QDesignerPromotion19removePromotedClassERKNS_7QStringEPS2_@Base 4.9.0
 _ZN5Katie18qdesigner_internal18QDesignerPromotion22refreshObjectInspectorEv@Base 4.9.0
 _ZN5Katie18qdesigner_internal18QDesignerPromotion23changePromotedClassNameERKNS_7QStringES4_PS2_@Base 4.9.0
 _ZN5Katie18qdesigner_internal18QDesignerPromotion27setPromotedClassIncludeFileERKNS_7QStringES4_PS2_@Base 4.9.0
 _ZN5Katie18qdesigner_internal18QDesignerPromotionC1EPNS_28QDesignerFormEditorInterfaceE@Base 4.9.0
 _ZN5Katie18qdesigner_internal18QDesignerPromotionC2EPNS_28QDesignerFormEditorInterfaceE@Base 4.9.0
 _ZN5Katie18qdesigner_internal18QDesignerWidgetBox10findWidgetEPKNS_27QDesignerWidgetBoxInterfaceERKNS_7QStringES7_PNS2_6WidgetE@Base 4.9.0
 _ZN5Katie18qdesigner_internal18QDesignerWidgetBox11qt_metacallENS_11QMetaObject4CallEiPPv@Base 4.9.0
 _ZN5Katie18qdesigner_internal18QDesignerWidgetBox11qt_metacastEPKc@Base 4.9.0
 _ZN5Katie18qdesigner_internal18QDesignerWidgetBox11setLoadModeENS1_8LoadModeE@Base 4.9.0
 _ZN5Katie18qdesigner_internal18QDesignerWidgetBox16staticMetaObjectE@Base 4.9.0
 _ZN5Katie18qdesigner_internal18QDesignerWidgetBox19getStaticMetaObjectEv@Base 4.9.0
 _ZN5Katie18qdesigner_internal18QDesignerWidgetBox7xmlToUiERKNS_7QStringES4_b@Base 4.9.0
 _ZN5Katie18qdesigner_internal18QDesignerWidgetBox7xmlToUiERKNS_7QStringES4_bPS2_@Base 4.9.0
 _ZN5Katie18qdesigner_internal18QDesignerWidgetBoxC1EPNS_7QWidgetENS_6QFlagsINS_2Qt10WindowTypeEEE@Base 4.9.0
 _ZN5Katie18qdesigner_internal18QDesignerWidgetBoxC2EPNS_7QWidgetENS_6QFlagsINS_2Qt10WindowTypeEEE@Base 4.9.0
 _ZN5Katie18qdesigner_internal18RaiseWidgetCommand4initEPNS_7QWidgetE@Base 4.9.0
 _ZN5Katie18qdesigner_internal18RaiseWidgetCommandC1EPNS_28QDesignerFormWindowInterfaceE@Base 4.9.0
 _ZN5Katie18qdesigner_internal18RaiseWidgetCommandC2EPNS_28QDesignerFormWindowInterfaceE@Base 4.9.0
 _ZN5Katie18qdesigner_internal18SetPropertyCommand10mergeValueERKNS_8QVariantE@Base 4.9.0
 _ZN5Katie18qdesigner_internal18SetPropertyCommand14setDescriptionEv@Base 4.9.0
 _ZN5Katie18qdesigner_internal18SetPropertyCommand15subPropertyMaskERKNS_8QVariantEPNS_7QObjectE@Base 4.9.0
 _ZN5Katie18qdesigner_internal18SetPropertyCommand4initEPNS_7QObjectERKNS_7QStringERKNS_8QVariantE@Base 4.9.0
 _ZN5Katie18qdesigner_internal18SetPropertyCommand4initERKNS_5QListIPNS_7QObjectEEERKNS_7QStringERKNS_8QVariantES4_b@Base 4.9.0
 _ZN5Katie18qdesigner_internal18SetPropertyCommand4redoEv@Base 4.9.0
 _ZN5Katie18qdesigner_internal18SetPropertyCommand9mergeWithEPKNS_12QUndoCommandE@Base 4.9.0
 _ZN5Katie18qdesigner_internal18SetPropertyCommandC1EPNS_28QDesignerFormWindowInterfaceEPNS_12QUndoCommandE@Base 4.9.0
 _ZN5Katie18qdesigner_internal18SetPropertyCommandC2EPNS_28QDesignerFormWindowInterfaceEPNS_12QUndoCommandE@Base 4.9.0
 _ZN5Katie18qdesigner_internal18TextPropertyEditor11qt_metacallENS_11QMetaObject4CallEiPPv@Base 4.9.0
 _ZN5Katie18qdesigner_internal18TextPropertyEditor11qt_metacastEPKc@Base 4.9.0
 _ZN5Katie18qdesigner_internal18TextPropertyEditor11resizeEventEPNS_12QResizeEventE@Base 4.9.0
 _ZN5Katie18qdesigner_internal18TextPropertyEditor11textChangedERKNS_7QStringE@Base 4.9.0
 _ZN5Katie18qdesigner_internal18TextPropertyEditor12setAlignmentENS_6QFlagsINS_2Qt13AlignmentFlagEEE@Base 4.9.0
 _ZN5Katie18qdesigner_internal18TextPropertyEditor14slotTextEditedEv@Base 4.9.0
 _ZN5Katie18qdesigner_internal18TextPropertyEditor15editingFinishedEv@Base 4.9.0
 _ZN5Katie18qdesigner_internal18TextPropertyEditor15slotTextChangedERKNS_7QStringE@Base 4.9.0
 _ZN5Katie18qdesigner_internal18TextPropertyEditor16staticMetaObjectE@Base 4.9.0
 _ZN5Katie18qdesigner_internal18TextPropertyEditor18installEventFilterEPNS_7QObjectE@Base 4.9.0
 _ZN5Katie18qdesigner_internal18TextPropertyEditor18setRegExpValidatorERKNS_7QStringE@Base 4.9.0
 _ZN5Katie18qdesigner_internal18TextPropertyEditor19getStaticMetaObjectEv@Base 4.9.0
 _ZN5Katie18qdesigner_internal18TextPropertyEditor19slotEditingFinishedEv@Base 4.9.0
 _ZN5Katie18qdesigner_internal18TextPropertyEditor20editorStringToStringERKNS_7QStringENS0_26TextPropertyValidationModeE@Base 4.9.0
 _ZN5Katie18qdesigner_internal18TextPropertyEditor20stringToEditorStringERKNS_7QStringENS0_26TextPropertyValidationModeE@Base 4.9.0
 _ZN5Katie18qdesigner_internal18TextPropertyEditor21markIntermediateStateEv@Base 4.9.0
 _ZN5Katie18qdesigner_internal18TextPropertyEditor29setTextPropertyValidationModeENS0_26TextPropertyValidationModeE@Base 4.9.0
 _ZN5Katie18qdesigner_internal18TextPropertyEditor5clearEv@Base 4.9.0
 _ZN5Katie18qdesigner_internal18TextPropertyEditor7setTextERKNS_7QStringE@Base 4.9.0
 _ZN5Katie18qdesigner_internal18TextPropertyEditor9multiLineENS0_26TextPropertyValidationModeE@Base 4.9.0
 _ZN5Katie18qdesigner_internal18TextPropertyEditor9selectAllEv@Base 4.9.0
 _ZN5Katie18qdesigner_internal18TextPropertyEditorC1EPNS_7QWidgetENS1_13EmbeddingModeENS0_26TextPropertyValidationModeE@Base 4.9.0
 _ZN5Katie18qdesigner_internal18TextPropertyEditorC2EPNS_7QWidgetENS1_13EmbeddingModeENS0_26TextPropertyValidationModeE@Base 4.9.0
 _ZN5Katie18qdesigner_internal18ToolBarEventFilter10handleAreaEPKNS_8QToolBarE@Base 4.9.0
 _ZN5Katie18qdesigner_internal18ToolBarEventFilter11eventFilterEPNS_7QObjectEPNS_6QEventE@Base 4.9.0
 _ZN5Katie18qdesigner_internal18ToolBarEventFilter11qt_metacallENS_11QMetaObject4CallEiPPv@Base 4.9.0
 _ZN5Katie18qdesigner_internal18ToolBarEventFilter11qt_metacastEPKc@Base 4.9.0
 _ZN5Katie18qdesigner_internal18ToolBarEventFilter12createActionEPNS_28QDesignerFormWindowInterfaceERKNS_7QStringEb@Base 4.9.0
 _ZN5Katie18qdesigner_internal18ToolBarEventFilter13eventFilterOfEPKNS_8QToolBarE@Base 4.9.0
 _ZN5Katie18qdesigner_internal18ToolBarEventFilter15handleDropEventEPNS_10QDropEventE@Base 4.9.0
 _ZN5Katie18qdesigner_internal18ToolBarEventFilter16staticMetaObjectE@Base 4.9.0
 _ZN5Katie18qdesigner_internal18ToolBarEventFilter16withinHandleAreaEPKNS_8QToolBarERKNS_6QPointE@Base 4.9.0
 _ZN5Katie18qdesigner_internal18ToolBarEventFilter17hideDragIndicatorEv@Base 4.9.0
 _ZN5Katie18qdesigner_internal18ToolBarEventFilter17slotRemoveToolBarEv@Base 4.9.0
 _ZN5Katie18qdesigner_internal18ToolBarEventFilter18contextMenuActionsERKNS_6QPointE@Base 4.9.0
 _ZN5Katie18qdesigner_internal18ToolBarEventFilter19adjustDragIndicatorERKNS_6QPointE@Base 4.9.0
 _ZN5Katie18qdesigner_internal18ToolBarEventFilter19getStaticMetaObjectEv@Base 4.9.0
 _ZN5Katie18qdesigner_internal18ToolBarEventFilter19slotInsertSeparatorEv@Base 4.9.0
 _ZN5Katie18qdesigner_internal18ToolBarEventFilter20handleDragLeaveEventEPNS_15QDragLeaveEventE@Base 4.9.0
 _ZN5Katie18qdesigner_internal18ToolBarEventFilter20handleMouseMoveEventEPNS_11QMouseEventE@Base 4.9.0
 _ZN5Katie18qdesigner_internal18ToolBarEventFilter21handleMousePressEventEPNS_11QMouseEventE@Base 4.9.0
 _ZN5Katie18qdesigner_internal18ToolBarEventFilter22handleContextMenuEventEPNS_17QContextMenuEventE@Base 4.9.0
 _ZN5Katie18qdesigner_internal18ToolBarEventFilter23handleMouseReleaseEventEPNS_11QMouseEventE@Base 4.9.0
 _ZN5Katie18qdesigner_internal18ToolBarEventFilter24handleDragEnterMoveEventEPNS_14QDragMoveEventE@Base 4.9.0
 _ZN5Katie18qdesigner_internal18ToolBarEventFilter24slotRemoveSelectedActionEv@Base 4.9.0
 _ZN5Katie18qdesigner_internal18ToolBarEventFilter7installEPNS_8QToolBarE@Base 4.9.0
 _ZN5Katie18qdesigner_internal18ToolBarEventFilter8actionAtEPKNS_8QToolBarERKNS_6QPointE@Base 4.9.0
 _ZN5Katie18qdesigner_internal18ToolBarEventFilter8freeAreaEPKNS_8QToolBarE@Base 4.9.0
 _ZN5Katie18qdesigner_internal18ToolBarEventFilter9startDragERKNS_6QPointENS_6QFlagsINS_2Qt16KeyboardModifierEEE@Base 4.9.0
 _ZN5Katie18qdesigner_internal18ToolBarEventFilterC1EPNS_8QToolBarE@Base 4.9.0
 _ZN5Katie18qdesigner_internal18ToolBarEventFilterC2EPNS_8QToolBarE@Base 4.9.0
 _ZN5Katie18qdesigner_internal18TreeWidgetContents12ItemContentsC1EPKNS_15QTreeWidgetItemEb@Base 4.9.0
 _ZN5Katie18qdesigner_internal18TreeWidgetContents12ItemContentsC2EPKNS_15QTreeWidgetItemEb@Base 4.9.0
 _ZN5Katie18qdesigner_internal18TreeWidgetContents14fromTreeWidgetEPKNS_11QTreeWidgetEb@Base 4.9.0
 _ZN5Katie18qdesigner_internal18TreeWidgetContents5clearEv@Base 4.9.0
 _ZN5Katie18qdesigner_internal18WidgetDataBaseItem10setExtendsERKNS_7QStringE@Base 4.9.0
 _ZN5Katie18qdesigner_internal18WidgetDataBaseItem10setToolTipERKNS_7QStringE@Base 4.9.0
 _ZN5Katie18qdesigner_internal18WidgetDataBaseItem11setPromotedEb@Base 4.9.0
 _ZN5Katie18qdesigner_internal18WidgetDataBaseItem12setContainerEb@Base 4.9.0
 _ZN5Katie18qdesigner_internal18WidgetDataBaseItem12setFakeSlotsERKNS_11QStringListE@Base 4.9.0
 _ZN5Katie18qdesigner_internal18WidgetDataBaseItem12setWhatsThisERKNS_7QStringE@Base 4.9.0
 _ZN5Katie18qdesigner_internal18WidgetDataBaseItem13setPluginPathERKNS_7QStringE@Base 4.9.0
 _ZN5Katie18qdesigner_internal18WidgetDataBaseItem14setFakeSignalsERKNS_11QStringListE@Base 4.9.0
 _ZN5Katie18qdesigner_internal18WidgetDataBaseItem14setIncludeFileERKNS_7QStringE@Base 4.9.0
 _ZN5Katie18qdesigner_internal18WidgetDataBaseItem16setAddPageMethodERKNS_7QStringE@Base 4.9.0
 _ZN5Katie18qdesigner_internal18WidgetDataBaseItem24setDefaultPropertyValuesERKNS_5QListINS_8QVariantEEE@Base 4.9.0
 _ZN5Katie18qdesigner_internal18WidgetDataBaseItem5cloneEPKNS_36QDesignerWidgetDataBaseItemInterfaceE@Base 4.9.0
 _ZN5Katie18qdesigner_internal18WidgetDataBaseItem7setIconERKNS_5QIconE@Base 4.9.0
 _ZN5Katie18qdesigner_internal18WidgetDataBaseItem7setNameERKNS_7QStringE@Base 4.9.0
 _ZN5Katie18qdesigner_internal18WidgetDataBaseItem8setGroupERKNS_7QStringE@Base 4.9.0
 _ZN5Katie18qdesigner_internal18WidgetDataBaseItem9setCompatEb@Base 4.9.0
 _ZN5Katie18qdesigner_internal18WidgetDataBaseItem9setCustomEb@Base 4.9.0
 _ZN5Katie18qdesigner_internal18WidgetDataBaseItemC1ERKNS_7QStringES4_@Base 4.9.0
 _ZN5Katie18qdesigner_internal18WidgetDataBaseItemC2ERKNS_7QStringES4_@Base 4.9.0
 _ZN5Katie18qdesigner_internal19ChangeZOrderCommand4initEPNS_7QWidgetE@Base 4.9.0
 _ZN5Katie18qdesigner_internal19ChangeZOrderCommand4redoEv@Base 4.9.0
 _ZN5Katie18qdesigner_internal19ChangeZOrderCommand4undoEv@Base 4.9.0
 _ZN5Katie18qdesigner_internal19ChangeZOrderCommandC1EPNS_28QDesignerFormWindowInterfaceE@Base 4.9.0
 _ZN5Katie18qdesigner_internal19ChangeZOrderCommandC2EPNS_28QDesignerFormWindowInterfaceE@Base 4.9.0
 _ZN5Katie18qdesigner_internal19DeleteWidgetCommand4initEPNS_7QWidgetEj@Base 4.9.0
 _ZN5Katie18qdesigner_internal19DeleteWidgetCommand4redoEv@Base 4.9.0
 _ZN5Katie18qdesigner_internal19DeleteWidgetCommand4undoEv@Base 4.9.0
 _ZN5Katie18qdesigner_internal19DeleteWidgetCommandC1EPNS_28QDesignerFormWindowInterfaceE@Base 4.9.0
 _ZN5Katie18qdesigner_internal19DeleteWidgetCommandC2EPNS_28QDesignerFormWindowInterfaceE@Base 4.9.0
 _ZN5Katie18qdesigner_internal19DeleteWidgetCommandD0Ev@Base 4.9.0
 _ZN5Katie18qdesigner_internal19DeleteWidgetCommandD1Ev@Base 4.9.0
 _ZN5Katie18qdesigner_internal19DeleteWidgetCommandD2Ev@Base 4.9.0
 _ZN5Katie18qdesigner_internal19DesignerPixmapCache11qt_metacallENS_11QMetaObject4CallEiPPv@Base 4.9.0
 _ZN5Katie18qdesigner_internal19DesignerPixmapCache11qt_metacastEPKc@Base 4.9.0
 _ZN5Katie18qdesigner_internal19DesignerPixmapCache16staticMetaObjectE@Base 4.9.0
 _ZN5Katie18qdesigner_internal19DesignerPixmapCache19getStaticMetaObjectEv@Base 4.9.0
 _ZN5Katie18qdesigner_internal19DesignerPixmapCache5clearEv@Base 4.9.0
 _ZN5Katie18qdesigner_internal19DesignerPixmapCache8reloadedEv@Base 4.9.0
 _ZN5Katie18qdesigner_internal19DesignerPixmapCacheC1EPNS_7QObjectE@Base 4.9.0
 _ZN5Katie18qdesigner_internal19DesignerPixmapCacheC2EPNS_7QObjectE@Base 4.9.0
 _ZN5Katie18qdesigner_internal19InsertWidgetCommand18refreshBuddyLabelsEv@Base 4.9.0
 _ZN5Katie18qdesigner_internal19InsertWidgetCommand4initEPNS_7QWidgetEbii@Base 4.9.0
 _ZN5Katie18qdesigner_internal19InsertWidgetCommand4redoEv@Base 4.9.0
 _ZN5Katie18qdesigner_internal19InsertWidgetCommand4undoEv@Base 4.9.0
 _ZN5Katie18qdesigner_internal19InsertWidgetCommandC1EPNS_28QDesignerFormWindowInterfaceE@Base 4.9.0
 _ZN5Katie18qdesigner_internal19InsertWidgetCommandC2EPNS_28QDesignerFormWindowInterfaceE@Base 4.9.0
 _ZN5Katie18qdesigner_internal19InsertWidgetCommandD0Ev@Base 4.9.0
 _ZN5Katie18qdesigner_internal19InsertWidgetCommandD1Ev@Base 4.9.0
 _ZN5Katie18qdesigner_internal19InsertWidgetCommandD2Ev@Base 4.9.0
 _ZN5Katie18qdesigner_internal19PropertyListCommand11setOldValueERKNS_8QVariantEi@Base 4.9.0
 _ZN5Katie18qdesigner_internal19PropertyListCommand15restoreOldValueEv@Base 4.9.0
 _ZN5Katie18qdesigner_internal19PropertyListCommand19PropertyDescriptionC1ERKNS_7QStringEPNS_31QDesignerPropertySheetExtensionEi@Base 4.9.0
 _ZN5Katie18qdesigner_internal19PropertyListCommand19PropertyDescriptionC1Ev@Base 4.9.0
 _ZN5Katie18qdesigner_internal19PropertyListCommand19PropertyDescriptionC2ERKNS_7QStringEPNS_31QDesignerPropertySheetExtensionEi@Base 4.9.0
 _ZN5Katie18qdesigner_internal19PropertyListCommand19PropertyDescriptionC2Ev@Base 4.9.0
 _ZN5Katie18qdesigner_internal19PropertyListCommand19restoreDefaultValueEv@Base 4.9.0
 _ZN5Katie18qdesigner_internal19PropertyListCommand3addEPNS_7QObjectERKNS_7QStringE@Base 4.9.0
 _ZN5Katie18qdesigner_internal19PropertyListCommand4undoEv@Base 4.9.0
 _ZN5Katie18qdesigner_internal19PropertyListCommand6updateEj@Base 4.9.0
 _ZN5Katie18qdesigner_internal19PropertyListCommand8initListERKNS_5QListIPNS_7QObjectEEERKNS_7QStringES4_@Base 4.9.0
 _ZN5Katie18qdesigner_internal19PropertyListCommand8setValueERKNS_8QVariantEbj@Base 4.9.0
 _ZN5Katie18qdesigner_internal19PropertyListCommandC1EPNS_28QDesignerFormWindowInterfaceEPNS_12QUndoCommandE@Base 4.9.0
 _ZN5Katie18qdesigner_internal19PropertyListCommandC2EPNS_28QDesignerFormWindowInterfaceEPNS_12QUndoCommandE@Base 4.9.0
 _ZN5Katie18qdesigner_internal19QDesignerWidgetItem11eventFilterEPNS_7QObjectEPNS_6QEventE@Base 4.9.0
 _ZN5Katie18qdesigner_internal19QDesignerWidgetItem11isContainerEPKNS_28QDesignerFormEditorInterfaceEPNS_7QWidgetE@Base 4.9.0
 _ZN5Katie18qdesigner_internal19QDesignerWidgetItem11qt_metacallENS_11QMetaObject4CallEiPPv@Base 4.9.0
 _ZN5Katie18qdesigner_internal19QDesignerWidgetItem11qt_metacastEPKc@Base 4.9.0
 _ZN5Katie18qdesigner_internal19QDesignerWidgetItem13layoutChangedEv@Base 4.9.0
 _ZN5Katie18qdesigner_internal19QDesignerWidgetItem16staticMetaObjectE@Base 4.9.0
 _ZN5Katie18qdesigner_internal19QDesignerWidgetItem16subjectToStretchEPKNS_7QLayoutEPNS_7QWidgetE@Base 4.9.0
 _ZN5Katie18qdesigner_internal19QDesignerWidgetItem19getStaticMetaObjectEv@Base 4.9.0
 _ZN5Katie18qdesigner_internal19QDesignerWidgetItem20setNonLaidOutMinSizeERKNS_5QSizeE@Base 4.9.0
 _ZN5Katie18qdesigner_internal19QDesignerWidgetItem21setNonLaidOutSizeHintERKNS_5QSizeE@Base 4.9.0
 _ZN5Katie18qdesigner_internal19QDesignerWidgetItem5checkEPKNS_7QLayoutEPNS_7QWidgetEPNS_6QFlagsINS_2Qt11OrientationEEE@Base 4.9.0
 _ZN5Katie18qdesigner_internal19QDesignerWidgetItem7installEv@Base 4.9.0
 _ZN5Katie18qdesigner_internal19QDesignerWidgetItem9deinstallEv@Base 4.9.0
 _ZN5Katie18qdesigner_internal19QDesignerWidgetItemC1EPKNS_7QLayoutEPNS_7QWidgetENS_6QFlagsINS_2Qt11OrientationEEE@Base 4.9.0
 _ZN5Katie18qdesigner_internal19QDesignerWidgetItemC2EPKNS_7QLayoutEPNS_7QWidgetENS_6QFlagsINS_2Qt11OrientationEEE@Base 4.9.0
 _ZN5Katie18qdesigner_internal19RemoveActionCommand4initEPNS_7QActionE@Base 4.9.0
 _ZN5Katie18qdesigner_internal19RemoveActionCommand4redoEv@Base 4.9.0
 _ZN5Katie18qdesigner_internal19RemoveActionCommand4undoEv@Base 4.9.0
 _ZN5Katie18qdesigner_internal19RemoveActionCommandC1EPNS_28QDesignerFormWindowInterfaceE@Base 4.9.0
 _ZN5Katie18qdesigner_internal19RemoveActionCommandC2EPNS_28QDesignerFormWindowInterfaceE@Base 4.9.0
 _ZN5Katie18qdesigner_internal19TableWidgetContents15fromTableWidgetEPKNS_12QTableWidgetEb@Base 4.9.0
 _ZN5Katie18qdesigner_internal19TableWidgetContents16insertHeaderItemEPKNS_16QTableWidgetItemEiPNS0_12ListContentsEb@Base 4.9.0
 _ZN5Katie18qdesigner_internal19TableWidgetContents17defaultHeaderTextEi@Base 4.9.0
 _ZN5Katie18qdesigner_internal19TableWidgetContents5clearEv@Base 4.9.0
 _ZN5Katie18qdesigner_internal19TableWidgetContents8nonEmptyEPKNS_16QTableWidgetItemEi@Base 4.9.0
 _ZN5Katie18qdesigner_internal19TableWidgetContentsC1Ev@Base 4.9.0
 _ZN5Katie18qdesigner_internal19TableWidgetContentsC2Ev@Base 4.9.0
 _ZN5Katie18qdesigner_internal19formLayoutAddWidgetEPNS_11QFormLayoutEPNS_7QWidgetERKNS_5QRectEb@Base 4.9.0
 _ZN5Katie18qdesigner_internal19preferredEditActionEPNS_28QDesignerFormEditorInterfaceEPNS_7QWidgetE@Base 4.9.0
 _ZN5Katie18qdesigner_internal19promotionCandidatesEPKNS_32QDesignerWidgetDataBaseInterfaceERKNS_7QStringE@Base 4.9.0
 _ZN5Katie18qdesigner_internal19reloadIconResourcesEPNS0_17DesignerIconCacheEPNS_7QObjectE@Base 4.9.0
 _ZN5Katie18qdesigner_internal20AddConnectionCommand4redoEv@Base 4.9.0
 _ZN5Katie18qdesigner_internal20AddConnectionCommand4undoEv@Base 4.9.0
 _ZN5Katie18qdesigner_internal20AddConnectionCommandC1EPNS0_14ConnectionEditEPNS0_10ConnectionE@Base 4.9.0
 _ZN5Katie18qdesigner_internal20AddConnectionCommandC2EPNS0_14ConnectionEditEPNS0_10ConnectionE@Base 4.9.0
 _ZN5Katie18qdesigner_internal20AddDockWidgetCommand4initEPNS_11QMainWindowE@Base 4.9.0
 _ZN5Katie18qdesigner_internal20AddDockWidgetCommand4initEPNS_11QMainWindowEPNS_11QDockWidgetE@Base 4.9.0
 _ZN5Katie18qdesigner_internal20AddDockWidgetCommand4redoEv@Base 4.9.0
 _ZN5Katie18qdesigner_internal20AddDockWidgetCommand4undoEv@Base 4.9.0
 _ZN5Katie18qdesigner_internal20AddDockWidgetCommandC1EPNS_28QDesignerFormWindowInterfaceE@Base 4.9.0
 _ZN5Katie18qdesigner_internal20AddDockWidgetCommandC2EPNS_28QDesignerFormWindowInterfaceE@Base 4.9.0
 _ZN5Katie18qdesigner_internal20AddMenuActionCommandC1EPNS_28QDesignerFormWindowInterfaceE@Base 4.9.0
 _ZN5Katie18qdesigner_internal20AddMenuActionCommandC2EPNS_28QDesignerFormWindowInterfaceE@Base 4.9.0
 _ZN5Katie18qdesigner_internal20CreateMenuBarCommand4initEPNS_11QMainWindowE@Base 4.9.0
 _ZN5Katie18qdesigner_internal20CreateMenuBarCommand4redoEv@Base 4.9.0
 _ZN5Katie18qdesigner_internal20CreateMenuBarCommand4undoEv@Base 4.9.0
 _ZN5Katie18qdesigner_internal20CreateMenuBarCommandC1EPNS_28QDesignerFormWindowInterfaceE@Base 4.9.0
 _ZN5Katie18qdesigner_internal20CreateMenuBarCommandC2EPNS_28QDesignerFormWindowInterfaceE@Base 4.9.0
 _ZN5Katie18qdesigner_internal20CreateSubmenuCommand4initEPNS_13QDesignerMenuEPNS_7QActionEPNS_7QObjectE@Base 4.9.0
 _ZN5Katie18qdesigner_internal20CreateSubmenuCommand4redoEv@Base 4.9.0
 _ZN5Katie18qdesigner_internal20CreateSubmenuCommand4undoEv@Base 4.9.0
 _ZN5Katie18qdesigner_internal20CreateSubmenuCommandC1EPNS_28QDesignerFormWindowInterfaceE@Base 4.9.0
 _ZN5Katie18qdesigner_internal20CreateSubmenuCommandC2EPNS_28QDesignerFormWindowInterfaceE@Base 4.9.0
 _ZN5Katie18qdesigner_internal20CursorSelectionState4saveEPKNS_28QDesignerFormWindowInterfaceE@Base 4.9.0
 _ZN5Katie18qdesigner_internal20CursorSelectionStateC1Ev@Base 4.9.0
 _ZN5Katie18qdesigner_internal20CursorSelectionStateC2Ev@Base 4.9.0
 _ZN5Katie18qdesigner_internal20DeleteMenuBarCommand4initEPNS_8QMenuBarE@Base 4.9.0
 _ZN5Katie18qdesigner_internal20DeleteMenuBarCommand4redoEv@Base 4.9.0
 _ZN5Katie18qdesigner_internal20DeleteMenuBarCommand4undoEv@Base 4.9.0
 _ZN5Katie18qdesigner_internal20DeleteMenuBarCommandC1EPNS_28QDesignerFormWindowInterfaceE@Base 4.9.0
 _ZN5Katie18qdesigner_internal20DeleteMenuBarCommandC2EPNS_28QDesignerFormWindowInterfaceE@Base 4.9.0
 _ZN5Katie18qdesigner_internal20DeleteTabPageCommand4initEPNS_10QTabWidgetE@Base 4.9.0
 _ZN5Katie18qdesigner_internal20DeleteTabPageCommand4redoEv@Base 4.9.0
 _ZN5Katie18qdesigner_internal20DeleteTabPageCommand4undoEv@Base 4.9.0
 _ZN5Katie18qdesigner_internal20DeleteTabPageCommandC1EPNS_28QDesignerFormWindowInterfaceE@Base 4.9.0
 _ZN5Katie18qdesigner_internal20DeleteTabPageCommandC2EPNS_28QDesignerFormWindowInterfaceE@Base 4.9.0
 _ZN5Katie18qdesigner_internal20DeleteTabPageCommandD0Ev@Base 4.9.0
 _ZN5Katie18qdesigner_internal20DeleteTabPageCommandD1Ev@Base 4.9.0
 _ZN5Katie18qdesigner_internal20DeleteTabPageCommandD2Ev@Base 4.9.0
 _ZN5Katie18qdesigner_internal20DeleteToolBarCommand4initEPNS_8QToolBarE@Base 4.9.0
 _ZN5Katie18qdesigner_internal20DeleteToolBarCommand4redoEv@Base 4.9.0
 _ZN5Katie18qdesigner_internal20DeleteToolBarCommand4undoEv@Base 4.9.0
 _ZN5Katie18qdesigner_internal20DeleteToolBarCommandC1EPNS_28QDesignerFormWindowInterfaceE@Base 4.9.0
 _ZN5Katie18qdesigner_internal20DeleteToolBarCommandC2EPNS_28QDesignerFormWindowInterfaceE@Base 4.9.0
 _ZN5Katie18qdesigner_internal20FormBuilderClipboardC1EPNS_7QWidgetE@Base 4.9.0
 _ZN5Katie18qdesigner_internal20FormBuilderClipboardC2EPNS_7QWidgetE@Base 4.9.0
 _ZN5Katie18qdesigner_internal20PreviewConfiguration12fromSettingsERKNS_7QStringEPKNS_26QDesignerSettingsInterfaceE@Base 4.9.0
 _ZN5Katie18qdesigner_internal20PreviewConfiguration24setApplicationStyleSheetERKNS_7QStringE@Base 4.9.0
 _ZN5Katie18qdesigner_internal20PreviewConfiguration5clearEv@Base 4.9.0
 _ZN5Katie18qdesigner_internal20PreviewConfiguration8setStyleERKNS_7QStringE@Base 4.9.0
 _ZN5Katie18qdesigner_internal20PreviewConfigurationC1ERKNS_7QStringES4_@Base 4.9.0
 _ZN5Katie18qdesigner_internal20PreviewConfigurationC1ERKS1_@Base 4.9.0
 _ZN5Katie18qdesigner_internal20PreviewConfigurationC1Ev@Base 4.9.0
 _ZN5Katie18qdesigner_internal20PreviewConfigurationC2ERKNS_7QStringES4_@Base 4.9.0
 _ZN5Katie18qdesigner_internal20PreviewConfigurationC2ERKS1_@Base 4.9.0
 _ZN5Katie18qdesigner_internal20PreviewConfigurationC2Ev@Base 4.9.0
 _ZN5Katie18qdesigner_internal20PreviewConfigurationD1Ev@Base 4.9.0
 _ZN5Katie18qdesigner_internal20PreviewConfigurationD2Ev@Base 4.9.0
 _ZN5Katie18qdesigner_internal20PreviewConfigurationaSERKS1_@Base 4.9.0
 _ZN5Katie18qdesigner_internal20QDesignerFormBuilder10nameToIconERKNS_7QStringES4_@Base 4.9.0
 _ZN5Katie18qdesigner_internal20QDesignerFormBuilder12createWidgetERKNS_7QStringEPNS_7QWidgetES4_@Base 4.9.0
 _ZN5Katie18qdesigner_internal20QDesignerFormBuilder12nameToPixmapERKNS_7QStringES4_@Base 4.9.0
 _ZN5Katie18qdesigner_internal20QDesignerFormBuilder13createPreviewEPKNS_28QDesignerFormWindowInterfaceERKNS_7QStringE@Base 4.9.0
 _ZN5Katie18qdesigner_internal20QDesignerFormBuilder13createPreviewEPKNS_28QDesignerFormWindowInterfaceERKNS_7QStringES7_@Base 4.9.0
 _ZN5Katie18qdesigner_internal20QDesignerFormBuilder13createPreviewEPKNS_28QDesignerFormWindowInterfaceERKNS_7QStringES7_PS5_@Base 4.9.0
 _ZN5Katie18qdesigner_internal20QDesignerFormBuilder13createPreviewEPKNS_28QDesignerFormWindowInterfaceERKNS_7QStringES7_RKNS0_13DeviceProfileEPNS_5QListINS_17QFormScriptRunner5ErrorEEEPS5_@Base 4.9.0
 _ZN5Katie18qdesigner_internal20QDesignerFormBuilder13createPreviewEPKNS_28QDesignerFormWindowInterfaceERKNS_7QStringES7_RKNS0_13DeviceProfileEPS5_@Base 4.9.0
 _ZN5Katie18qdesigner_internal20QDesignerFormBuilder13loadExtraInfoEPNS_9DomWidgetEPNS_7QWidgetES5_@Base 4.9.0
 _ZN5Katie18qdesigner_internal20QDesignerFormBuilder15applyPropertiesEPNS_7QObjectERKNS_5QListIPNS_11DomPropertyEEE@Base 4.9.0
 _ZN5Katie18qdesigner_internal20QDesignerFormBuilder15createResourcesEPNS_12DomResourcesE@Base 4.9.0
 _ZN5Katie18qdesigner_internal20QDesignerFormBuilder19createPreviewPixmapEPKNS_28QDesignerFormWindowInterfaceERKNS_7QStringES7_@Base 4.9.0
 _ZN5Katie18qdesigner_internal20QDesignerFormBuilder24createWidgetFromContentsERKNS_7QStringEPNS_7QWidgetE@Base 4.9.0
 _ZN5Katie18qdesigner_internal20QDesignerFormBuilder6createEPNS_5DomUIEPNS_7QWidgetE@Base 4.9.0
 _ZN5Katie18qdesigner_internal20QDesignerFormBuilder6createEPNS_9DomLayoutEPNS_7QLayoutEPNS_7QWidgetE@Base 4.9.0
 _ZN5Katie18qdesigner_internal20QDesignerFormBuilder6createEPNS_9DomWidgetEPNS_7QWidgetE@Base 4.9.0
 _ZN5Katie18qdesigner_internal20QDesignerFormBuilder7addItemEPNS_13DomLayoutItemEPNS_11QLayoutItemEPNS_7QLayoutE@Base 4.9.0
 _ZN5Katie18qdesigner_internal20QDesignerFormBuilder7addItemEPNS_9DomWidgetEPNS_7QWidgetES5_@Base 4.9.0
 _ZN5Katie18qdesigner_internal20QDesignerFormBuilder9createDomEPNS_7QWidgetEPNS_9DomWidgetEb@Base 4.9.0
 _ZN5Katie18qdesigner_internal20QDesignerFormBuilderC1EPNS_28QDesignerFormEditorInterfaceENS1_4ModeERKNS0_13DeviceProfileE@Base 4.9.0
 _ZN5Katie18qdesigner_internal20QDesignerFormBuilderC2EPNS_28QDesignerFormEditorInterfaceENS1_4ModeERKNS0_13DeviceProfileE@Base 4.9.0
 _ZN5Katie18qdesigner_internal20QDesignerIntegration10initializeEv@Base 4.9.0
 _ZN5Katie18qdesigner_internal20QDesignerIntegration11qt_metacallENS_11QMetaObject4CallEiPPv@Base 4.9.0
 _ZN5Katie18qdesigner_internal20QDesignerIntegration11qt_metacastEPKc@Base 4.9.0
 _ZN5Katie18qdesigner_internal20QDesignerIntegration11requestHelpEPKNS_28QDesignerFormEditorInterfaceERKNS_7QStringES7_@Base 4.9.0
 _ZN5Katie18qdesigner_internal20QDesignerIntegration12getSelectionERNS0_9SelectionE@Base 4.9.0
 _ZN5Katie18qdesigner_internal20QDesignerIntegration13helpRequestedERKNS_7QStringES4_@Base 4.9.0
 _ZN5Katie18qdesigner_internal20QDesignerIntegration13resetPropertyERKNS_7QStringE@Base 4.9.0
 _ZN5Katie18qdesigner_internal20QDesignerIntegration14activateWidgetEPNS_7QWidgetE@Base 4.9.0
 _ZN5Katie18qdesigner_internal20QDesignerIntegration14navigateToSlotERKNS_7QStringE@Base 4.9.0
 _ZN5Katie18qdesigner_internal20QDesignerIntegration14navigateToSlotERKNS_7QStringES4_RKNS_11QStringListE@Base 4.9.0
 _ZN5Katie18qdesigner_internal20QDesignerIntegration14updateGeometryEv@Base 4.9.0
 _ZN5Katie18qdesigner_internal20QDesignerIntegration14updatePropertyERKNS_7QStringERKNS_8QVariantEb@Base 4.9.0
 _ZN5Katie18qdesigner_internal20QDesignerIntegration15propertyChangedEPNS_28QDesignerFormWindowInterfaceERKNS_7QStringERKNS_8QVariantE@Base 4.9.0
 _ZN5Katie18qdesigner_internal20QDesignerIntegration15setupFormWindowEPNS_28QDesignerFormWindowInterfaceE@Base 4.9.0
 _ZN5Katie18qdesigner_internal20QDesignerIntegration15updateSelectionEv@Base 4.9.0
 _ZN5Katie18qdesigner_internal20QDesignerIntegration16staticMetaObjectE@Base 4.9.0
 _ZN5Katie18qdesigner_internal20QDesignerIntegration17initializePluginsEPNS_28QDesignerFormEditorInterfaceE@Base 4.9.0
 _ZN5Katie18qdesigner_internal20QDesignerIntegration17objectNameChangedEPNS_28QDesignerFormWindowInterfaceEPNS_7QObjectERKNS_7QStringES8_@Base 4.9.0
 _ZN5Katie18qdesigner_internal20QDesignerIntegration18addDynamicPropertyERKNS_7QStringERKNS_8QVariantE@Base 4.9.0
 _ZN5Katie18qdesigner_internal20QDesignerIntegration18emitNavigateToSlotERKNS_7QStringE@Base 4.9.0
 _ZN5Katie18qdesigner_internal20QDesignerIntegration18emitNavigateToSlotERKNS_7QStringES4_RKNS_11QStringListE@Base 4.9.0
 _ZN5Katie18qdesigner_internal20QDesignerIntegration19getStaticMetaObjectEv@Base 4.9.0
 _ZN5Katie18qdesigner_internal20QDesignerIntegration20propertyEditorObjectEv@Base 4.9.0
 _ZN5Katie18qdesigner_internal20QDesignerIntegration21createResourceBrowserEPNS_7QWidgetE@Base 4.9.0
 _ZN5Katie18qdesigner_internal20QDesignerIntegration21emitObjectNameChangedEPNS_28QDesignerFormWindowInterfaceEPNS_7QObjectERKNS_7QStringES8_@Base 4.9.0
 _ZN5Katie18qdesigner_internal20QDesignerIntegration21removeDynamicPropertyERKNS_7QStringE@Base 4.9.0
 _ZN5Katie18qdesigner_internal20QDesignerIntegration21updatePropertyPrivateERKNS_7QStringERKNS_8QVariantE@Base 4.9.0
 _ZN5Katie18qdesigner_internal20QDesignerIntegration22updateActiveFormWindowEPNS_28QDesignerFormWindowInterfaceE@Base 4.9.0
 _ZN5Katie18qdesigner_internal20QDesignerIntegration24setSlotNavigationEnabledEb@Base 4.9.0
 _ZN5Katie18qdesigner_internal20QDesignerIntegration25setResourceEditingEnabledEb@Base 4.9.0
 _ZN5Katie18qdesigner_internal20QDesignerIntegration25updateCustomWidgetPluginsEv@Base 4.9.0
 _ZN5Katie18qdesigner_internal20QDesignerIntegration31setResourceFileWatcherBehaviourENS1_28ResourceFileWatcherBehaviourE@Base 4.9.0
 _ZN5Katie18qdesigner_internal20QDesignerIntegrationC1EPNS_28QDesignerFormEditorInterfaceEPNS_7QObjectE@Base 4.9.0
 _ZN5Katie18qdesigner_internal20QDesignerIntegrationC2EPNS_28QDesignerFormEditorInterfaceEPNS_7QObjectE@Base 4.9.0
 _ZN5Katie18qdesigner_internal20QDesignerIntegrationD0Ev@Base 4.9.0
 _ZN5Katie18qdesigner_internal20QDesignerIntegrationD1Ev@Base 4.9.0
 _ZN5Katie18qdesigner_internal20QDesignerIntegrationD2Ev@Base 4.9.0
 _ZN5Katie18qdesigner_internal20ResetPropertyCommand14setDescriptionEv@Base 4.9.0
 _ZN5Katie18qdesigner_internal20ResetPropertyCommand4initEPNS_7QObjectERKNS_7QStringE@Base 4.9.0
 _ZN5Katie18qdesigner_internal20ResetPropertyCommand4initERKNS_5QListIPNS_7QObjectEEERKNS_7QStringES4_@Base 4.9.0
 _ZN5Katie18qdesigner_internal20ResetPropertyCommand4redoEv@Base 4.9.0
 _ZN5Katie18qdesigner_internal20ResetPropertyCommandC1EPNS_28QDesignerFormWindowInterfaceE@Base 4.9.0
 _ZN5Katie18qdesigner_internal20ResetPropertyCommandC2EPNS_28QDesignerFormWindowInterfaceE@Base 4.9.0
 _ZN5Katie18qdesigner_internal20RichTextEditorDialog10showDialogEv@Base 4.9.0
 _ZN5Katie18qdesigner_internal20RichTextEditorDialog11qt_metacallENS_11QMetaObject4CallEiPPv@Base 4.9.0
 _ZN5Katie18qdesigner_internal20RichTextEditorDialog11qt_metacastEPKc@Base 4.9.0
 _ZN5Katie18qdesigner_internal20RichTextEditorDialog13sourceChangedEv@Base 4.9.0
 _ZN5Katie18qdesigner_internal20RichTextEditorDialog14setDefaultFontERKNS_5QFontE@Base 4.9.0
 _ZN5Katie18qdesigner_internal20RichTextEditorDialog15richTextChangedEv@Base 4.9.0
 _ZN5Katie18qdesigner_internal20RichTextEditorDialog15tabIndexChangedEi@Base 4.9.0
 _ZN5Katie18qdesigner_internal20RichTextEditorDialog16staticMetaObjectE@Base 4.9.0
 _ZN5Katie18qdesigner_internal20RichTextEditorDialog19getStaticMetaObjectEv@Base 4.9.0
 _ZN5Katie18qdesigner_internal20RichTextEditorDialog7setTextERKNS_7QStringE@Base 4.9.0
 _ZN5Katie18qdesigner_internal20RichTextEditorDialogC1EPNS_28QDesignerFormEditorInterfaceEPNS_7QWidgetE@Base 4.9.0
 _ZN5Katie18qdesigner_internal20RichTextEditorDialogC2EPNS_28QDesignerFormEditorInterfaceEPNS_7QWidgetE@Base 4.9.0
 _ZN5Katie18qdesigner_internal20RichTextEditorDialogD0Ev@Base 4.9.0
 _ZN5Katie18qdesigner_internal20RichTextEditorDialogD1Ev@Base 4.9.0
 _ZN5Katie18qdesigner_internal20RichTextEditorDialogD2Ev@Base 4.9.0
 _ZN5Katie18qdesigner_internal20StackedWidgetCommand10removePageEv@Base 4.9.0
 _ZN5Katie18qdesigner_internal20StackedWidgetCommand4initEPNS_14QStackedWidgetE@Base 4.9.0
 _ZN5Katie18qdesigner_internal20StackedWidgetCommand7addPageEv@Base 4.9.0
 _ZN5Katie18qdesigner_internal20StackedWidgetCommandC1EPNS_28QDesignerFormWindowInterfaceE@Base 4.9.0
 _ZN5Katie18qdesigner_internal20StackedWidgetCommandC2EPNS_28QDesignerFormWindowInterfaceE@Base 4.9.0
 _ZN5Katie18qdesigner_internal20StackedWidgetCommandD0Ev@Base 4.9.0
 _ZN5Katie18qdesigner_internal20StackedWidgetCommandD1Ev@Base 4.9.0
 _ZN5Katie18qdesigner_internal20StackedWidgetCommandD2Ev@Base 4.9.0
 _ZN5Katie18qdesigner_internal20includeSpecificationENS_7QStringE@Base 4.9.0
 _ZN5Katie18qdesigner_internal21AddToolBoxPageCommand4initEPNS_8QToolBoxE@Base 4.9.0
 _ZN5Katie18qdesigner_internal21AddToolBoxPageCommand4initEPNS_8QToolBoxENS1_13InsertionModeE@Base 4.9.0
 _ZN5Katie18qdesigner_internal21AddToolBoxPageCommand4redoEv@Base 4.9.0
 _ZN5Katie18qdesigner_internal21AddToolBoxPageCommand4undoEv@Base 4.9.0
 _ZN5Katie18qdesigner_internal21AddToolBoxPageCommandC1EPNS_28QDesignerFormWindowInterfaceE@Base 4.9.0
 _ZN5Katie18qdesigner_internal21AddToolBoxPageCommandC2EPNS_28QDesignerFormWindowInterfaceE@Base 4.9.0
 _ZN5Katie18qdesigner_internal21AddToolBoxPageCommandD0Ev@Base 4.9.0
 _ZN5Katie18qdesigner_internal21AddToolBoxPageCommandD1Ev@Base 4.9.0
 _ZN5Katie18qdesigner_internal21AddToolBoxPageCommandD2Ev@Base 4.9.0
 _ZN5Katie18qdesigner_internal21PlainTextEditorDialog10showDialogEv@Base 4.9.0
 _ZN5Katie18qdesigner_internal21PlainTextEditorDialog11qt_metacallENS_11QMetaObject4CallEiPPv@Base 4.9.0
 _ZN5Katie18qdesigner_internal21PlainTextEditorDialog11qt_metacastEPKc@Base 4.9.0
 _ZN5Katie18qdesigner_internal21PlainTextEditorDialog14setDefaultFontERKNS_5QFontE@Base 4.9.0
 _ZN5Katie18qdesigner_internal21PlainTextEditorDialog16staticMetaObjectE@Base 4.9.0
 _ZN5Katie18qdesigner_internal21PlainTextEditorDialog19getStaticMetaObjectEv@Base 4.9.0
 _ZN5Katie18qdesigner_internal21PlainTextEditorDialog7setTextERKNS_7QStringE@Base 4.9.0
 _ZN5Katie18qdesigner_internal21PlainTextEditorDialogC1EPNS_28QDesignerFormEditorInterfaceEPNS_7QWidgetE@Base 4.9.0
 _ZN5Katie18qdesigner_internal21PlainTextEditorDialogC2EPNS_28QDesignerFormEditorInterfaceEPNS_7QWidgetE@Base 4.9.0
 _ZN5Katie18qdesigner_internal21PlainTextEditorDialogD0Ev@Base 4.9.0
 _ZN5Katie18qdesigner_internal21PlainTextEditorDialogD1Ev@Base 4.9.0
 _ZN5Katie18qdesigner_internal21PlainTextEditorDialogD2Ev@Base 4.9.0
 _ZN5Katie18qdesigner_internal21ReparentWidgetCommand4initEPNS_7QWidgetES3_@Base 4.9.0
 _ZN5Katie18qdesigner_internal21ReparentWidgetCommand4redoEv@Base 4.9.0
 _ZN5Katie18qdesigner_internal21ReparentWidgetCommand4undoEv@Base 4.9.0
 _ZN5Katie18qdesigner_internal21ReparentWidgetCommandC1EPNS_28QDesignerFormWindowInterfaceE@Base 4.9.0
 _ZN5Katie18qdesigner_internal21ReparentWidgetCommandC2EPNS_28QDesignerFormWindowInterfaceE@Base 4.9.0
 _ZN5Katie18qdesigner_internal21SimplifyLayoutCommand11canSimplifyEPNS_28QDesignerFormEditorInterfaceEPKNS_7QWidgetEPi@Base 4.9.0
 _ZN5Katie18qdesigner_internal21SimplifyLayoutCommand4initEPNS_7QWidgetE@Base 4.9.0
 _ZN5Katie18qdesigner_internal21SimplifyLayoutCommand4redoEv@Base 4.9.0
 _ZN5Katie18qdesigner_internal21SimplifyLayoutCommand4undoEv@Base 4.9.0
 _ZN5Katie18qdesigner_internal21SimplifyLayoutCommandC1EPNS_28QDesignerFormWindowInterfaceE@Base 4.9.0
 _ZN5Katie18qdesigner_internal21SimplifyLayoutCommandC2EPNS_28QDesignerFormWindowInterfaceE@Base 4.9.0
 _ZN5Katie18qdesigner_internal21SimplifyLayoutCommandD0Ev@Base 4.9.0
 _ZN5Katie18qdesigner_internal21SimplifyLayoutCommandD1Ev@Base 4.9.0
 _ZN5Katie18qdesigner_internal21SimplifyLayoutCommandD2Ev@Base 4.9.0
 _ZN5Katie18qdesigner_internal22ActionInsertionCommand12insertActionEv@Base 4.9.0
 _ZN5Katie18qdesigner_internal22ActionInsertionCommand12removeActionEv@Base 4.9.0
 _ZN5Katie18qdesigner_internal22ActionInsertionCommand4initEPNS_7QWidgetEPNS_7QActionES5_b@Base 4.9.0
 _ZN5Katie18qdesigner_internal22ActionInsertionCommandC1ERKNS_7QStringEPNS_28QDesignerFormWindowInterfaceE@Base 4.9.0
 _ZN5Katie18qdesigner_internal22ActionInsertionCommandC2ERKNS_7QStringEPNS_28QDesignerFormWindowInterfaceE@Base 4.9.0
 _ZN5Katie18qdesigner_internal22ContainerWidgetCommand10removePageEv@Base 4.9.0
 _ZN5Katie18qdesigner_internal22ContainerWidgetCommand4initEPNS_7QWidgetE@Base 4.9.0
 _ZN5Katie18qdesigner_internal22ContainerWidgetCommand7addPageEv@Base 4.9.0
 _ZN5Katie18qdesigner_internal22ContainerWidgetCommandC1EPNS_28QDesignerFormWindowInterfaceE@Base 4.9.0
 _ZN5Katie18qdesigner_internal22ContainerWidgetCommandC2EPNS_28QDesignerFormWindowInterfaceE@Base 4.9.0
 _ZN5Katie18qdesigner_internal22ContainerWidgetCommandD0Ev@Base 4.9.0
 _ZN5Katie18qdesigner_internal22ContainerWidgetCommandD1Ev@Base 4.9.0
 _ZN5Katie18qdesigner_internal22ContainerWidgetCommandD2Ev@Base 4.9.0
 _ZN5Katie18qdesigner_internal22CreateStatusBarCommand4initEPNS_11QMainWindowE@Base 4.9.0
 _ZN5Katie18qdesigner_internal22CreateStatusBarCommand4redoEv@Base 4.9.0
 _ZN5Katie18qdesigner_internal22CreateStatusBarCommand4undoEv@Base 4.9.0
 _ZN5Katie18qdesigner_internal22CreateStatusBarCommandC1EPNS_28QDesignerFormWindowInterfaceE@Base 4.9.0
 _ZN5Katie18qdesigner_internal22CreateStatusBarCommandC2EPNS_28QDesignerFormWindowInterfaceE@Base 4.9.0
 _ZN5Katie18qdesigner_internal22DeleteStatusBarCommand4initEPNS_10QStatusBarE@Base 4.9.0
 _ZN5Katie18qdesigner_internal22DeleteStatusBarCommand4redoEv@Base 4.9.0
 _ZN5Katie18qdesigner_internal22DeleteStatusBarCommand4undoEv@Base 4.9.0
 _ZN5Katie18qdesigner_internal22DeleteStatusBarCommandC1EPNS_28QDesignerFormWindowInterfaceE@Base 4.9.0
 _ZN5Katie18qdesigner_internal22DeleteStatusBarCommandC2EPNS_28QDesignerFormWindowInterfaceE@Base 4.9.0
 _ZN5Katie18qdesigner_internal22LanguageResourceDialog11qt_metacallENS_11QMetaObject4CallEiPPv@Base 4.9.0
 _ZN5Katie18qdesigner_internal22LanguageResourceDialog11qt_metacastEPKc@Base 4.9.0
 _ZN5Katie18qdesigner_internal22LanguageResourceDialog14setCurrentPathERKNS_7QStringE@Base 4.9.0
 _ZN5Katie18qdesigner_internal22LanguageResourceDialog16staticMetaObjectE@Base 4.9.0
 _ZN5Katie18qdesigner_internal22LanguageResourceDialog19getStaticMetaObjectEv@Base 4.9.0
 _ZN5Katie18qdesigner_internal22LanguageResourceDialog6createEPNS_28QDesignerFormEditorInterfaceEPNS_7QWidgetE@Base 4.9.0
 _ZN5Katie18qdesigner_internal22LanguageResourceDialogC1EPNS_33QDesignerResourceBrowserInterfaceEPNS_7QWidgetE@Base 4.9.0
 _ZN5Katie18qdesigner_internal22LanguageResourceDialogC2EPNS_33QDesignerResourceBrowserInterfaceEPNS_7QWidgetE@Base 4.9.0
 _ZN5Katie18qdesigner_internal22LanguageResourceDialogD0Ev@Base 4.9.0
 _ZN5Katie18qdesigner_internal22LanguageResourceDialogD1Ev@Base 4.9.0
 _ZN5Katie18qdesigner_internal22LanguageResourceDialogD2Ev@Base 4.9.0
 _ZN5Katie18qdesigner_internal22MoveToolBoxPageCommand4initEPNS_8QToolBoxEPNS_7QWidgetEi@Base 4.9.0
 _ZN5Katie18qdesigner_internal22MoveToolBoxPageCommand4redoEv@Base 4.9.0
 _ZN5Katie18qdesigner_internal22MoveToolBoxPageCommand4undoEv@Base 4.9.0
 _ZN5Katie18qdesigner_internal22MoveToolBoxPageCommandC1EPNS_28QDesignerFormWindowInterfaceE@Base 4.9.0
 _ZN5Katie18qdesigner_internal22MoveToolBoxPageCommandC2EPNS_28QDesignerFormWindowInterfaceE@Base 4.9.0
 _ZN5Katie18qdesigner_internal22MoveToolBoxPageCommandD0Ev@Base 4.9.0
 _ZN5Katie18qdesigner_internal22MoveToolBoxPageCommandD1Ev@Base 4.9.0
 _ZN5Katie18qdesigner_internal22MoveToolBoxPageCommandD2Ev@Base 4.9.0
 _ZN5Katie18qdesigner_internal22PropertySheetEnumValueC1EiRKNS0_16DesignerMetaEnumE@Base 4.9.0
 _ZN5Katie18qdesigner_internal22PropertySheetEnumValueC1Ev@Base 4.9.0
 _ZN5Katie18qdesigner_internal22PropertySheetEnumValueC2EiRKNS0_16DesignerMetaEnumE@Base 4.9.0
 _ZN5Katie18qdesigner_internal22PropertySheetEnumValueC2Ev@Base 4.9.0
 _ZN5Katie18qdesigner_internal22PropertySheetFlagValueC1EiRKNS0_17DesignerMetaFlagsE@Base 4.9.0
 _ZN5Katie18qdesigner_internal22PropertySheetFlagValueC1Ev@Base 4.9.0
 _ZN5Katie18qdesigner_internal22PropertySheetFlagValueC2EiRKNS0_17DesignerMetaFlagsE@Base 4.9.0
 _ZN5Katie18qdesigner_internal22PropertySheetFlagValueC2Ev@Base 4.9.0
 _ZN5Katie18qdesigner_internal22PropertySheetIconValue6assignERKS1_j@Base 4.9.0
 _ZN5Katie18qdesigner_internal22PropertySheetIconValue8setThemeERKNS_7QStringE@Base 4.9.0
 _ZN5Katie18qdesigner_internal22PropertySheetIconValue9setPixmapENS_5QIcon4ModeENS2_5StateERKNS0_24PropertySheetPixmapValueE@Base 4.9.0
 _ZN5Katie18qdesigner_internal22PropertySheetIconValueC1ERKNS0_24PropertySheetPixmapValueE@Base 4.9.0
 _ZN5Katie18qdesigner_internal22PropertySheetIconValueC1ERKS1_@Base 4.9.0
 _ZN5Katie18qdesigner_internal22PropertySheetIconValueC1Ev@Base 4.9.0
 _ZN5Katie18qdesigner_internal22PropertySheetIconValueC2ERKNS0_24PropertySheetPixmapValueE@Base 4.9.0
 _ZN5Katie18qdesigner_internal22PropertySheetIconValueC2ERKS1_@Base 4.9.0
 _ZN5Katie18qdesigner_internal22PropertySheetIconValueC2Ev@Base 4.9.0
 _ZN5Katie18qdesigner_internal22PropertySheetIconValueD1Ev@Base 4.9.0
 _ZN5Katie18qdesigner_internal22PropertySheetIconValueD2Ev@Base 4.9.0
 _ZN5Katie18qdesigner_internal22PropertySheetIconValueaSERKS1_@Base 4.9.0
 _ZN5Katie18qdesigner_internal22QDesignerIntrospectionC1Ev@Base 4.9.0
 _ZN5Katie18qdesigner_internal22QDesignerIntrospectionC2Ev@Base 4.9.0
 _ZN5Katie18qdesigner_internal22QDesignerIntrospectionD0Ev@Base 4.9.0
 _ZN5Katie18qdesigner_internal22QDesignerIntrospectionD1Ev@Base 4.9.0
 _ZN5Katie18qdesigner_internal22QDesignerIntrospectionD2Ev@Base 4.9.0
 _ZN5Katie18qdesigner_internal22StyleSheetEditorDialog11qt_metacallENS_11QMetaObject4CallEiPPv@Base 4.9.0
 _ZN5Katie18qdesigner_internal22StyleSheetEditorDialog11qt_metacastEPKc@Base 4.9.0
 _ZN5Katie18qdesigner_internal22StyleSheetEditorDialog11slotAddFontEv@Base 4.9.0
 _ZN5Katie18qdesigner_internal22StyleSheetEditorDialog12slotAddColorERKNS_7QStringE@Base 4.9.0
 _ZN5Katie18qdesigner_internal22StyleSheetEditorDialog15slotAddGradientERKNS_7QStringE@Base 4.9.0
 _ZN5Katie18qdesigner_internal22StyleSheetEditorDialog15slotAddResourceERKNS_7QStringE@Base 4.9.0
 _ZN5Katie18qdesigner_internal22StyleSheetEditorDialog15slotRequestHelpEv@Base 4.9.0
 _ZN5Katie18qdesigner_internal22StyleSheetEditorDialog16staticMetaObjectE@Base 4.9.0
 _ZN5Katie18qdesigner_internal22StyleSheetEditorDialog17insertCssPropertyERKNS_7QStringES4_@Base 4.9.0
 _ZN5Katie18qdesigner_internal22StyleSheetEditorDialog17isStyleSheetValidERKNS_7QStringE@Base 4.9.0
 _ZN5Katie18qdesigner_internal22StyleSheetEditorDialog18setOkButtonEnabledEb@Base 4.9.0
 _ZN5Katie18qdesigner_internal22StyleSheetEditorDialog18validateStyleSheetEv@Base 4.9.0
 _ZN5Katie18qdesigner_internal22StyleSheetEditorDialog19getStaticMetaObjectEv@Base 4.9.0
 _ZN5Katie18qdesigner_internal22StyleSheetEditorDialog24slotContextMenuRequestedERKNS_6QPointE@Base 4.9.0
 _ZN5Katie18qdesigner_internal22StyleSheetEditorDialog7setTextERKNS_7QStringE@Base 4.9.0
 _ZN5Katie18qdesigner_internal22StyleSheetEditorDialogC1EPNS_28QDesignerFormEditorInterfaceEPNS_7QWidgetENS1_4ModeE@Base 4.9.0
 _ZN5Katie18qdesigner_internal22StyleSheetEditorDialogC2EPNS_28QDesignerFormEditorInterfaceEPNS_7QWidgetENS1_4ModeE@Base 4.9.0
 _ZN5Katie18qdesigner_internal22StyleSheetEditorDialogD0Ev@Base 4.9.0
 _ZN5Katie18qdesigner_internal22StyleSheetEditorDialogD1Ev@Base 4.9.0
 _ZN5Katie18qdesigner_internal22StyleSheetEditorDialogD2Ev@Base 4.9.0
 _ZN5Katie18qdesigner_internal23AdjustWidgetSizeCommand4initEPNS_7QWidgetE@Base 4.9.0
 _ZN5Katie18qdesigner_internal23AdjustWidgetSizeCommand4redoEv@Base 4.9.0
 _ZN5Katie18qdesigner_internal23AdjustWidgetSizeCommand4undoEv@Base 4.9.0
 _ZN5Katie18qdesigner_internal23AdjustWidgetSizeCommandC1EPNS_28QDesignerFormWindowInterfaceE@Base 4.9.0
 _ZN5Katie18qdesigner_internal23AdjustWidgetSizeCommandC2EPNS_28QDesignerFormWindowInterfaceE@Base 4.9.0
 _ZN5Katie18qdesigner_internal23InsertActionIntoCommandC1EPNS_28QDesignerFormWindowInterfaceE@Base 4.9.0
 _ZN5Katie18qdesigner_internal23InsertActionIntoCommandC2EPNS_28QDesignerFormWindowInterfaceE@Base 4.9.0
 _ZN5Katie18qdesigner_internal23QDesignerPropertyEditor11qt_metacallENS_11QMetaObject4CallEiPPv@Base 4.9.0
 _ZN5Katie18qdesigner_internal23QDesignerPropertyEditor11qt_metacastEPKc@Base 4.9.0
 _ZN5Katie18qdesigner_internal23QDesignerPropertyEditor12editorClosedEv@Base 4.9.0
 _ZN5Katie18qdesigner_internal23QDesignerPropertyEditor12editorOpenedEv@Base 4.9.0
 _ZN5Katie18qdesigner_internal23QDesignerPropertyEditor13resetPropertyERKNS_7QStringE@Base 4.9.0
 _ZN5Katie18qdesigner_internal23QDesignerPropertyEditor16staticMetaObjectE@Base 4.9.0
 _ZN5Katie18qdesigner_internal23QDesignerPropertyEditor18addDynamicPropertyERKNS_7QStringERKNS_8QVariantE@Base 4.9.0
 _ZN5Katie18qdesigner_internal23QDesignerPropertyEditor19getStaticMetaObjectEv@Base 4.9.0
 _ZN5Katie18qdesigner_internal23QDesignerPropertyEditor19slotPropertyChangedERKNS_7QStringERKNS_8QVariantE@Base 4.9.0
 _ZN5Katie18qdesigner_internal23QDesignerPropertyEditor20propertyValueChangedERKNS_7QStringERKNS_8QVariantEb@Base 4.9.0
 _ZN5Katie18qdesigner_internal23QDesignerPropertyEditor21removeDynamicPropertyERKNS_7QStringE@Base 4.9.0
 _ZN5Katie18qdesigner_internal23QDesignerPropertyEditor24emitPropertyValueChangedERKNS_7QStringERKNS_8QVariantEb@Base 4.9.0
 _ZN5Katie18qdesigner_internal23QDesignerPropertyEditor26textPropertyValidationModeEPNS_28QDesignerFormEditorInterfaceEPKNS_7QObjectERKNS_7QStringEb@Base 4.9.0
 _ZN5Katie18qdesigner_internal23QDesignerPropertyEditorC1EPNS_7QWidgetENS_6QFlagsINS_2Qt10WindowTypeEEE@Base 4.9.0
 _ZN5Katie18qdesigner_internal23QDesignerPropertyEditorC2EPNS_7QWidgetENS_6QFlagsINS_2Qt10WindowTypeEEE@Base 4.9.0
 _ZN5Katie18qdesigner_internal23QDesignerSharedSettings14setDefaultGridERKNS0_4GridE@Base 4.9.0
 _ZN5Katie18qdesigner_internal23QDesignerSharedSettings14setNewFormSizeERKNS_5QSizeE@Base 4.9.0
 _ZN5Katie18qdesigner_internal23QDesignerSharedSettings14setZoomEnabledEb@Base 4.9.0
 _ZN5Katie18qdesigner_internal23QDesignerSharedSettings15setFormTemplateERKNS_7QStringE@Base 4.9.0
 _ZN5Katie18qdesigner_internal23QDesignerSharedSettings17setDeviceProfilesERKNS_5QListINS0_13DeviceProfileEEE@Base 4.9.0
 _ZN5Katie18qdesigner_internal23QDesignerSharedSettings20setFormTemplatePathsERKNS_11QStringListE@Base 4.9.0
 _ZN5Katie18qdesigner_internal23QDesignerSharedSettings24defaultFormTemplatePathsEv@Base 4.9.0
 _ZN5Katie18qdesigner_internal23QDesignerSharedSettings28setCurrentDeviceProfileIndexEi@Base 4.9.0
 _ZN5Katie18qdesigner_internal23QDesignerSharedSettings29setCustomPreviewConfigurationERKNS0_20PreviewConfigurationE@Base 4.9.0
 _ZN5Katie18qdesigner_internal23QDesignerSharedSettings30setAdditionalFormTemplatePathsERKNS_11QStringListE@Base 4.9.0
 _ZN5Katie18qdesigner_internal23QDesignerSharedSettings36setCustomPreviewConfigurationEnabledEb@Base 4.9.0
 _ZN5Katie18qdesigner_internal23QDesignerSharedSettings7setZoomEi@Base 4.9.0
 _ZN5Katie18qdesigner_internal23QDesignerSharedSettingsC1EPNS_28QDesignerFormEditorInterfaceE@Base 4.9.0
 _ZN5Katie18qdesigner_internal23QDesignerSharedSettingsC2EPNS_28QDesignerFormEditorInterfaceE@Base 4.9.0
 _ZN5Katie18qdesigner_internal23RemoveActionFromCommandC1EPNS_28QDesignerFormWindowInterfaceE@Base 4.9.0
 _ZN5Katie18qdesigner_internal23RemoveActionFromCommandC2EPNS_28QDesignerFormWindowInterfaceE@Base 4.9.0
 _ZN5Katie18qdesigner_internal23RemoveMenuActionCommandC1EPNS_28QDesignerFormWindowInterfaceE@Base 4.9.0
 _ZN5Katie18qdesigner_internal23RemoveMenuActionCommandC2EPNS_28QDesignerFormWindowInterfaceE@Base 4.9.0
 _ZN5Katie18qdesigner_internal23promotedCustomClassNameEPNS_28QDesignerFormEditorInterfaceEPNS_7QWidgetE@Base 4.9.0
 _ZN5Katie18qdesigner_internal24ActionRepositoryMimeData11qt_metacallENS_11QMetaObject4CallEiPPv@Base 4.9.0
 _ZN5Katie18qdesigner_internal24ActionRepositoryMimeData11qt_metacastEPKc@Base 4.9.0
 _ZN5Katie18qdesigner_internal24ActionRepositoryMimeData16actionDragPixmapEPKNS_7QActionE@Base 4.9.0
 _ZN5Katie18qdesigner_internal24ActionRepositoryMimeData16staticMetaObjectE@Base 4.9.0
 _ZN5Katie18qdesigner_internal24ActionRepositoryMimeData19getStaticMetaObjectEv@Base 4.9.0
 _ZN5Katie18qdesigner_internal24ActionRepositoryMimeDataC1EPNS_7QActionENS_2Qt10DropActionE@Base 4.9.0
 _ZN5Katie18qdesigner_internal24ActionRepositoryMimeDataC1ERKNS_5QListIPNS_7QActionEEENS_2Qt10DropActionE@Base 4.9.0
 _ZN5Katie18qdesigner_internal24ActionRepositoryMimeDataC2EPNS_7QActionENS_2Qt10DropActionE@Base 4.9.0
 _ZN5Katie18qdesigner_internal24ActionRepositoryMimeDataC2ERKNS_5QListIPNS_7QActionEEENS_2Qt10DropActionE@Base 4.9.0
 _ZN5Katie18qdesigner_internal24ChangeCurrentPageCommand4initEPNS_7QWidgetEi@Base 4.9.0
 _ZN5Katie18qdesigner_internal24ChangeCurrentPageCommand4redoEv@Base 4.9.0
 _ZN5Katie18qdesigner_internal24ChangeCurrentPageCommand4undoEv@Base 4.9.0
 _ZN5Katie18qdesigner_internal24ChangeCurrentPageCommandC1EPNS_28QDesignerFormWindowInterfaceE@Base 4.9.0
 _ZN5Katie18qdesigner_internal24ChangeCurrentPageCommandC2EPNS_28QDesignerFormWindowInterfaceE@Base 4.9.0
 _ZN5Katie18qdesigner_internal24ChangeCurrentPageCommandD0Ev@Base 4.9.0
 _ZN5Katie18qdesigner_internal24ChangeCurrentPageCommandD1Ev@Base 4.9.0
 _ZN5Katie18qdesigner_internal24ChangeCurrentPageCommandD2Ev@Base 4.9.0
 _ZN5Katie18qdesigner_internal24ChangeLayoutItemGeometry18changeItemPositionERKNS_5QRectE@Base 4.9.0
 _ZN5Katie18qdesigner_internal24ChangeLayoutItemGeometry4initEPNS_7QWidgetEiiii@Base 4.9.0
 _ZN5Katie18qdesigner_internal24ChangeLayoutItemGeometry4redoEv@Base 4.9.0
 _ZN5Katie18qdesigner_internal24ChangeLayoutItemGeometry4undoEv@Base 4.9.0
 _ZN5Katie18qdesigner_internal24ChangeLayoutItemGeometryC1EPNS_28QDesignerFormWindowInterfaceE@Base 4.9.0
 _ZN5Katie18qdesigner_internal24ChangeLayoutItemGeometryC2EPNS_28QDesignerFormWindowInterfaceE@Base 4.9.0
 _ZN5Katie18qdesigner_internal24DeleteConnectionsCommand4redoEv@Base 4.9.0
 _ZN5Katie18qdesigner_internal24DeleteConnectionsCommand4undoEv@Base 4.9.0
 _ZN5Katie18qdesigner_internal24DeleteConnectionsCommandC1EPNS0_14ConnectionEditERKNS_5QListIPNS0_10ConnectionEEE@Base 4.9.0
 _ZN5Katie18qdesigner_internal24DeleteConnectionsCommandC2EPNS0_14ConnectionEditERKNS_5QListIPNS0_10ConnectionEEE@Base 4.9.0
 _ZN5Katie18qdesigner_internal24DeleteToolBoxPageCommand4initEPNS_8QToolBoxE@Base 4.9.0
 _ZN5Katie18qdesigner_internal24DeleteToolBoxPageCommand4redoEv@Base 4.9.0
 _ZN5Katie18qdesigner_internal24DeleteToolBoxPageCommand4undoEv@Base 4.9.0
 _ZN5Katie18qdesigner_internal24DeleteToolBoxPageCommandC1EPNS_28QDesignerFormWindowInterfaceE@Base 4.9.0
 _ZN5Katie18qdesigner_internal24DeleteToolBoxPageCommandC2EPNS_28QDesignerFormWindowInterfaceE@Base 4.9.0
 _ZN5Katie18qdesigner_internal24DeleteToolBoxPageCommandD0Ev@Base 4.9.0
 _ZN5Katie18qdesigner_internal24DeleteToolBoxPageCommandD1Ev@Base 4.9.0
 _ZN5Katie18qdesigner_internal24DeleteToolBoxPageCommandD2Ev@Base 4.9.0
 _ZN5Katie18qdesigner_internal24MoveStackedWidgetCommand4initEPNS_14QStackedWidgetEPNS_7QWidgetEi@Base 4.9.0
 _ZN5Katie18qdesigner_internal24MoveStackedWidgetCommand4redoEv@Base 4.9.0
 _ZN5Katie18qdesigner_internal24MoveStackedWidgetCommand4undoEv@Base 4.9.0
 _ZN5Katie18qdesigner_internal24MoveStackedWidgetCommandC1EPNS_28QDesignerFormWindowInterfaceE@Base 4.9.0
 _ZN5Katie18qdesigner_internal24MoveStackedWidgetCommandC2EPNS_28QDesignerFormWindowInterfaceE@Base 4.9.0
 _ZN5Katie18qdesigner_internal24MoveStackedWidgetCommandD0Ev@Base 4.9.0
 _ZN5Katie18qdesigner_internal24MoveStackedWidgetCommandD1Ev@Base 4.9.0
 _ZN5Katie18qdesigner_internal24MoveStackedWidgetCommandD2Ev@Base 4.9.0
 _ZN5Katie18qdesigner_internal24NewFormWidgetFormBuilder19createCustomWidgetsEPNS_16DomCustomWidgetsE@Base 4.9.0
 _ZN5Katie18qdesigner_internal24NewFormWidgetFormBuilderC1EPNS_28QDesignerFormEditorInterfaceENS0_20QDesignerFormBuilder4ModeERKNS0_13DeviceProfileE@Base 4.9.0
 _ZN5Katie18qdesigner_internal24NewFormWidgetFormBuilderC2EPNS_28QDesignerFormEditorInterfaceENS0_20QDesignerFormBuilder4ModeERKNS0_13DeviceProfileE@Base 4.9.0
 _ZN5Katie18qdesigner_internal24PropertySheetPixmapValue15getPixmapSourceEPNS_28QDesignerFormEditorInterfaceERKNS_7QStringE@Base 4.9.0
 _ZN5Katie18qdesigner_internal24PropertySheetPixmapValue7setPathERKNS_7QStringE@Base 4.9.0
 _ZN5Katie18qdesigner_internal24PropertySheetPixmapValueC1ERKNS_7QStringE@Base 4.9.0
 _ZN5Katie18qdesigner_internal24PropertySheetPixmapValueC1Ev@Base 4.9.0
 _ZN5Katie18qdesigner_internal24PropertySheetPixmapValueC2ERKNS_7QStringE@Base 4.9.0
 _ZN5Katie18qdesigner_internal24PropertySheetPixmapValueC2Ev@Base 4.9.0
 _ZN5Katie18qdesigner_internal24PropertySheetStringValue10setCommentERKNS_7QStringE@Base 4.9.0
 _ZN5Katie18qdesigner_internal24PropertySheetStringValue15setTranslatableEb@Base 4.9.0
 _ZN5Katie18qdesigner_internal24PropertySheetStringValue17setDisambiguationERKNS_7QStringE@Base 4.9.0
 _ZN5Katie18qdesigner_internal24PropertySheetStringValue8setValueERKNS_7QStringE@Base 4.9.0
 _ZN5Katie18qdesigner_internal24PropertySheetStringValueC1ERKNS_7QStringEbS4_S4_@Base 4.9.0
 _ZN5Katie18qdesigner_internal24PropertySheetStringValueC2ERKNS_7QStringEbS4_S4_@Base 4.9.0
 _ZN5Katie18qdesigner_internal24QDesignerObjectInspector11qt_metacallENS_11QMetaObject4CallEiPPv@Base 4.9.0
 _ZN5Katie18qdesigner_internal24QDesignerObjectInspector11qt_metacastEPKc@Base 4.9.0
 _ZN5Katie18qdesigner_internal24QDesignerObjectInspector16staticMetaObjectE@Base 4.9.0
 _ZN5Katie18qdesigner_internal24QDesignerObjectInspector19getStaticMetaObjectEv@Base 4.9.0
 _ZN5Katie18qdesigner_internal24QDesignerObjectInspector20mainContainerChangedEv@Base 4.9.0
 _ZN5Katie18qdesigner_internal24QDesignerObjectInspectorC1EPNS_7QWidgetENS_6QFlagsINS_2Qt10WindowTypeEEE@Base 4.9.0
 _ZN5Katie18qdesigner_internal24QDesignerObjectInspectorC2EPNS_7QWidgetENS_6QFlagsINS_2Qt10WindowTypeEEE@Base 4.9.0
 _ZN5Katie18qdesigner_internal25AddDynamicPropertyCommand14setDescriptionEv@Base 4.9.0
 _ZN5Katie18qdesigner_internal25AddDynamicPropertyCommand4initERKNS_5QListIPNS_7QObjectEEES4_RKNS_7QStringERKNS_8QVariantE@Base 4.9.0
 _ZN5Katie18qdesigner_internal25AddDynamicPropertyCommand4redoEv@Base 4.9.0
 _ZN5Katie18qdesigner_internal25AddDynamicPropertyCommand4undoEv@Base 4.9.0
 _ZN5Katie18qdesigner_internal25AddDynamicPropertyCommandC1EPNS_28QDesignerFormWindowInterfaceE@Base 4.9.0
 _ZN5Katie18qdesigner_internal25AddDynamicPropertyCommandC2EPNS_28QDesignerFormWindowInterfaceE@Base 4.9.0
 _ZN5Katie18qdesigner_internal25ChangeListContentsCommand4initEPNS_11QListWidgetERKNS0_12ListContentsES6_@Base 4.9.0
 _ZN5Katie18qdesigner_internal25ChangeListContentsCommand4initEPNS_9QComboBoxERKNS0_12ListContentsES6_@Base 4.9.0
 _ZN5Katie18qdesigner_internal25ChangeListContentsCommand4redoEv@Base 4.9.0
 _ZN5Katie18qdesigner_internal25ChangeListContentsCommand4undoEv@Base 4.9.0
 _ZN5Katie18qdesigner_internal25ChangeListContentsCommandC1EPNS_28QDesignerFormWindowInterfaceE@Base 4.9.0
 _ZN5Katie18qdesigner_internal25ChangeListContentsCommandC2EPNS_28QDesignerFormWindowInterfaceE@Base 4.9.0
 _ZN5Katie18qdesigner_internal25ChangeTreeContentsCommand4initEPNS_11QTreeWidgetERKNS0_18TreeWidgetContentsES6_@Base 4.9.0
 _ZN5Katie18qdesigner_internal25ChangeTreeContentsCommand4redoEv@Base 4.9.0
 _ZN5Katie18qdesigner_internal25ChangeTreeContentsCommand4undoEv@Base 4.9.0
 _ZN5Katie18qdesigner_internal25ChangeTreeContentsCommandC1EPNS_28QDesignerFormWindowInterfaceE@Base 4.9.0
 _ZN5Katie18qdesigner_internal25ChangeTreeContentsCommandC2EPNS_28QDesignerFormWindowInterfaceE@Base 4.9.0
 _ZN5Katie18qdesigner_internal25ManageWidgetCommandHelper4initEPKNS_28QDesignerFormWindowInterfaceEPNS_7QWidgetE@Base 4.9.0
 _ZN5Katie18qdesigner_internal25ManageWidgetCommandHelper4initEPNS_7QWidgetERKNS_7QVectorIS3_EE@Base 4.9.0
 _ZN5Katie18qdesigner_internal25ManageWidgetCommandHelper6manageEPNS_28QDesignerFormWindowInterfaceE@Base 4.9.0
 _ZN5Katie18qdesigner_internal25ManageWidgetCommandHelper8unmanageEPNS_28QDesignerFormWindowInterfaceE@Base 4.9.0
 _ZN5Katie18qdesigner_internal25ManageWidgetCommandHelperC1Ev@Base 4.9.0
 _ZN5Katie18qdesigner_internal25ManageWidgetCommandHelperC2Ev@Base 4.9.0
 _ZN5Katie18qdesigner_internal25createTextPropertyCommandERKNS_7QStringES3_PNS_7QObjectEPNS_28QDesignerFormWindowInterfaceE@Base 4.9.0
 _ZN5Katie18qdesigner_internal25getFormLayoutItemPositionEPKNS_11QFormLayoutEiPiS4_S4_S4_@Base 4.9.0
 _ZN5Katie18qdesigner_internal26ChangeTableContentsCommand4initEPNS_12QTableWidgetERKNS0_19TableWidgetContentsES6_@Base 4.9.0
 _ZN5Katie18qdesigner_internal26ChangeTableContentsCommand4redoEv@Base 4.9.0
 _ZN5Katie18qdesigner_internal26ChangeTableContentsCommand4undoEv@Base 4.9.0
 _ZN5Katie18qdesigner_internal26ChangeTableContentsCommandC1EPNS_28QDesignerFormWindowInterfaceE@Base 4.9.0
 _ZN5Katie18qdesigner_internal26ChangeTableContentsCommandC2EPNS_28QDesignerFormWindowInterfaceE@Base 4.9.0
 _ZN5Katie18qdesigner_internal26PreviewConfigurationWidget11qt_metacallENS_11QMetaObject4CallEiPPv@Base 4.9.0
 _ZN5Katie18qdesigner_internal26PreviewConfigurationWidget11qt_metacastEPKc@Base 4.9.0
 _ZN5Katie18qdesigner_internal26PreviewConfigurationWidget16staticMetaObjectE@Base 4.9.0
 _ZN5Katie18qdesigner_internal26PreviewConfigurationWidget19getStaticMetaObjectEv@Base 4.9.0
 _ZN5Katie18qdesigner_internal26PreviewConfigurationWidget21slotEditAppStyleSheetEv@Base 4.9.0
 _ZN5Katie18qdesigner_internal26PreviewConfigurationWidget33PreviewConfigurationWidgetPrivate16retrieveSettingsEv@Base 4.9.0
 _ZN5Katie18qdesigner_internal26PreviewConfigurationWidget33PreviewConfigurationWidgetPrivate21slotEditAppStyleSheetEv@Base 4.9.0
 _ZN5Katie18qdesigner_internal26PreviewConfigurationWidget33PreviewConfigurationWidgetPrivate23setPreviewConfigurationERKNS0_20PreviewConfigurationE@Base 4.9.0
 _ZN5Katie18qdesigner_internal26PreviewConfigurationWidget33PreviewConfigurationWidgetPrivateC1EPNS_28QDesignerFormEditorInterfaceEPNS_9QGroupBoxE@Base 4.9.0
 _ZN5Katie18qdesigner_internal26PreviewConfigurationWidget33PreviewConfigurationWidgetPrivateC2EPNS_28QDesignerFormEditorInterfaceEPNS_9QGroupBoxE@Base 4.9.0
 _ZN5Katie18qdesigner_internal26PreviewConfigurationWidget9saveStateEv@Base 4.9.0
 _ZN5Katie18qdesigner_internal26PreviewConfigurationWidgetC1EPNS_28QDesignerFormEditorInterfaceEPNS_7QWidgetE@Base 4.9.0
 _ZN5Katie18qdesigner_internal26PreviewConfigurationWidgetC2EPNS_28QDesignerFormEditorInterfaceEPNS_7QWidgetE@Base 4.9.0
 _ZN5Katie18qdesigner_internal26PreviewConfigurationWidgetD0Ev@Base 4.9.0
 _ZN5Katie18qdesigner_internal26PreviewConfigurationWidgetD1Ev@Base 4.9.0
 _ZN5Katie18qdesigner_internal26PreviewConfigurationWidgetD2Ev@Base 4.9.0
 _ZN5Katie18qdesigner_internal26QDesignerFormEditorCommandC1ERKNS_7QStringEPNS_28QDesignerFormEditorInterfaceE@Base 4.9.0
 _ZN5Katie18qdesigner_internal26QDesignerFormEditorCommandC2ERKNS_7QStringEPNS_28QDesignerFormEditorInterfaceE@Base 4.9.0
 _ZN5Katie18qdesigner_internal26QDesignerFormWindowCommand11cheapUpdateEv@Base 4.9.0
 _ZN5Katie18qdesigner_internal26QDesignerFormWindowCommand13updateBuddiesEPNS_28QDesignerFormWindowInterfaceERKNS_7QStringES6_@Base 4.9.0
 _ZN5Katie18qdesigner_internal26QDesignerFormWindowCommand21selectUnmanagedObjectEPNS_7QObjectE@Base 4.9.0
 _ZN5Katie18qdesigner_internal26QDesignerFormWindowCommand4redoEv@Base 4.9.0
 _ZN5Katie18qdesigner_internal26QDesignerFormWindowCommand4undoEv@Base 4.9.0
 _ZN5Katie18qdesigner_internal26QDesignerFormWindowCommandC1ERKNS_7QStringEPNS_28QDesignerFormWindowInterfaceEPNS_12QUndoCommandE@Base 4.9.0
 _ZN5Katie18qdesigner_internal26QDesignerFormWindowCommandC2ERKNS_7QStringEPNS_28QDesignerFormWindowInterfaceEPNS_12QUndoCommandE@Base 4.9.0
 _ZN5Katie18qdesigner_internal26QDesignerFormWindowManager11qt_metacallENS_11QMetaObject4CallEiPPv@Base 4.9.0
 _ZN5Katie18qdesigner_internal26QDesignerFormWindowManager11qt_metacastEPKc@Base 4.9.0
 _ZN5Katie18qdesigner_internal26QDesignerFormWindowManager12aboutPluginsEv@Base 4.9.0
 _ZN5Katie18qdesigner_internal26QDesignerFormWindowManager16staticMetaObjectE@Base 4.9.0
 _ZN5Katie18qdesigner_internal26QDesignerFormWindowManager19getStaticMetaObjectEv@Base 4.9.0
 _ZN5Katie18qdesigner_internal26QDesignerFormWindowManager25formWindowSettingsChangedEPNS_28QDesignerFormWindowInterfaceE@Base 4.9.0
 _ZN5Katie18qdesigner_internal26QDesignerFormWindowManagerC1EPNS_7QObjectE@Base 4.9.0
 _ZN5Katie18qdesigner_internal26QDesignerFormWindowManagerC2EPNS_7QObjectE@Base 4.9.0
 _ZN5Katie18qdesigner_internal26QDesignerFormWindowManagerD0Ev@Base 4.9.0
 _ZN5Katie18qdesigner_internal26QDesignerFormWindowManagerD1Ev@Base 4.9.0
 _ZN5Katie18qdesigner_internal26QDesignerFormWindowManagerD2Ev@Base 4.9.0
 _ZN5Katie18qdesigner_internal27AddStackedWidgetPageCommand4initEPNS_14QStackedWidgetE@Base 4.9.0
 _ZN5Katie18qdesigner_internal27AddStackedWidgetPageCommand4initEPNS_14QStackedWidgetENS1_13InsertionModeE@Base 4.9.0
 _ZN5Katie18qdesigner_internal27AddStackedWidgetPageCommand4redoEv@Base 4.9.0
 _ZN5Katie18qdesigner_internal27AddStackedWidgetPageCommand4undoEv@Base 4.9.0
 _ZN5Katie18qdesigner_internal27AddStackedWidgetPageCommandC1EPNS_28QDesignerFormWindowInterfaceE@Base 4.9.0
 _ZN5Katie18qdesigner_internal27AddStackedWidgetPageCommandC2EPNS_28QDesignerFormWindowInterfaceE@Base 4.9.0
 _ZN5Katie18qdesigner_internal27AddStackedWidgetPageCommandD0Ev@Base 4.9.0
 _ZN5Katie18qdesigner_internal27AddStackedWidgetPageCommandD1Ev@Base 4.9.0
 _ZN5Katie18qdesigner_internal27AddStackedWidgetPageCommandD2Ev@Base 4.9.0
 _ZN5Katie18qdesigner_internal28PromoteToCustomWidgetCommand15updateSelectionEv@Base 4.9.0
 _ZN5Katie18qdesigner_internal28PromoteToCustomWidgetCommand4initERKNS_5QListINS_8QPointerINS_7QWidgetEEEEERKNS_7QStringE@Base 4.9.0
 _ZN5Katie18qdesigner_internal28PromoteToCustomWidgetCommand4redoEv@Base 4.9.0
 _ZN5Katie18qdesigner_internal28PromoteToCustomWidgetCommand4undoEv@Base 4.9.0
 _ZN5Katie18qdesigner_internal28PromoteToCustomWidgetCommandC1EPNS_28QDesignerFormWindowInterfaceE@Base 4.9.0
 _ZN5Katie18qdesigner_internal28PromoteToCustomWidgetCommandC2EPNS_28QDesignerFormWindowInterfaceE@Base 4.9.0
 _ZN5Katie18qdesigner_internal28QDesignerWidgetItemInstaller15m_instanceCountE@Base 4.9.0
 _ZN5Katie18qdesigner_internal28QDesignerWidgetItemInstallerC1Ev@Base 4.9.0
 _ZN5Katie18qdesigner_internal28QDesignerWidgetItemInstallerC2Ev@Base 4.9.0
 _ZN5Katie18qdesigner_internal28QDesignerWidgetItemInstallerD1Ev@Base 4.9.0
 _ZN5Katie18qdesigner_internal28QDesignerWidgetItemInstallerD2Ev@Base 4.9.0
 _ZN5Katie18qdesigner_internal28RemoveDynamicPropertyCommand14setDescriptionEv@Base 4.9.0
 _ZN5Katie18qdesigner_internal28RemoveDynamicPropertyCommand4initERKNS_5QListIPNS_7QObjectEEES4_RKNS_7QStringE@Base 4.9.0
 _ZN5Katie18qdesigner_internal28RemoveDynamicPropertyCommand4redoEv@Base 4.9.0
 _ZN5Katie18qdesigner_internal28RemoveDynamicPropertyCommand4undoEv@Base 4.9.0
 _ZN5Katie18qdesigner_internal28RemoveDynamicPropertyCommandC1EPNS_28QDesignerFormWindowInterfaceE@Base 4.9.0
 _ZN5Katie18qdesigner_internal28RemoveDynamicPropertyCommandC2EPNS_28QDesignerFormWindowInterfaceE@Base 4.9.0
 _ZN5Katie18qdesigner_internal29AddContainerWidgetPageCommand4initEPNS_7QWidgetENS0_13ContainerTypeENS1_13InsertionModeE@Base 4.9.0
 _ZN5Katie18qdesigner_internal29AddContainerWidgetPageCommand4redoEv@Base 4.9.0
 _ZN5Katie18qdesigner_internal29AddContainerWidgetPageCommand4undoEv@Base 4.9.0
 _ZN5Katie18qdesigner_internal29AddContainerWidgetPageCommandC1EPNS_28QDesignerFormWindowInterfaceE@Base 4.9.0
 _ZN5Katie18qdesigner_internal29AddContainerWidgetPageCommandC2EPNS_28QDesignerFormWindowInterfaceE@Base 4.9.0
 _ZN5Katie18qdesigner_internal29AddContainerWidgetPageCommandD0Ev@Base 4.9.0
 _ZN5Katie18qdesigner_internal29AddContainerWidgetPageCommandD1Ev@Base 4.9.0
 _ZN5Katie18qdesigner_internal29AddContainerWidgetPageCommandD2Ev@Base 4.9.0
 _ZN5Katie18qdesigner_internal29DemoteFromCustomWidgetCommand4initERKNS_5QListINS_8QPointerINS_7QWidgetEEEEE@Base 4.9.0
 _ZN5Katie18qdesigner_internal29DemoteFromCustomWidgetCommand4redoEv@Base 4.9.0
 _ZN5Katie18qdesigner_internal29DemoteFromCustomWidgetCommand4undoEv@Base 4.9.0
 _ZN5Katie18qdesigner_internal29DemoteFromCustomWidgetCommandC1EPNS_28QDesignerFormWindowInterfaceE@Base 4.9.0
 _ZN5Katie18qdesigner_internal29DemoteFromCustomWidgetCommandC2EPNS_28QDesignerFormWindowInterfaceE@Base 4.9.0
 _ZN5Katie18qdesigner_internal29PropertySheetKeySequenceValue10setCommentERKNS_7QStringE@Base 4.9.0
 _ZN5Katie18qdesigner_internal29PropertySheetKeySequenceValue14setStandardKeyERKNS_12QKeySequence11StandardKeyE@Base 4.9.0
 _ZN5Katie18qdesigner_internal29PropertySheetKeySequenceValue15setTranslatableEb@Base 4.9.0
 _ZN5Katie18qdesigner_internal29PropertySheetKeySequenceValue17setDisambiguationERKNS_7QStringE@Base 4.9.0
 _ZN5Katie18qdesigner_internal29PropertySheetKeySequenceValue8setValueERKNS_12QKeySequenceE@Base 4.9.0
 _ZN5Katie18qdesigner_internal29PropertySheetKeySequenceValueC1ERKNS_12QKeySequence11StandardKeyEbRKNS_7QStringES8_@Base 4.9.0
 _ZN5Katie18qdesigner_internal29PropertySheetKeySequenceValueC1ERKNS_12QKeySequenceEbRKNS_7QStringES7_@Base 4.9.0
 _ZN5Katie18qdesigner_internal29PropertySheetKeySequenceValueC2ERKNS_12QKeySequence11StandardKeyEbRKNS_7QStringES8_@Base 4.9.0
 _ZN5Katie18qdesigner_internal29PropertySheetKeySequenceValueC2ERKNS_12QKeySequenceEbRKNS_7QStringES7_@Base 4.9.0
 _ZN5Katie18qdesigner_internal30DeleteStackedWidgetPageCommand4initEPNS_14QStackedWidgetE@Base 4.9.0
 _ZN5Katie18qdesigner_internal30DeleteStackedWidgetPageCommand4redoEv@Base 4.9.0
 _ZN5Katie18qdesigner_internal30DeleteStackedWidgetPageCommand4undoEv@Base 4.9.0
 _ZN5Katie18qdesigner_internal30DeleteStackedWidgetPageCommandC1EPNS_28QDesignerFormWindowInterfaceE@Base 4.9.0
 _ZN5Katie18qdesigner_internal30DeleteStackedWidgetPageCommandC2EPNS_28QDesignerFormWindowInterfaceE@Base 4.9.0
 _ZN5Katie18qdesigner_internal30DeleteStackedWidgetPageCommandD0Ev@Base 4.9.0
 _ZN5Katie18qdesigner_internal30DeleteStackedWidgetPageCommandD1Ev@Base 4.9.0
 _ZN5Katie18qdesigner_internal30DeleteStackedWidgetPageCommandD2Ev@Base 4.9.0
 _ZN5Katie18qdesigner_internal30StyleSheetPropertyEditorDialog11qt_metacallENS_11QMetaObject4CallEiPPv@Base 4.9.0
 _ZN5Katie18qdesigner_internal30StyleSheetPropertyEditorDialog11qt_metacastEPKc@Base 4.9.0
 _ZN5Katie18qdesigner_internal30StyleSheetPropertyEditorDialog15applyStyleSheetEv@Base 4.9.0
 _ZN5Katie18qdesigner_internal30StyleSheetPropertyEditorDialog16staticMetaObjectE@Base 4.9.0
 _ZN5Katie18qdesigner_internal30StyleSheetPropertyEditorDialog19getStaticMetaObjectEv@Base 4.9.0
 _ZN5Katie18qdesigner_internal30StyleSheetPropertyEditorDialogC1EPNS_7QWidgetEPNS_28QDesignerFormWindowInterfaceES3_@Base 4.9.0
 _ZN5Katie18qdesigner_internal30StyleSheetPropertyEditorDialogC2EPNS_7QWidgetEPNS_28QDesignerFormWindowInterfaceES3_@Base 4.9.0
 _ZN5Katie18qdesigner_internal31ChangeFormLayoutItemRoleCommand11doOperationENS1_9OperationE@Base 4.9.0
 _ZN5Katie18qdesigner_internal31ChangeFormLayoutItemRoleCommand16reverseOperationENS1_9OperationE@Base 4.9.0
 _ZN5Katie18qdesigner_internal31ChangeFormLayoutItemRoleCommand18possibleOperationsEPNS_28QDesignerFormEditorInterfaceEPNS_7QWidgetE@Base 4.9.0
 _ZN5Katie18qdesigner_internal31ChangeFormLayoutItemRoleCommand19managedFormLayoutOfEPNS_28QDesignerFormEditorInterfaceEPNS_7QWidgetE@Base 4.9.0
 _ZN5Katie18qdesigner_internal31ChangeFormLayoutItemRoleCommand4initEPNS_7QWidgetENS1_9OperationE@Base 4.9.0
 _ZN5Katie18qdesigner_internal31ChangeFormLayoutItemRoleCommand4redoEv@Base 4.9.0
 _ZN5Katie18qdesigner_internal31ChangeFormLayoutItemRoleCommand4undoEv@Base 4.9.0
 _ZN5Katie18qdesigner_internal31ChangeFormLayoutItemRoleCommandC1EPNS_28QDesignerFormWindowInterfaceE@Base 4.9.0
 _ZN5Katie18qdesigner_internal31ChangeFormLayoutItemRoleCommandC2EPNS_28QDesignerFormWindowInterfaceE@Base 4.9.0
 _ZN5Katie18qdesigner_internal32DeleteContainerWidgetPageCommand4initEPNS_7QWidgetENS0_13ContainerTypeE@Base 4.9.0
 _ZN5Katie18qdesigner_internal32DeleteContainerWidgetPageCommand4redoEv@Base 4.9.0
 _ZN5Katie18qdesigner_internal32DeleteContainerWidgetPageCommand4undoEv@Base 4.9.0
 _ZN5Katie18qdesigner_internal32DeleteContainerWidgetPageCommandC1EPNS_28QDesignerFormWindowInterfaceE@Base 4.9.0
 _ZN5Katie18qdesigner_internal32DeleteContainerWidgetPageCommandC2EPNS_28QDesignerFormWindowInterfaceE@Base 4.9.0
 _ZN5Katie18qdesigner_internal32DeleteContainerWidgetPageCommandD0Ev@Base 4.9.0
 _ZN5Katie18qdesigner_internal32DeleteContainerWidgetPageCommandD1Ev@Base 4.9.0
 _ZN5Katie18qdesigner_internal32DeleteContainerWidgetPageCommandD2Ev@Base 4.9.0
 _ZN5Katie18qdesigner_internal4Grid14fromVariantMapERKNS_4QMapINS_7QStringENS_8QVariantEEE@Base 4.9.0
 _ZN5Katie18qdesigner_internal4GridC1Ev@Base 4.9.0
 _ZN5Katie18qdesigner_internal4GridC2Ev@Base 4.9.0
 _ZN5Katie18qdesigner_internal5qtifyERKNS_7QStringE@Base 4.9.0
 _ZN5Katie18qdesigner_internal6Layout10undoLayoutEv@Base 4.9.0
 _ZN5Katie18qdesigner_internal6Layout11breakLayoutEv@Base 4.9.0
 _ZN5Katie18qdesigner_internal6Layout11qt_metacallENS_11QMetaObject4CallEiPPv@Base 4.9.0
 _ZN5Katie18qdesigner_internal6Layout11qt_metacastEPKc@Base 4.9.0
 _ZN5Katie18qdesigner_internal6Layout12createLayoutERKNS_5QListIPNS_7QWidgetEEES4_PNS_28QDesignerFormWindowInterfaceES4_NS0_10LayoutInfo4TypeE@Base 4.9.0
 _ZN5Katie18qdesigner_internal6Layout12createLayoutEi@Base 4.9.0
 _ZN5Katie18qdesigner_internal6Layout12finishLayoutEbPNS_7QLayoutE@Base 4.9.0
 _ZN5Katie18qdesigner_internal6Layout13prepareLayoutERbS2_@Base 4.9.0
 _ZN5Katie18qdesigner_internal6Layout15widgetDestroyedEv@Base 4.9.0
 _ZN5Katie18qdesigner_internal6Layout16staticMetaObjectE@Base 4.9.0
 _ZN5Katie18qdesigner_internal6Layout19getStaticMetaObjectEv@Base 4.9.0
 _ZN5Katie18qdesigner_internal6Layout20reparentToLayoutBaseEPNS_7QWidgetE@Base 4.9.0
 _ZN5Katie18qdesigner_internal6Layout5setupEv@Base 4.9.0
 _ZN5Katie18qdesigner_internal6LayoutC1ERKNS_5QListIPNS_7QWidgetEEES4_PNS_28QDesignerFormWindowInterfaceES4_NS0_10LayoutInfo4TypeE@Base 4.9.0
 _ZN5Katie18qdesigner_internal6LayoutC2ERKNS_5QListIPNS_7QWidgetEEES4_PNS_28QDesignerFormWindowInterfaceES4_NS0_10LayoutInfo4TypeE@Base 4.9.0
 _ZN5Katie18qdesigner_internal6LayoutD0Ev@Base 4.9.0
 _ZN5Katie18qdesigner_internal6LayoutD1Ev@Base 4.9.0
 _ZN5Katie18qdesigner_internal6LayoutD2Ev@Base 4.9.0
 _ZN5Katie18qdesigner_internal6runUICERKNS_7QStringERNS_10QByteArrayERS1_@Base 4.9.0
 _ZN5Katie18qdesigner_internal8ItemDataC1EPKNS_15QListWidgetItemEb@Base 4.9.0
 _ZN5Katie18qdesigner_internal8ItemDataC1EPKNS_15QTreeWidgetItemEi@Base 4.9.0
 _ZN5Katie18qdesigner_internal8ItemDataC1EPKNS_16QTableWidgetItemEb@Base 4.9.0
 _ZN5Katie18qdesigner_internal8ItemDataC2EPKNS_15QListWidgetItemEb@Base 4.9.0
 _ZN5Katie18qdesigner_internal8ItemDataC2EPKNS_15QTreeWidgetItemEi@Base 4.9.0
 _ZN5Katie18qdesigner_internal8ItemDataC2EPKNS_16QTableWidgetItemEb@Base 4.9.0
 _ZN5Katie18qdesigner_internal8ZoomMenu10addActionsEPNS_5QMenuE@Base 4.9.0
 _ZN5Katie18qdesigner_internal8ZoomMenu10zoomValuesEv@Base 4.9.0
 _ZN5Katie18qdesigner_internal8ZoomMenu11qt_metacallENS_11QMetaObject4CallEiPPv@Base 4.9.0
 _ZN5Katie18qdesigner_internal8ZoomMenu11qt_metacastEPKc@Base 4.9.0
 _ZN5Katie18qdesigner_internal8ZoomMenu11zoomChangedEi@Base 4.9.0
 _ZN5Katie18qdesigner_internal8ZoomMenu12slotZoomMenuEPNS_7QActionE@Base 4.9.0
 _ZN5Katie18qdesigner_internal8ZoomMenu16staticMetaObjectE@Base 4.9.0
 _ZN5Katie18qdesigner_internal8ZoomMenu19getStaticMetaObjectEv@Base 4.9.0
 _ZN5Katie18qdesigner_internal8ZoomMenu6zoomOfEPKNS_7QActionE@Base 4.9.0
 _ZN5Katie18qdesigner_internal8ZoomMenu7setZoomEi@Base 4.9.0
 _ZN5Katie18qdesigner_internal8ZoomMenuC1EPNS_7QObjectE@Base 4.9.0
 _ZN5Katie18qdesigner_internal8ZoomMenuC2EPNS_7QObjectE@Base 4.9.0
 _ZN5Katie18qdesigner_internal8ZoomView11qt_metacallENS_11QMetaObject4CallEiPPv@Base 4.9.0
 _ZN5Katie18qdesigner_internal8ZoomView11qt_metacastEPKc@Base 4.9.0
 _ZN5Katie18qdesigner_internal8ZoomView14scrollToOriginEv@Base 4.9.0
 _ZN5Katie18qdesigner_internal8ZoomView15showContextMenuERKNS_6QPointE@Base 4.9.0
 _ZN5Katie18qdesigner_internal8ZoomView16contextMenuEventEPNS_17QContextMenuEventE@Base 4.9.0
 _ZN5Katie18qdesigner_internal8ZoomView16staticMetaObjectE@Base 4.9.0
 _ZN5Katie18qdesigner_internal8ZoomView17setScrollPositionERKNS_6QPointE@Base 4.9.0
 _ZN5Katie18qdesigner_internal8ZoomView19getStaticMetaObjectEv@Base 4.9.0
 _ZN5Katie18qdesigner_internal8ZoomView25setZoomContextMenuEnabledEb@Base 4.9.0
 _ZN5Katie18qdesigner_internal8ZoomView7setZoomEi@Base 4.9.0
 _ZN5Katie18qdesigner_internal8ZoomView8zoomMenuEv@Base 4.9.0
 _ZN5Katie18qdesigner_internal8ZoomView9applyZoomEv@Base 4.9.0
 _ZN5Katie18qdesigner_internal8ZoomViewC1EPNS_7QWidgetE@Base 4.9.0
 _ZN5Katie18qdesigner_internal8ZoomViewC2EPNS_7QWidgetE@Base 4.9.0
 _ZN5Katie18qdesigner_internal9DialogGui15getOpenFileNameEPNS_7QWidgetERKNS_7QStringES6_S6_PS4_NS_6QFlagsINS_11QFileDialog6OptionEEE@Base 4.9.0
 _ZN5Katie18qdesigner_internal9DialogGui15getSaveFileNameEPNS_7QWidgetERKNS_7QStringES6_S6_PS4_NS_6QFlagsINS_11QFileDialog6OptionEEE@Base 4.9.0
 _ZN5Katie18qdesigner_internal9DialogGui16getOpenFileNamesEPNS_7QWidgetERKNS_7QStringES6_S6_PS4_NS_6QFlagsINS_11QFileDialog6OptionEEE@Base 4.9.0
 _ZN5Katie18qdesigner_internal9DialogGui18ensureIconProviderEv@Base 4.9.0
 _ZN5Katie18qdesigner_internal9DialogGui20getExistingDirectoryEPNS_7QWidgetERKNS_7QStringES6_NS_6QFlagsINS_11QFileDialog6OptionEEE@Base 4.9.0
 _ZN5Katie18qdesigner_internal9DialogGui20getOpenImageFileNameEPNS_7QWidgetERKNS_7QStringES6_S6_PS4_NS_6QFlagsINS_11QFileDialog6OptionEEE@Base 4.9.0
 _ZN5Katie18qdesigner_internal9DialogGui21getOpenImageFileNamesEPNS_7QWidgetERKNS_7QStringES6_S6_PS4_NS_6QFlagsINS_11QFileDialog6OptionEEE@Base 4.9.0
 _ZN5Katie18qdesigner_internal9DialogGui25initializeImageFileDialogERNS_11QFileDialogENS_6QFlagsINS2_6OptionEEENS2_8FileModeE@Base 4.9.0
 _ZN5Katie18qdesigner_internal9DialogGui7messageEPNS_7QWidgetENS_27QDesignerDialogGuiInterface7MessageENS_11QMessageBox4IconERKNS_7QStringESA_NS_6QFlagsINS6_14StandardButtonEEESC_@Base 4.9.0
 _ZN5Katie18qdesigner_internal9DialogGui7messageEPNS_7QWidgetENS_27QDesignerDialogGuiInterface7MessageENS_11QMessageBox4IconERKNS_7QStringESA_SA_NS_6QFlagsINS6_14StandardButtonEEESC_@Base 4.9.0
 _ZN5Katie18qdesigner_internal9DialogGui7messageEPNS_7QWidgetENS_27QDesignerDialogGuiInterface7MessageENS_11QMessageBox4IconERKNS_7QStringESA_SA_SA_NS_6QFlagsINS6_14StandardButtonEEESC_@Base 4.9.0
 _ZN5Katie18qdesigner_internal9DialogGuiC1Ev@Base 4.9.0
 _ZN5Katie18qdesigner_internal9DialogGuiC2Ev@Base 4.9.0
 _ZN5Katie18qdesigner_internal9DialogGuiD0Ev@Base 4.9.0
 _ZN5Katie18qdesigner_internal9DialogGuiD1Ev@Base 4.9.0
 _ZN5Katie18qdesigner_internal9DialogGuiD2Ev@Base 4.9.0
 _ZN5Katie18qdesigner_internal9GridPanel10setCheckedEb@Base 4.9.0
 _ZN5Katie18qdesigner_internal9GridPanel11qt_metacallENS_11QMetaObject4CallEiPPv@Base 4.9.0
 _ZN5Katie18qdesigner_internal9GridPanel11qt_metacastEPKc@Base 4.9.0
 _ZN5Katie18qdesigner_internal9GridPanel12setCheckableEb@Base 4.9.0
 _ZN5Katie18qdesigner_internal9GridPanel16staticMetaObjectE@Base 4.9.0
 _ZN5Katie18qdesigner_internal9GridPanel19getStaticMetaObjectEv@Base 4.9.0
 _ZN5Katie18qdesigner_internal9GridPanel21setResetButtonVisibleEb@Base 4.9.0
 _ZN5Katie18qdesigner_internal9GridPanel5resetEv@Base 4.9.0
 _ZN5Katie18qdesigner_internal9GridPanel7setGridERKNS0_4GridE@Base 4.9.0
 _ZN5Katie18qdesigner_internal9GridPanel8setTitleERKNS_7QStringE@Base 4.9.0
 _ZN5Katie18qdesigner_internal9GridPanelC1EPNS_7QWidgetE@Base 4.9.0
 _ZN5Katie18qdesigner_internal9GridPanelC2EPNS_7QWidgetE@Base 4.9.0
 _ZN5Katie18qdesigner_internal9GridPanelD0Ev@Base 4.9.0
 _ZN5Katie18qdesigner_internal9GridPanelD1Ev@Base 4.9.0
 _ZN5Katie18qdesigner_internal9GridPanelD2Ev@Base 4.9.0
 _ZN5Katie18qdesigner_internal9MorphMenu11qt_metacallENS_11QMetaObject4CallEiPPv@Base 4.9.0
 _ZN5Katie18qdesigner_internal9MorphMenu11qt_metacastEPKc@Base 4.9.0
 _ZN5Katie18qdesigner_internal9MorphMenu12populateMenuEPNS_7QWidgetEPNS_28QDesignerFormWindowInterfaceE@Base 4.9.0
 _ZN5Katie18qdesigner_internal9MorphMenu16staticMetaObjectE@Base 4.9.0
 _ZN5Katie18qdesigner_internal9MorphMenu19getStaticMetaObjectEv@Base 4.9.0
 _ZN5Katie18qdesigner_internal9MorphMenu8populateEPNS_7QWidgetEPNS_28QDesignerFormWindowInterfaceERNS_5QListIPNS_7QActionEEE@Base 4.9.0
 _ZN5Katie18qdesigner_internal9MorphMenu8populateEPNS_7QWidgetEPNS_28QDesignerFormWindowInterfaceERNS_5QMenuE@Base 4.9.0
 _ZN5Katie18qdesigner_internal9MorphMenu9slotMorphERKNS_7QStringE@Base 4.9.0
 _ZN5Katie18qdesigner_internal9MorphMenuC1EPNS_7QObjectE@Base 4.9.0
 _ZN5Katie18qdesigner_internal9MorphMenuC2EPNS_7QObjectE@Base 4.9.0
 _ZN5Katie18qdesigner_internal9Selection5clearEv@Base 4.9.0
 _ZN5Katie18qdesigner_internal9emptyIconEv@Base 4.9.0
 _ZN5Katie18qdesigner_internaleqERKNS0_20PreviewConfigurationES3_@Base 4.9.0
 _ZN5Katie18qdesigner_internallsENS_6QDebugERKNS0_22PropertySheetIconValueE@Base 4.9.0
 _ZN5Katie18qdesigner_internalltERKNS0_20PreviewConfigurationES3_@Base 4.9.0
 _ZN5Katie18qdesigner_internalneERKNS0_20PreviewConfigurationES3_@Base 4.9.0
 _ZN5Katie19QDesignerDockWidget11qt_metacallENS_11QMetaObject4CallEiPPv@Base 4.9.0
 _ZN5Katie19QDesignerDockWidget11qt_metacastEPKc@Base 4.9.0
 _ZN5Katie19QDesignerDockWidget16staticMetaObjectE@Base 4.9.0
 _ZN5Katie19QDesignerDockWidget17setDockWidgetAreaENS_2Qt14DockWidgetAreaE@Base 4.9.0
 _ZN5Katie19QDesignerDockWidget19getStaticMetaObjectEv@Base 4.9.0
 _ZN5Katie19QDesignerDockWidget9setDockedEb@Base 4.9.0
 _ZN5Katie19QDesignerDockWidgetC1EPNS_7QWidgetE@Base 4.9.0
 _ZN5Katie19QDesignerDockWidgetC2EPNS_7QWidgetE@Base 4.9.0
 _ZN5Katie19QDesignerDockWidgetD0Ev@Base 4.9.0
 _ZN5Katie19QDesignerDockWidgetD1Ev@Base 4.9.0
 _ZN5Katie19QDesignerDockWidgetD2Ev@Base 4.9.0
 _ZN5Katie20QDesignerMemberSheet10setVisibleEib@Base 4.9.0
 _ZN5Katie20QDesignerMemberSheet11qt_metacallENS_11QMetaObject4CallEiPPv@Base 4.9.0
 _ZN5Katie20QDesignerMemberSheet11qt_metacastEPKc@Base 4.9.0
 _ZN5Katie20QDesignerMemberSheet14setMemberGroupEiRKNS_7QStringE@Base 4.9.0
 _ZN5Katie20QDesignerMemberSheet16staticMetaObjectE@Base 4.9.0
 _ZN5Katie20QDesignerMemberSheet17signalMatchesSlotERKNS_7QStringES3_@Base 4.9.0
 _ZN5Katie20QDesignerMemberSheet19getStaticMetaObjectEv@Base 4.9.0
 _ZN5Katie20QDesignerMemberSheetC1EPNS_7QObjectES2_@Base 4.9.0
 _ZN5Katie20QDesignerMemberSheetC2EPNS_7QObjectES2_@Base 4.9.0
 _ZN5Katie20QDesignerMemberSheetD0Ev@Base 4.9.0
 _ZN5Katie20QDesignerMemberSheetD1Ev@Base 4.9.0
 _ZN5Katie20QDesignerMemberSheetD2Ev@Base 4.9.0
 _ZN5Katie20QtResourceViewDialog11qt_metacallENS_11QMetaObject4CallEiPPv@Base 4.9.0
 _ZN5Katie20QtResourceViewDialog11qt_metacastEPKc@Base 4.9.0
 _ZN5Katie20QtResourceViewDialog14selectResourceERKNS_7QStringE@Base 4.9.0
 _ZN5Katie20QtResourceViewDialog16staticMetaObjectE@Base 4.9.0
 _ZN5Katie20QtResourceViewDialog19getStaticMetaObjectEv@Base 4.9.0
 _ZN5Katie20QtResourceViewDialog25setResourceEditingEnabledEb@Base 4.9.0
 _ZN5Katie20QtResourceViewDialogC1EPNS_28QDesignerFormEditorInterfaceEPNS_7QWidgetE@Base 4.9.0
 _ZN5Katie20QtResourceViewDialogC2EPNS_28QDesignerFormEditorInterfaceEPNS_7QWidgetE@Base 4.9.0
 _ZN5Katie20QtResourceViewDialogD0Ev@Base 4.9.0
 _ZN5Katie20QtResourceViewDialogD1Ev@Base 4.9.0
 _ZN5Katie20QtResourceViewDialogD2Ev@Base 4.9.0
 _ZN5Katie21QTabWidgetEventFilter11eventFilterEPNS_7QObjectEPNS_6QEventE@Base 4.9.0
 _ZN5Katie21QTabWidgetEventFilter11qt_metacallENS_11QMetaObject4CallEiPPv@Base 4.9.0
 _ZN5Katie21QTabWidgetEventFilter11qt_metacastEPKc@Base 4.9.0
 _ZN5Katie21QTabWidgetEventFilter12addPageAfterEv@Base 4.9.0
 _ZN5Katie21QTabWidgetEventFilter13eventFilterOfEPKNS_10QTabWidgetE@Base 4.9.0
 _ZN5Katie21QTabWidgetEventFilter16staticMetaObjectE@Base 4.9.0
 _ZN5Katie21QTabWidgetEventFilter17removeCurrentPageEv@Base 4.9.0
 _ZN5Katie21QTabWidgetEventFilter19getStaticMetaObjectEv@Base 4.9.0
 _ZN5Katie21QTabWidgetEventFilter21addContextMenuActionsEPNS_5QMenuE@Base 4.9.0
 _ZN5Katie21QTabWidgetEventFilter30addTabWidgetContextMenuActionsEPKNS_10QTabWidgetEPNS_5QMenuE@Base 4.9.0
 _ZN5Katie21QTabWidgetEventFilter7addPageEv@Base 4.9.0
 _ZN5Katie21QTabWidgetEventFilter7installEPNS_10QTabWidgetE@Base 4.9.0
 _ZN5Katie21QTabWidgetEventFilterC1EPNS_10QTabWidgetE@Base 4.9.0
 _ZN5Katie21QTabWidgetEventFilterC2EPNS_10QTabWidgetE@Base 4.9.0
 _ZN5Katie21QTabWidgetEventFilterD0Ev@Base 4.9.0
 _ZN5Katie21QTabWidgetEventFilterD1Ev@Base 4.9.0
 _ZN5Katie21QTabWidgetEventFilterD2Ev@Base 4.9.0
 _ZN5Katie22QDesignerPluginManager11findPluginsERKNS_7QStringE@Base 4.9.0
 _ZN5Katie22QDesignerPluginManager11qt_metacallENS_11QMetaObject4CallEiPPv@Base 4.9.0
 _ZN5Katie22QDesignerPluginManager11qt_metacastEPKc@Base 4.9.0
 _ZN5Katie22QDesignerPluginManager12registerPathERKNS_7QStringE@Base 4.9.0
 _ZN5Katie22QDesignerPluginManager12syncSettingsEv@Base 4.9.0
 _ZN5Katie22QDesignerPluginManager14registerPluginERKNS_7QStringE@Base 4.9.0
 _ZN5Katie22QDesignerPluginManager14setPluginPathsERKNS_11QStringListE@Base 4.9.0
 _ZN5Katie22QDesignerPluginManager16staticMetaObjectE@Base 4.9.0
 _ZN5Katie22QDesignerPluginManager17ensureInitializedEv@Base 4.9.0
 _ZN5Katie22QDesignerPluginManager18defaultPluginPathsEv@Base 4.9.0
 _ZN5Katie22QDesignerPluginManager18registerNewPluginsEv@Base 4.9.0
 _ZN5Katie22QDesignerPluginManager18setDisabledPluginsERKNS_11QStringListE@Base 4.9.0
 _ZN5Katie22QDesignerPluginManager19getStaticMetaObjectEv@Base 4.9.0
 _ZN5Katie22QDesignerPluginManager23updateRegisteredPluginsEv@Base 4.9.0
 _ZN5Katie22QDesignerPluginManagerC1EPNS_28QDesignerFormEditorInterfaceE@Base 4.9.0
 _ZN5Katie22QDesignerPluginManagerC2EPNS_28QDesignerFormEditorInterfaceE@Base 4.9.0
 _ZN5Katie22QDesignerPluginManagerD0Ev@Base 4.9.0
 _ZN5Katie22QDesignerPluginManagerD1Ev@Base 4.9.0
 _ZN5Katie22QDesignerPluginManagerD2Ev@Base 4.9.0
 _ZN5Katie22QDesignerPropertySheet10setChangedEib@Base 4.9.0
 _ZN5Katie22QDesignerPropertySheet10setVisibleEib@Base 4.9.0
 _ZN5Katie22QDesignerPropertySheet11qt_metacallENS_11QMetaObject4CallEiPPv@Base 4.9.0
 _ZN5Katie22QDesignerPropertySheet11qt_metacastEPKc@Base 4.9.0
 _ZN5Katie22QDesignerPropertySheet11setPropertyEiRKNS_8QVariantE@Base 4.9.0
 _ZN5Katie22QDesignerPropertySheet12setAttributeEib@Base 4.9.0
 _ZN5Katie22QDesignerPropertySheet12setIconCacheEPNS_18qdesigner_internal17DesignerIconCacheE@Base 4.9.0
 _ZN5Katie22QDesignerPropertySheet14setPixmapCacheEPNS_18qdesigner_internal19DesignerPixmapCacheE@Base 4.9.0
 _ZN5Katie22QDesignerPropertySheet15setFakePropertyEiRKNS_8QVariantE@Base 4.9.0
 _ZN5Katie22QDesignerPropertySheet16setPropertyGroupEiRKNS_7QStringE@Base 4.9.0
 _ZN5Katie22QDesignerPropertySheet16staticMetaObjectE@Base 4.9.0
 _ZN5Katie22QDesignerPropertySheet18addDynamicPropertyERKNS_7QStringERKNS_8QVariantE@Base 4.9.0
 _ZN5Katie22QDesignerPropertySheet18createFakePropertyERKNS_7QStringERKNS_8QVariantE@Base 4.9.0
 _ZN5Katie22QDesignerPropertySheet19clearFakePropertiesEv@Base 4.9.0
 _ZN5Katie22QDesignerPropertySheet19getStaticMetaObjectEv@Base 4.9.0
 _ZN5Katie22QDesignerPropertySheet20objectTypeFromObjectEPKNS_7QObjectE@Base 4.9.0
 _ZN5Katie22QDesignerPropertySheet20propertyTypeFromNameERKNS_7QStringE@Base 4.9.0
 _ZN5Katie22QDesignerPropertySheet21removeDynamicPropertyEi@Base 4.9.0
 _ZN5Katie22QDesignerPropertySheet32internalDynamicPropertiesEnabledEv@Base 4.9.0
 _ZN5Katie22QDesignerPropertySheet35setInternalDynamicPropertiesEnabledEb@Base 4.9.0
 _ZN5Katie22QDesignerPropertySheet5resetEi@Base 4.9.0
 _ZN5Katie22QDesignerPropertySheetC1EPNS_7QObjectES2_@Base 4.9.0
 _ZN5Katie22QDesignerPropertySheetC2EPNS_7QObjectES2_@Base 4.9.0
 _ZN5Katie22QDesignerPropertySheetD0Ev@Base 4.9.0
 _ZN5Katie22QDesignerPropertySheetD1Ev@Base 4.9.0
 _ZN5Katie22QDesignerPropertySheetD2Ev@Base 4.9.0
 _ZN5Katie23QTabWidgetPropertySheet11setPropertyEiRKNS_8QVariantE@Base 4.9.0
 _ZN5Katie23QTabWidgetPropertySheet13checkPropertyERKNS_7QStringE@Base 4.9.0
 _ZN5Katie23QTabWidgetPropertySheet25tabWidgetPropertyFromNameERKNS_7QStringE@Base 4.9.0
 _ZN5Katie23QTabWidgetPropertySheet5resetEi@Base 4.9.0
 _ZN5Katie23QTabWidgetPropertySheetC1EPNS_10QTabWidgetEPNS_7QObjectE@Base 4.9.0
 _ZN5Katie23QTabWidgetPropertySheetC2EPNS_10QTabWidgetEPNS_7QObjectE@Base 4.9.0
 _ZN5Katie24QDesignerScriptExtensionD0Ev@Base 4.9.0
 _ZN5Katie24QDesignerScriptExtensionD1Ev@Base 4.9.0
 _ZN5Katie24QDesignerScriptExtensionD2Ev@Base 4.9.0
 _ZN5Katie25QDesignerCustomWidgetData8parseXmlERKNS_7QStringES3_PS1_@Base 4.9.0
 _ZN5Katie25QDesignerCustomWidgetDataC1ERKNS_7QStringE@Base 4.9.0
 _ZN5Katie25QDesignerCustomWidgetDataC1ERKS0_@Base 4.9.0
 _ZN5Katie25QDesignerCustomWidgetDataC2ERKNS_7QStringE@Base 4.9.0
 _ZN5Katie25QDesignerCustomWidgetDataC2ERKS0_@Base 4.9.0
 _ZN5Katie25QDesignerCustomWidgetDataD1Ev@Base 4.9.0
 _ZN5Katie25QDesignerCustomWidgetDataD2Ev@Base 4.9.0
 _ZN5Katie25QDesignerCustomWidgetDataaSERKS0_@Base 4.9.0
 _ZN5Katie25QStackedWidgetEventFilter11changeOrderEv@Base 4.9.0
 _ZN5Katie25QStackedWidgetEventFilter11qt_metacallENS_11QMetaObject4CallEiPPv@Base 4.9.0
 _ZN5Katie25QStackedWidgetEventFilter11qt_metacastEPKc@Base 4.9.0
 _ZN5Katie25QStackedWidgetEventFilter12addPageAfterEv@Base 4.9.0
 _ZN5Katie25QStackedWidgetEventFilter13eventFilterOfEPKNS_14QStackedWidgetE@Base 4.9.0
 _ZN5Katie25QStackedWidgetEventFilter16staticMetaObjectE@Base 4.9.0
 _ZN5Katie25QStackedWidgetEventFilter17removeCurrentPageEv@Base 4.9.0
 _ZN5Katie25QStackedWidgetEventFilter19getStaticMetaObjectEv@Base 4.9.0
 _ZN5Katie25QStackedWidgetEventFilter21addContextMenuActionsEPNS_5QMenuE@Base 4.9.0
 _ZN5Katie25QStackedWidgetEventFilter34addStackedWidgetContextMenuActionsEPKNS_14QStackedWidgetEPNS_5QMenuE@Base 4.9.0
 _ZN5Katie25QStackedWidgetEventFilter7addPageEv@Base 4.9.0
 _ZN5Katie25QStackedWidgetEventFilter7installEPNS_14QStackedWidgetE@Base 4.9.0
 _ZN5Katie25QStackedWidgetEventFilter8gotoPageEi@Base 4.9.0
 _ZN5Katie25QStackedWidgetEventFilterC1EPNS_14QStackedWidgetE@Base 4.9.0
 _ZN5Katie25QStackedWidgetEventFilterC2EPNS_14QStackedWidgetE@Base 4.9.0
 _ZN5Katie26QDesignerMetaEnumInterfaceC1Ev@Base 4.9.0
 _ZN5Katie26QDesignerMetaEnumInterfaceC2Ev@Base 4.9.0
 _ZN5Katie26QDesignerMetaEnumInterfaceD0Ev@Base 4.9.0
 _ZN5Katie26QDesignerMetaEnumInterfaceD1Ev@Base 4.9.0
 _ZN5Katie26QDesignerMetaEnumInterfaceD2Ev@Base 4.9.0
 _ZN5Katie27QDesignerDialogGuiInterface20getOpenImageFileNameEPNS_7QWidgetERKNS_7QStringES5_S5_PS3_NS_6QFlagsINS_11QFileDialog6OptionEEE@Base 4.9.0
 _ZN5Katie27QDesignerDialogGuiInterface21getOpenImageFileNamesEPNS_7QWidgetERKNS_7QStringES5_S5_PS3_NS_6QFlagsINS_11QFileDialog6OptionEEE@Base 4.9.0
 _ZN5Katie27QDesignerDialogGuiInterfaceC1Ev@Base 4.9.0
 _ZN5Katie27QDesignerDialogGuiInterfaceC2Ev@Base 4.9.0
 _ZN5Katie27QDesignerDialogGuiInterfaceD0Ev@Base 4.9.0
 _ZN5Katie27QDesignerDialogGuiInterfaceD1Ev@Base 4.9.0
 _ZN5Katie27QDesignerDialogGuiInterfaceD2Ev@Base 4.9.0
 _ZN5Katie27QDesignerExtraInfoExtension19setWorkingDirectoryERKNS_7QStringE@Base 4.9.0
 _ZN5Katie27QDesignerIconCacheInterface11qt_metacallENS_11QMetaObject4CallEiPPv@Base 4.9.0
 _ZN5Katie27QDesignerIconCacheInterface11qt_metacastEPKc@Base 4.9.0
 _ZN5Katie27QDesignerIconCacheInterface16staticMetaObjectE@Base 4.9.0
 _ZN5Katie27QDesignerIconCacheInterface19getStaticMetaObjectEv@Base 4.9.0
 _ZN5Katie27QDesignerMemberSheetFactory11qt_metacallENS_11QMetaObject4CallEiPPv@Base 4.9.0
 _ZN5Katie27QDesignerMemberSheetFactory11qt_metacastEPKc@Base 4.9.0
 _ZN5Katie27QDesignerMemberSheetFactory16staticMetaObjectE@Base 4.9.0
 _ZN5Katie27QDesignerMemberSheetFactory19getStaticMetaObjectEv@Base 4.9.0
 _ZN5Katie27QDesignerMemberSheetFactoryC1EPNS_17QExtensionManagerE@Base 4.9.0
 _ZN5Katie27QDesignerMemberSheetFactoryC2EPNS_17QExtensionManagerE@Base 4.9.0
 _ZN5Katie27QDesignerPromotionInterfaceD0Ev@Base 4.9.0
 _ZN5Katie27QDesignerPromotionInterfaceD1Ev@Base 4.9.0
 _ZN5Katie27QDesignerPromotionInterfaceD2Ev@Base 4.9.0
 _ZN5Katie27QDesignerWidgetBoxInterface11qt_metacallENS_11QMetaObject4CallEiPPv@Base 4.9.0
 _ZN5Katie27QDesignerWidgetBoxInterface11qt_metacastEPKc@Base 4.9.0
 _ZN5Katie27QDesignerWidgetBoxInterface16staticMetaObjectE@Base 4.9.0
 _ZN5Katie27QDesignerWidgetBoxInterface19getStaticMetaObjectEv@Base 4.9.0
 _ZN5Katie27QDesignerWidgetBoxInterface20findOrInsertCategoryERKNS_7QStringE@Base 4.9.0
 _ZN5Katie27QDesignerWidgetBoxInterfaceC1EPNS_7QWidgetENS_6QFlagsINS_2Qt10WindowTypeEEE@Base 4.9.0
 _ZN5Katie27QDesignerWidgetBoxInterfaceC2EPNS_7QWidgetENS_6QFlagsINS_2Qt10WindowTypeEEE@Base 4.9.0
 _ZN5Katie27QDesignerWidgetBoxInterfaceD0Ev@Base 4.9.0
 _ZN5Katie27QDesignerWidgetBoxInterfaceD1Ev@Base 4.9.0
 _ZN5Katie27QDesignerWidgetBoxInterfaceD2Ev@Base 4.9.0
 _ZN5Katie27QStackedWidgetPropertySheet11setPropertyEiRKNS_8QVariantE@Base 4.9.0
 _ZN5Katie27QStackedWidgetPropertySheet13checkPropertyERKNS_7QStringE@Base 4.9.0
 _ZN5Katie27QStackedWidgetPropertySheet5resetEi@Base 4.9.0
 _ZN5Katie27QStackedWidgetPropertySheetC1EPNS_14QStackedWidgetEPNS_7QObjectE@Base 4.9.0
 _ZN5Katie27QStackedWidgetPropertySheetC2EPNS_14QStackedWidgetEPNS_7QObjectE@Base 4.9.0
 _ZN5Katie27QToolBoxWidgetPropertySheet11setPropertyEiRKNS_8QVariantE@Base 4.9.0
 _ZN5Katie27QToolBoxWidgetPropertySheet13checkPropertyERKNS_7QStringE@Base 4.9.0
 _ZN5Katie27QToolBoxWidgetPropertySheet23toolBoxPropertyFromNameERKNS_7QStringE@Base 4.9.0
 _ZN5Katie27QToolBoxWidgetPropertySheet5resetEi@Base 4.9.0
 _ZN5Katie27QToolBoxWidgetPropertySheetC1EPNS_8QToolBoxEPNS_7QObjectE@Base 4.9.0
 _ZN5Katie27QToolBoxWidgetPropertySheetC2EPNS_8QToolBoxEPNS_7QObjectE@Base 4.9.0
 _ZN5Katie28QDesignerFormEditorInterface11qt_metacallENS_11QMetaObject4CallEiPPv@Base 4.9.0
 _ZN5Katie28QDesignerFormEditorInterface11qt_metacastEPKc@Base 4.9.0
 _ZN5Katie28QDesignerFormEditorInterface11setTopLevelEPNS_7QWidgetE@Base 4.9.0
 _ZN5Katie28QDesignerFormEditorInterface12setDialogGuiEPNS_27QDesignerDialogGuiInterfaceE@Base 4.9.0
 _ZN5Katie28QDesignerFormEditorInterface12setIconCacheEPNS_27QDesignerIconCacheInterfaceE@Base 4.9.0
 _ZN5Katie28QDesignerFormEditorInterface12setPromotionEPNS_27QDesignerPromotionInterfaceE@Base 4.9.0
 _ZN5Katie28QDesignerFormEditorInterface12setWidgetBoxEPNS_27QDesignerWidgetBoxInterfaceE@Base 4.9.0
 _ZN5Katie28QDesignerFormEditorInterface14setFormManagerEPNS_35QDesignerFormWindowManagerInterfaceE@Base 4.9.0
 _ZN5Katie28QDesignerFormEditorInterface14setIntegrationEPNS_29QDesignerIntegrationInterfaceE@Base 4.9.0
 _ZN5Katie28QDesignerFormEditorInterface15setActionEditorEPNS_30QDesignerActionEditorInterfaceE@Base 4.9.0
 _ZN5Katie28QDesignerFormEditorInterface15setBrushManagerEPNS_30QDesignerBrushManagerInterfaceE@Base 4.9.0
 _ZN5Katie28QDesignerFormEditorInterface15setMetaDataBaseEPNS_30QDesignerMetaDataBaseInterfaceE@Base 4.9.0
 _ZN5Katie28QDesignerFormEditorInterface15setOptionsPagesERKNS_5QListIPNS_29QDesignerOptionsPageInterfaceEEE@Base 4.9.0
 _ZN5Katie28QDesignerFormEditorInterface16setIntrospectionEPNS_31QDesignerIntrospectionInterfaceE@Base 4.9.0
 _ZN5Katie28QDesignerFormEditorInterface16setPluginManagerEPNS_22QDesignerPluginManagerE@Base 4.9.0
 _ZN5Katie28QDesignerFormEditorInterface16setResourceModelEPNS_15QtResourceModelE@Base 4.9.0
 _ZN5Katie28QDesignerFormEditorInterface16setWidgetFactoryEPNS_31QDesignerWidgetFactoryInterfaceE@Base 4.9.0
 _ZN5Katie28QDesignerFormEditorInterface16staticMetaObjectE@Base 4.9.0
 _ZN5Katie28QDesignerFormEditorInterface17setPropertyEditorEPNS_32QDesignerPropertyEditorInterfaceE@Base 4.9.0
 _ZN5Katie28QDesignerFormEditorInterface17setWidgetDataBaseEPNS_32QDesignerWidgetDataBaseInterfaceE@Base 4.9.0
 _ZN5Katie28QDesignerFormEditorInterface18setGradientManagerEPNS_17QtGradientManagerE@Base 4.9.0
 _ZN5Katie28QDesignerFormEditorInterface18setObjectInspectorEPNS_33QDesignerObjectInspectorInterfaceE@Base 4.9.0
 _ZN5Katie28QDesignerFormEditorInterface18setSettingsManagerEPNS_26QDesignerSettingsInterfaceE@Base 4.9.0
 _ZN5Katie28QDesignerFormEditorInterface19getStaticMetaObjectEv@Base 4.9.0
 _ZN5Katie28QDesignerFormEditorInterface19setExtensionManagerEPNS_17QExtensionManagerE@Base 4.9.0
 _ZN5Katie28QDesignerFormEditorInterfaceC1EPNS_7QObjectE@Base 4.9.0
 _ZN5Katie28QDesignerFormEditorInterfaceC2EPNS_7QObjectE@Base 4.9.0
 _ZN5Katie28QDesignerFormEditorInterfaceD0Ev@Base 4.9.0
 _ZN5Katie28QDesignerFormEditorInterfaceD1Ev@Base 4.9.0
 _ZN5Katie28QDesignerFormEditorInterfaceD2Ev@Base 4.9.0
 _ZN5Katie28QDesignerFormWindowInterface11qt_metacallENS_11QMetaObject4CallEiPPv@Base 4.9.0
 _ZN5Katie28QDesignerFormWindowInterface11qt_metacastEPKc@Base 4.9.0
 _ZN5Katie28QDesignerFormWindowInterface11toolChangedEi@Base 4.9.0
 _ZN5Katie28QDesignerFormWindowInterface13objectRemovedEPNS_7QObjectE@Base 4.9.0
 _ZN5Katie28QDesignerFormWindowInterface13widgetManagedEPNS_7QWidgetE@Base 4.9.0
 _ZN5Katie28QDesignerFormWindowInterface13widgetRemovedEPNS_7QWidgetE@Base 4.9.0
 _ZN5Katie28QDesignerFormWindowInterface14featureChangedENS_6QFlagsINS0_11FeatureFlagEEE@Base 4.9.0
 _ZN5Katie28QDesignerFormWindowInterface14findFormWindowEPNS_7QObjectE@Base 4.9.0
 _ZN5Katie28QDesignerFormWindowInterface14findFormWindowEPNS_7QWidgetE@Base 4.9.0
 _ZN5Katie28QDesignerFormWindowInterface15fileNameChangedERKNS_7QStringE@Base 4.9.0
 _ZN5Katie28QDesignerFormWindowInterface15geometryChangedEv@Base 4.9.0
 _ZN5Katie28QDesignerFormWindowInterface15widgetUnmanagedEPNS_7QWidgetE@Base 4.9.0
 _ZN5Katie28QDesignerFormWindowInterface16selectionChangedEv@Base 4.9.0
 _ZN5Katie28QDesignerFormWindowInterface16staticMetaObjectE@Base 4.9.0
 _ZN5Katie28QDesignerFormWindowInterface19getStaticMetaObjectEv@Base 4.9.0
 _ZN5Katie28QDesignerFormWindowInterface20mainContainerChangedEPNS_7QWidgetE@Base 4.9.0
 _ZN5Katie28QDesignerFormWindowInterface20resourceFilesChangedEv@Base 4.9.0
 _ZN5Katie28QDesignerFormWindowInterface21aboutToUnmanageWidgetEPNS_7QWidgetE@Base 4.9.0
 _ZN5Katie28QDesignerFormWindowInterface7changedEv@Base 4.9.0
 _ZN5Katie28QDesignerFormWindowInterface9activatedEPNS_7QWidgetE@Base 4.9.0
 _ZN5Katie28QDesignerFormWindowInterfaceC1EPNS_7QWidgetENS_6QFlagsINS_2Qt10WindowTypeEEE@Base 4.9.0
 _ZN5Katie28QDesignerFormWindowInterfaceC2EPNS_7QWidgetENS_6QFlagsINS_2Qt10WindowTypeEEE@Base 4.9.0
 _ZN5Katie28QDesignerFormWindowInterfaceD0Ev@Base 4.9.0
 _ZN5Katie28QDesignerFormWindowInterfaceD1Ev@Base 4.9.0
 _ZN5Katie28QDesignerFormWindowInterfaceD2Ev@Base 4.9.0
 _ZN5Katie28QDesignerMetaMethodInterfaceC1Ev@Base 4.9.0
 _ZN5Katie28QDesignerMetaMethodInterfaceC2Ev@Base 4.9.0
 _ZN5Katie28QDesignerMetaMethodInterfaceD0Ev@Base 4.9.0
 _ZN5Katie28QDesignerMetaMethodInterfaceD1Ev@Base 4.9.0
 _ZN5Katie28QDesignerMetaMethodInterfaceD2Ev@Base 4.9.0
 _ZN5Katie28QDesignerMetaObjectInterfaceC1Ev@Base 4.9.0
 _ZN5Katie28QDesignerMetaObjectInterfaceC2Ev@Base 4.9.0
 _ZN5Katie28QDesignerMetaObjectInterfaceD0Ev@Base 4.9.0
 _ZN5Katie28QDesignerMetaObjectInterfaceD1Ev@Base 4.9.0
 _ZN5Katie28QDesignerMetaObjectInterfaceD2Ev@Base 4.9.0
 _ZN5Katie29QDesignerIntegrationInterface11qt_metacallENS_11QMetaObject4CallEiPPv@Base 4.9.0
 _ZN5Katie29QDesignerIntegrationInterface11qt_metacastEPKc@Base 4.9.0
 _ZN5Katie29QDesignerIntegrationInterface15setHeaderSuffixERKNS_7QStringE@Base 4.9.0
 _ZN5Katie29QDesignerIntegrationInterface16staticMetaObjectE@Base 4.9.0
 _ZN5Katie29QDesignerIntegrationInterface18setHeaderLowercaseEb@Base 4.9.0
 _ZN5Katie29QDesignerIntegrationInterface19getStaticMetaObjectEv@Base 4.9.0
 _ZN5Katie29QDesignerIntegrationInterfaceC1EPNS_28QDesignerFormEditorInterfaceEPNS_7QObjectE@Base 4.9.0
 _ZN5Katie29QDesignerIntegrationInterfaceC2EPNS_28QDesignerFormEditorInterfaceEPNS_7QObjectE@Base 4.9.0
 _ZN5Katie30QDesignerActionEditorInterface11qt_metacallENS_11QMetaObject4CallEiPPv@Base 4.9.0
 _ZN5Katie30QDesignerActionEditorInterface11qt_metacastEPKc@Base 4.9.0
 _ZN5Katie30QDesignerActionEditorInterface16staticMetaObjectE@Base 4.9.0
 _ZN5Katie30QDesignerActionEditorInterface19getStaticMetaObjectEv@Base 4.9.0
 _ZN5Katie30QDesignerActionEditorInterfaceC1EPNS_7QWidgetENS_6QFlagsINS_2Qt10WindowTypeEEE@Base 4.9.0
 _ZN5Katie30QDesignerActionEditorInterfaceC2EPNS_7QWidgetENS_6QFlagsINS_2Qt10WindowTypeEEE@Base 4.9.0
 _ZN5Katie30QDesignerActionEditorInterfaceD0Ev@Base 4.9.0
 _ZN5Katie30QDesignerActionEditorInterfaceD1Ev@Base 4.9.0
 _ZN5Katie30QDesignerActionEditorInterfaceD2Ev@Base 4.9.0
 _ZN5Katie30QDesignerBrushManagerInterface10brushAddedERKNS_7QStringERKNS_6QBrushE@Base 4.9.0
 _ZN5Katie30QDesignerBrushManagerInterface11qt_metacallENS_11QMetaObject4CallEiPPv@Base 4.9.0
 _ZN5Katie30QDesignerBrushManagerInterface11qt_metacastEPKc@Base 4.9.0
 _ZN5Katie30QDesignerBrushManagerInterface12brushRemovedERKNS_7QStringE@Base 4.9.0
 _ZN5Katie30QDesignerBrushManagerInterface16staticMetaObjectE@Base 4.9.0
 _ZN5Katie30QDesignerBrushManagerInterface19currentBrushChangedERKNS_7QStringERKNS_6QBrushE@Base 4.9.0
 _ZN5Katie30QDesignerBrushManagerInterface19getStaticMetaObjectEv@Base 4.9.0
 _ZN5Katie30QDesignerMetaDataBaseInterface11qt_metacallENS_11QMetaObject4CallEiPPv@Base 4.9.0
 _ZN5Katie30QDesignerMetaDataBaseInterface11qt_metacastEPKc@Base 4.9.0
 _ZN5Katie30QDesignerMetaDataBaseInterface16staticMetaObjectE@Base 4.9.0
 _ZN5Katie30QDesignerMetaDataBaseInterface19getStaticMetaObjectEv@Base 4.9.0
 _ZN5Katie30QDesignerMetaDataBaseInterface7changedEv@Base 4.9.0
 _ZN5Katie30QDesignerMetaDataBaseInterfaceC1EPNS_7QObjectE@Base 4.9.0
 _ZN5Katie30QDesignerMetaDataBaseInterfaceC2EPNS_7QObjectE@Base 4.9.0
 _ZN5Katie30QDesignerMetaDataBaseInterfaceD0Ev@Base 4.9.0
 _ZN5Katie30QDesignerMetaDataBaseInterfaceD1Ev@Base 4.9.0
 _ZN5Katie30QDesignerMetaDataBaseInterfaceD2Ev@Base 4.9.0
 _ZN5Katie30QDesignerMetaPropertyInterfaceC1Ev@Base 4.9.0
 _ZN5Katie30QDesignerMetaPropertyInterfaceC2Ev@Base 4.9.0
 _ZN5Katie30QDesignerMetaPropertyInterfaceD0Ev@Base 4.9.0
 _ZN5Katie30QDesignerMetaPropertyInterfaceD1Ev@Base 4.9.0
 _ZN5Katie30QDesignerMetaPropertyInterfaceD2Ev@Base 4.9.0
 _ZN5Katie31QDesignerIntrospectionInterfaceC1Ev@Base 4.9.0
 _ZN5Katie31QDesignerIntrospectionInterfaceC2Ev@Base 4.9.0
 _ZN5Katie31QDesignerIntrospectionInterfaceD0Ev@Base 4.9.0
 _ZN5Katie31QDesignerIntrospectionInterfaceD1Ev@Base 4.9.0
 _ZN5Katie31QDesignerIntrospectionInterfaceD2Ev@Base 4.9.0
 _ZN5Katie31QDesignerNewFormWidgetInterface11qt_metacallENS_11QMetaObject4CallEiPPv@Base 4.9.0
 _ZN5Katie31QDesignerNewFormWidgetInterface11qt_metacastEPKc@Base 4.9.0
 _ZN5Katie31QDesignerNewFormWidgetInterface16staticMetaObjectE@Base 4.9.0
 _ZN5Katie31QDesignerNewFormWidgetInterface17templateActivatedEv@Base 4.9.0
 _ZN5Katie31QDesignerNewFormWidgetInterface19createNewFormWidgetEPNS_28QDesignerFormEditorInterfaceEPNS_7QWidgetE@Base 4.9.0
 _ZN5Katie31QDesignerNewFormWidgetInterface19getStaticMetaObjectEv@Base 4.9.0
 _ZN5Katie31QDesignerNewFormWidgetInterface22currentTemplateChangedEb@Base 4.9.0
 _ZN5Katie31QDesignerNewFormWidgetInterfaceC1EPNS_7QWidgetE@Base 4.9.0
 _ZN5Katie31QDesignerNewFormWidgetInterfaceC2EPNS_7QWidgetE@Base 4.9.0
 _ZN5Katie31QDesignerNewFormWidgetInterfaceD0Ev@Base 4.9.0
 _ZN5Katie31QDesignerNewFormWidgetInterfaceD1Ev@Base 4.9.0
 _ZN5Katie31QDesignerNewFormWidgetInterfaceD2Ev@Base 4.9.0
 _ZN5Katie31QDesignerWidgetFactoryInterface11qt_metacallENS_11QMetaObject4CallEiPPv@Base 4.9.0
 _ZN5Katie31QDesignerWidgetFactoryInterface11qt_metacastEPKc@Base 4.9.0
 _ZN5Katie31QDesignerWidgetFactoryInterface16staticMetaObjectE@Base 4.9.0
 _ZN5Katie31QDesignerWidgetFactoryInterface19getStaticMetaObjectEv@Base 4.9.0
 _ZN5Katie31QDesignerWidgetFactoryInterfaceC1EPNS_7QObjectE@Base 4.9.0
 _ZN5Katie31QDesignerWidgetFactoryInterfaceC2EPNS_7QObjectE@Base 4.9.0
 _ZN5Katie31QDesignerWidgetFactoryInterfaceD0Ev@Base 4.9.0
 _ZN5Katie31QDesignerWidgetFactoryInterfaceD1Ev@Base 4.9.0
 _ZN5Katie31QDesignerWidgetFactoryInterfaceD2Ev@Base 4.9.0
 _ZN5Katie32QDesignerFormWindowToolInterface11qt_metacallENS_11QMetaObject4CallEiPPv@Base 4.9.0
 _ZN5Katie32QDesignerFormWindowToolInterface11qt_metacastEPKc@Base 4.9.0
 _ZN5Katie32QDesignerFormWindowToolInterface16staticMetaObjectE@Base 4.9.0
 _ZN5Katie32QDesignerFormWindowToolInterface19getStaticMetaObjectEv@Base 4.9.0
 _ZN5Katie32QDesignerFormWindowToolInterfaceC1EPNS_7QObjectE@Base 4.9.0
 _ZN5Katie32QDesignerFormWindowToolInterfaceC2EPNS_7QObjectE@Base 4.9.0
 _ZN5Katie32QDesignerFormWindowToolInterfaceD0Ev@Base 4.9.0
 _ZN5Katie32QDesignerFormWindowToolInterfaceD1Ev@Base 4.9.0
 _ZN5Katie32QDesignerFormWindowToolInterfaceD2Ev@Base 4.9.0
 _ZN5Katie32QDesignerPropertyEditorInterface11qt_metacallENS_11QMetaObject4CallEiPPv@Base 4.9.0
 _ZN5Katie32QDesignerPropertyEditorInterface11qt_metacastEPKc@Base 4.9.0
 _ZN5Katie32QDesignerPropertyEditorInterface15propertyChangedERKNS_7QStringERKNS_8QVariantE@Base 4.9.0
 _ZN5Katie32QDesignerPropertyEditorInterface16staticMetaObjectE@Base 4.9.0
 _ZN5Katie32QDesignerPropertyEditorInterface19getStaticMetaObjectEv@Base 4.9.0
 _ZN5Katie32QDesignerPropertyEditorInterfaceC1EPNS_7QWidgetENS_6QFlagsINS_2Qt10WindowTypeEEE@Base 4.9.0
 _ZN5Katie32QDesignerPropertyEditorInterfaceC2EPNS_7QWidgetENS_6QFlagsINS_2Qt10WindowTypeEEE@Base 4.9.0
 _ZN5Katie32QDesignerPropertyEditorInterfaceD0Ev@Base 4.9.0
 _ZN5Katie32QDesignerPropertyEditorInterfaceD1Ev@Base 4.9.0
 _ZN5Katie32QDesignerPropertyEditorInterfaceD2Ev@Base 4.9.0
 _ZN5Katie32QDesignerWidgetDataBaseInterface11qt_metacallENS_11QMetaObject4CallEiPPv@Base 4.9.0
 _ZN5Katie32QDesignerWidgetDataBaseInterface11qt_metacastEPKc@Base 4.9.0
 _ZN5Katie32QDesignerWidgetDataBaseInterface16staticMetaObjectE@Base 4.9.0
 _ZN5Katie32QDesignerWidgetDataBaseInterface19getStaticMetaObjectEv@Base 4.9.0
 _ZN5Katie32QDesignerWidgetDataBaseInterface6appendEPNS_36QDesignerWidgetDataBaseItemInterfaceE@Base 4.9.0
